ARM GAS  C:\Users\tdoan1\AppData\Local\Temp\ccL3nVE6.s 			page 1


   1              		.syntax unified
   2              		.cpu cortex-m0
   3              		.fpu softvfp
   4              		.eabi_attribute 20, 1
   5              		.eabi_attribute 21, 1
   6              		.eabi_attribute 23, 3
   7              		.eabi_attribute 24, 1
   8              		.eabi_attribute 25, 1
   9              		.eabi_attribute 26, 1
  10              		.eabi_attribute 30, 1
  11              		.eabi_attribute 34, 0
  12              		.eabi_attribute 18, 4
  13              		.thumb
  14              		.syntax unified
  15              		.file	"Data_and_Func.c"
  16              		.text
  17              	.Ltext0:
  18              		.cfi_sections	.debug_frame
  19              		.section	.text.Reset1,"ax",%progbits
  20              		.align	2
  21              		.global	Reset1
  22              		.code	16
  23              		.thumb_func
  24              		.type	Reset1, %function
  25              	Reset1:
  26              	.LFB33:
  27              		.file 1 "Data_and_Func.c"
   1:Data_and_Func.c **** #include <project.h>
   2:Data_and_Func.c **** #include <stdio.h>   				/* sprintf() */
   3:Data_and_Func.c **** 
   4:Data_and_Func.c **** //************* usually you put here a #include "Data_and_Func.h" ******
   5:Data_and_Func.c **** //************* but this will not work because you declared variables in the .h
   6:Data_and_Func.c **** 
   7:Data_and_Func.c **** volatile uint8 HaveAnswer = 0;		//	Indicator for a complete answer
   8:Data_and_Func.c **** char ATanswer[80];
   9:Data_and_Func.c **** 
  10:Data_and_Func.c **** void Reset1(void)
  11:Data_and_Func.c **** { 
  28              		.loc 1 11 0
  29              		.cfi_startproc
  30              		@ args = 0, pretend = 0, frame = 0
  31              		@ frame_needed = 0, uses_anonymous_args = 0
  32 0000 10B5     		push	{r4, lr}
  33              		.cfi_def_cfa_offset 8
  34              		.cfi_offset 4, -8
  35              		.cfi_offset 14, -4
  12:Data_and_Func.c **** 	RST_Write(0); CyDelay(5); RST_Write(1);
  36              		.loc 1 12 0
  37 0002 0020     		movs	r0, #0
  38 0004 FFF7FEFF 		bl	RST_Write
  39              	.LVL0:
  40 0008 0520     		movs	r0, #5
  41 000a FFF7FEFF 		bl	CyDelay
  42              	.LVL1:
  43 000e 0120     		movs	r0, #1
  44 0010 FFF7FEFF 		bl	RST_Write
  45              	.LVL2:
ARM GAS  C:\Users\tdoan1\AppData\Local\Temp\ccL3nVE6.s 			page 2


  13:Data_and_Func.c **** }
  46              		.loc 1 13 0
  47              		@ sp needed
  48 0014 10BD     		pop	{r4, pc}
  49              		.cfi_endproc
  50              	.LFE33:
  51              		.size	Reset1, .-Reset1
  52 0016 C046     		.section	.text.GetChar,"ax",%progbits
  53              		.align	2
  54              		.global	GetChar
  55              		.code	16
  56              		.thumb_func
  57              		.type	GetChar, %function
  58              	GetChar:
  59              	.LFB34:
  14:Data_and_Func.c **** 
  15:Data_and_Func.c **** CY_ISR(GetChar)
  16:Data_and_Func.c **** {
  60              		.loc 1 16 0
  61              		.cfi_startproc
  62              		@ args = 0, pretend = 0, frame = 0
  63              		@ frame_needed = 0, uses_anonymous_args = 0
  64 0000 10B5     		push	{r4, lr}
  65              		.cfi_def_cfa_offset 8
  66              		.cfi_offset 4, -8
  67              		.cfi_offset 14, -4
  17:Data_and_Func.c **** static uint8 Index = 0;
  18:Data_and_Func.c **** uint8 Chr;
  19:Data_and_Func.c **** 	UART_ReadRxStatus();			//	Clear interrupts
  68              		.loc 1 19 0
  69 0002 FFF7FEFF 		bl	UART_ReadRxStatus
  70              	.LVL3:
  20:Data_and_Func.c **** 	Chr = UART_GetByte();
  71              		.loc 1 20 0
  72 0006 FFF7FEFF 		bl	UART_GetByte
  73              	.LVL4:
  74 000a C0B2     		uxtb	r0, r0
  75              	.LVL5:
  21:Data_and_Func.c **** 	ATanswer[Index] = 0;			//	String terminator
  76              		.loc 1 21 0
  77 000c 0A4B     		ldr	r3, .L6
  78 000e 1B78     		ldrb	r3, [r3]
  79 0010 0021     		movs	r1, #0
  80 0012 0A4A     		ldr	r2, .L6+4
  81 0014 D154     		strb	r1, [r2, r3]
  22:Data_and_Func.c **** 	if((Chr == '\n') || (Chr == '\r'))	//	End of string?
  82              		.loc 1 22 0
  83 0016 0A28     		cmp	r0, #10
  84 0018 01D0     		beq	.L3
  85              		.loc 1 22 0 is_stmt 0 discriminator 1
  86 001a 0D28     		cmp	r0, #13
  87 001c 05D1     		bne	.L4
  88              	.L3:
  23:Data_and_Func.c **** 	{
  24:Data_and_Func.c **** 		Index = 0;					//	Start anew
  89              		.loc 1 24 0 is_stmt 1
  90 001e 064B     		ldr	r3, .L6
ARM GAS  C:\Users\tdoan1\AppData\Local\Temp\ccL3nVE6.s 			page 3


  91 0020 0022     		movs	r2, #0
  92 0022 1A70     		strb	r2, [r3]
  25:Data_and_Func.c **** 		HaveAnswer = 1;				///	Set flag
  93              		.loc 1 25 0
  94 0024 0132     		adds	r2, r2, #1
  95 0026 5A70     		strb	r2, [r3, #1]
  96 0028 04E0     		b	.L2
  97              	.L4:
  26:Data_and_Func.c **** 	}
  27:Data_and_Func.c **** 	else 
  28:Data_and_Func.c **** 	{
  29:Data_and_Func.c **** 		ATanswer[Index++] = Chr;	//	Put char into buffer
  98              		.loc 1 29 0
  99 002a 591C     		adds	r1, r3, #1
 100 002c 024A     		ldr	r2, .L6
 101 002e 1170     		strb	r1, [r2]
 102 0030 024A     		ldr	r2, .L6+4
 103 0032 D054     		strb	r0, [r2, r3]
 104              	.L2:
  30:Data_and_Func.c **** 	}
  31:Data_and_Func.c **** }
 105              		.loc 1 31 0
 106              		@ sp needed
 107 0034 10BD     		pop	{r4, pc}
 108              	.L7:
 109 0036 C046     		.align	2
 110              	.L6:
 111 0038 00000000 		.word	.LANCHOR0
 112 003c 00000000 		.word	ATanswer
 113              		.cfi_endproc
 114              	.LFE34:
 115              		.size	GetChar, .-GetChar
 116              		.section	.text.WaitText,"ax",%progbits
 117              		.align	2
 118              		.global	WaitText
 119              		.code	16
 120              		.thumb_func
 121              		.type	WaitText, %function
 122              	WaitText:
 123              	.LFB35:
  32:Data_and_Func.c **** 
  33:Data_and_Func.c **** uint16  WaitText(char *target, int time) 	/******************************************************/	
  34:Data_and_Func.c ****  {
 124              		.loc 1 34 0
 125              		.cfi_startproc
 126              		@ args = 0, pretend = 0, frame = 0
 127              		@ frame_needed = 0, uses_anonymous_args = 0
 128              	.LVL6:
 129 0000 70B5     		push	{r4, r5, r6, lr}
 130              		.cfi_def_cfa_offset 16
 131              		.cfi_offset 4, -16
 132              		.cfi_offset 5, -12
 133              		.cfi_offset 6, -8
 134              		.cfi_offset 14, -4
 135 0002 0500     		movs	r5, r0
  35:Data_and_Func.c **** uint8 targetLen = strlen(target); 								// –î–ª–∏–Ω–∞ –∏—Å–∫–æ–º–æ–≥–æ —Ñ—Ä–∞–≥–º–µ–Ω—Ç–∞
 136              		.loc 1 35 0
ARM GAS  C:\Users\tdoan1\AppData\Local\Temp\ccL3nVE6.s 			page 4


 137 0004 FFF7FEFF 		bl	strlen
 138              	.LVL7:
 139 0008 C6B2     		uxtb	r6, r0
 140              	.LVL8:
  36:Data_and_Func.c **** uint8 index = 0;  												// maximum target string length is 255 bytes
 141              		.loc 1 36 0
 142 000a 0024     		movs	r4, #0
  37:Data_and_Func.c **** char c;															// —Ç–µ–∫—É—â–∏–π —Å–∏–º–≤–æ–ª
  38:Data_and_Func.c **** while(UART_GetRxBufferSize())
 143              		.loc 1 38 0
 144 000c 0AE0     		b	.L9
 145              	.LVL9:
 146              	.L12:
  39:Data_and_Func.c **** //do
  40:Data_and_Func.c **** { 							// —á–∏—Ç–∞–µ–º UART  
  41:Data_and_Func.c **** 	  c = UART_ReadRxData();										// —ç—Ç–æ —ç–ª–µ–º–µ–Ω—Ç[index] –∏—Å–∫–æ–º–æ–π —Å—Ç—Ä–æ–∫–∏?  
 147              		.loc 1 41 0
 148 000e FFF7FEFF 		bl	UART_ReadRxData
 149              	.LVL10:
  42:Data_and_Func.c ****       if( c == target[index]){  if(++index >= targetLen){return 1; }}	// return true –µ—Å–ª–∏ –≤—Å–
 150              		.loc 1 42 0
 151 0012 2B5D     		ldrb	r3, [r5, r4]
 152 0014 9842     		cmp	r0, r3
 153 0016 04D1     		bne	.L13
 154              		.loc 1 42 0 is_stmt 0 discriminator 1
 155 0018 0134     		adds	r4, r4, #1
 156              	.LVL11:
 157 001a E4B2     		uxtb	r4, r4
 158              	.LVL12:
 159 001c A642     		cmp	r6, r4
 160 001e 01D8     		bhi	.L9
 161 0020 05E0     		b	.L14
 162              	.L13:
  43:Data_and_Func.c ****       else  index = 0;   //..........................     				// –Ω–µ —Ç–æ—Ç —Ñ—Ä–∞–≥–º–µ–Ω—Ç - –æ–
 163              		.loc 1 43 0 is_stmt 1
 164 0022 0024     		movs	r4, #0
 165              	.LVL13:
 166              	.L9:
  38:Data_and_Func.c **** //do
 167              		.loc 1 38 0
 168 0024 FFF7FEFF 		bl	UART_GetRxBufferSize
 169              	.LVL14:
 170 0028 0028     		cmp	r0, #0
 171 002a F0D1     		bne	.L12
 172 002c 00E0     		b	.L11
 173              	.LVL15:
 174              	.L14:
  42:Data_and_Func.c ****       if( c == target[index]){  if(++index >= targetLen){return 1; }}	// return true –µ—Å–ª–∏ –≤—Å–
 175              		.loc 1 42 0
 176 002e 0120     		movs	r0, #1
 177              	.LVL16:
 178              	.L11:
  44:Data_and_Func.c **** 	//  if( !UART_GetRxBufferSize()){CyDelay(1); time--;}	// –ø—Ä–∏ –ø—Ä–æ–≤–µ—Ä–∫–µ —Å==0 - –≤—ã—á–∏—
  45:Data_and_Func.c **** 	} //while(time);
  46:Data_and_Func.c **** return 0;	// –±—É—Ñ–µ—Ä –¥–∞–Ω–Ω—ã—Ö –ø—É—Å—Ç
  47:Data_and_Func.c **** } 
 179              		.loc 1 47 0
ARM GAS  C:\Users\tdoan1\AppData\Local\Temp\ccL3nVE6.s 			page 5


 180              		@ sp needed
 181              	.LVL17:
 182              	.LVL18:
 183              	.LVL19:
 184 0030 70BD     		pop	{r4, r5, r6, pc}
 185              		.cfi_endproc
 186              	.LFE35:
 187              		.size	WaitText, .-WaitText
 188 0032 C046     		.section	.text.connectWiFi,"ax",%progbits
 189              		.align	2
 190              		.global	connectWiFi
 191              		.code	16
 192              		.thumb_func
 193              		.type	connectWiFi, %function
 194              	connectWiFi:
 195              	.LFB36:
  48:Data_and_Func.c **** 
  49:Data_and_Func.c **** //***********************************************************************
  50:Data_and_Func.c **** int connectWiFi(char *SSID, char *PASS)
  51:Data_and_Func.c **** {
 196              		.loc 1 51 0
 197              		.cfi_startproc
 198              		@ args = 0, pretend = 0, frame = 32
 199              		@ frame_needed = 0, uses_anonymous_args = 0
 200              	.LVL20:
 201 0000 30B5     		push	{r4, r5, lr}
 202              		.cfi_def_cfa_offset 12
 203              		.cfi_offset 4, -12
 204              		.cfi_offset 5, -8
 205              		.cfi_offset 14, -4
 206 0002 89B0     		sub	sp, sp, #36
 207              		.cfi_def_cfa_offset 48
 208 0004 0400     		movs	r4, r0
 209 0006 0D00     		movs	r5, r1
  52:Data_and_Func.c **** char sendString[32];
  53:Data_and_Func.c **** UART_ClearRxBuffer(); 
 210              		.loc 1 53 0
 211 0008 FFF7FEFF 		bl	UART_ClearRxBuffer
 212              	.LVL21:
  54:Data_and_Func.c **** sprintf(sendString,"AT+CWJAP=\"%s\",\"%s\"\r\n",SSID, PASS);	// —Ñ–æ—Ä–º–∏—Ä—É–µ–º —Å—Ç—Ä–æ–∫—É "AT
 213              		.loc 1 54 0
 214 000c 2B00     		movs	r3, r5
 215 000e 2200     		movs	r2, r4
 216 0010 1049     		ldr	r1, .L19
 217 0012 6846     		mov	r0, sp
 218 0014 FFF7FEFF 		bl	sprintf
 219              	.LVL22:
  55:Data_and_Func.c **** UART_PutString(sendString); 									// –æ—Ç–ø—Ä–∞–≤–ª—è–µ–º –µ–µ –≤ –º–æ–¥—É–ª—å
 220              		.loc 1 55 0
 221 0018 6846     		mov	r0, sp
 222 001a FFF7FEFF 		bl	UART_PutString
 223              	.LVL23:
  56:Data_and_Func.c **** if (!WaitText("OK", 100))return 0;	//0-–¥–ª—è  –ø—Ä–æ—à–∏–≤–∫–∏ 00160901	// –∫–æ–º–∞–Ω–¥–∞ –ø–æ–ª—É
 224              		.loc 1 56 0
 225 001e 6421     		movs	r1, #100
 226 0020 0D48     		ldr	r0, .L19+4
 227 0022 FFF7FEFF 		bl	WaitText
ARM GAS  C:\Users\tdoan1\AppData\Local\Temp\ccL3nVE6.s 			page 6


 228              	.LVL24:
 229 0026 0028     		cmp	r0, #0
 230 0028 0ED0     		beq	.L17
  57:Data_and_Func.c **** CyDelay(5000);		 // 	–¥–ª—è  –ø—Ä–æ—à–∏–≤–∫–∏ 00160901			   	   –¥–∞–µ–º –≤—Ä–µ–º—è –Ω–∞ –ø–æ–¥–∫–ª
 231              		.loc 1 57 0
 232 002a 0C48     		ldr	r0, .L19+8
 233 002c FFF7FEFF 		bl	CyDelay
 234              	.LVL25:
  58:Data_and_Func.c **** UART_PutString("AT+CIFSR\r\n"); 	//–¥–ª—è  –ø—Ä–æ—à–∏–≤–∫–∏ 00160901	// –ü–æ–ª—É—á–∏—Ç—å IP —á–µ—Ä–
 235              		.loc 1 58 0
 236 0030 0B48     		ldr	r0, .L19+12
 237 0032 FFF7FEFF 		bl	UART_PutString
 238              	.LVL26:
  59:Data_and_Func.c **** if(WaitText("ERROR", 500))return 0;	// –¥–ª—è  –ø—Ä–æ—à–∏–≤–∫–∏ 00160901	// –ø–æ–ø—ã—Ç–∫–∞ –Ω–µ —É–
 239              		.loc 1 59 0
 240 0036 FA21     		movs	r1, #250
 241 0038 4900     		lsls	r1, r1, #1
 242 003a 0A48     		ldr	r0, .L19+16
 243 003c FFF7FEFF 		bl	WaitText
 244              	.LVL27:
 245 0040 0028     		cmp	r0, #0
 246 0042 03D0     		beq	.L18
 247 0044 0020     		movs	r0, #0
 248 0046 02E0     		b	.L16
 249              	.L17:
  56:Data_and_Func.c **** CyDelay(5000);		 // 	–¥–ª—è  –ø—Ä–æ—à–∏–≤–∫–∏ 00160901			   	   –¥–∞–µ–º –≤—Ä–µ–º—è –Ω–∞ –ø–æ–¥–∫–ª
 250              		.loc 1 56 0
 251 0048 0020     		movs	r0, #0
 252 004a 00E0     		b	.L16
 253              	.L18:
  60:Data_and_Func.c **** return 1;  //1-–¥–ª—è  –ø—Ä–æ—à–∏–≤–∫–∏ 00160901														// –ø—Ä–∏–∑–Ω–∞–∫ —É—Å–ø–µ—à–Ω–æ–≥–æ 
 254              		.loc 1 60 0
 255 004c 0120     		movs	r0, #1
 256              	.L16:
  61:Data_and_Func.c **** }
 257              		.loc 1 61 0
 258 004e 09B0     		add	sp, sp, #36
 259              		@ sp needed
 260              	.LVL28:
 261              	.LVL29:
 262 0050 30BD     		pop	{r4, r5, pc}
 263              	.L20:
 264 0052 C046     		.align	2
 265              	.L19:
 266 0054 00000000 		.word	.LC2
 267 0058 18000000 		.word	.LC4
 268 005c 88130000 		.word	5000
 269 0060 1C000000 		.word	.LC6
 270 0064 28000000 		.word	.LC8
 271              		.cfi_endproc
 272              	.LFE36:
 273              		.size	connectWiFi, .-connectWiFi
 274              		.section	.text.SetServer,"ax",%progbits
 275              		.align	2
 276              		.global	SetServer
 277              		.code	16
 278              		.thumb_func
ARM GAS  C:\Users\tdoan1\AppData\Local\Temp\ccL3nVE6.s 			page 7


 279              		.type	SetServer, %function
 280              	SetServer:
 281              	.LFB37:
  62:Data_and_Func.c **** 
  63:Data_and_Func.c **** //***********************  —Å–æ–∑–¥–∞–Ω–∏–µ  —Å–µ—Ä–≤—Ä–∞  ****************************************
  64:Data_and_Func.c **** void SetServer(int port)
  65:Data_and_Func.c **** {
 282              		.loc 1 65 0
 283              		.cfi_startproc
 284              		@ args = 0, pretend = 0, frame = 32
 285              		@ frame_needed = 0, uses_anonymous_args = 0
 286              	.LVL30:
 287 0000 10B5     		push	{r4, lr}
 288              		.cfi_def_cfa_offset 8
 289              		.cfi_offset 4, -8
 290              		.cfi_offset 14, -4
 291 0002 88B0     		sub	sp, sp, #32
 292              		.cfi_def_cfa_offset 40
 293 0004 0400     		movs	r4, r0
  66:Data_and_Func.c **** char sendString[32];
  67:Data_and_Func.c **** UART_PutString("AT+CIPMUX=1\r\n"); 								// –ö–æ–ª–∏—á–µ—Å—Ç–≤–æ —Å–æ–µ–¥–∏–Ω–µ–Ω–∏–π  (1 ‚Äî –º—
 294              		.loc 1 67 0
 295 0006 0848     		ldr	r0, .L22
 296              	.LVL31:
 297 0008 FFF7FEFF 		bl	UART_PutString
 298              	.LVL32:
  68:Data_and_Func.c **** //Test_Write(WaitText("OK", 500));  Test_Write(0);				// –∂–¥–µ–º –æ—Ç–≤–µ—Ç–∞ –º–æ–¥—É–ª—è
  69:Data_and_Func.c **** sprintf(sendString,"AT+CIPSERVER=1,%d\r\n",port);				// —Ñ–æ—Ä–º–∏—Ä—É–µ–º —Å—Ç—Ä–æ–∫—É "AT+CWJAP="
 299              		.loc 1 69 0
 300 000c 2200     		movs	r2, r4
 301 000e 0749     		ldr	r1, .L22+4
 302 0010 6846     		mov	r0, sp
 303 0012 FFF7FEFF 		bl	sprintf
 304              	.LVL33:
  70:Data_and_Func.c **** UART_PutString(sendString); 									// –ü–æ–¥–Ω—è—Ç—å —Å–µ—Ä–≤–µ—Ä 0 ‚Äî —Å–∫—Ä—ã—Ç 1 ‚Äî –æ—Ç–∫—Ä
 305              		.loc 1 70 0
 306 0016 6846     		mov	r0, sp
 307 0018 FFF7FEFF 		bl	UART_PutString
 308              	.LVL34:
  71:Data_and_Func.c **** //Test_Write(WaitText("OK", 500));  Test_Write(0);
  72:Data_and_Func.c **** UART_PutString("AT+CIPSTO=20\r\n"); 							// —Å–∫–æ–ª—å–∫–æ —Å–µ–∫—É–Ω–¥ –∫–ª–∏–µ–Ω—Ç –º–æ–∂–µ—Ç –
 309              		.loc 1 72 0
 310 001c 0448     		ldr	r0, .L22+8
 311 001e FFF7FEFF 		bl	UART_PutString
 312              	.LVL35:
  73:Data_and_Func.c **** //Test_Write(WaitText("OK", 500));  Test_Write(0);
  74:Data_and_Func.c **** }
 313              		.loc 1 74 0
 314 0022 08B0     		add	sp, sp, #32
 315              		@ sp needed
 316              	.LVL36:
 317 0024 10BD     		pop	{r4, pc}
 318              	.L23:
 319 0026 C046     		.align	2
 320              	.L22:
 321 0028 30000000 		.word	.LC10
 322 002c 40000000 		.word	.LC12
ARM GAS  C:\Users\tdoan1\AppData\Local\Temp\ccL3nVE6.s 			page 8


 323 0030 54000000 		.word	.LC14
 324              		.cfi_endproc
 325              	.LFE37:
 326              		.size	SetServer, .-SetServer
 327              		.section	.text.http,"ax",%progbits
 328              		.align	2
 329              		.global	http
 330              		.code	16
 331              		.thumb_func
 332              		.type	http, %function
 333              	http:
 334              	.LFB38:
  75:Data_and_Func.c **** 
  76:Data_and_Func.c **** //***********************  –æ—Ç–ø—Ä–∞–≤–∫–∞  –æ—Ç–≤–µ—Ç–∞  ****************************************
  77:Data_and_Func.c **** void http(char *output) 		 
  78:Data_and_Func.c **** {
 335              		.loc 1 78 0
 336              		.cfi_startproc
 337              		@ args = 0, pretend = 0, frame = 32
 338              		@ frame_needed = 0, uses_anonymous_args = 0
 339              	.LVL37:
 340 0000 10B5     		push	{r4, lr}
 341              		.cfi_def_cfa_offset 8
 342              		.cfi_offset 4, -8
 343              		.cfi_offset 14, -4
 344 0002 88B0     		sub	sp, sp, #32
 345              		.cfi_def_cfa_offset 40
 346 0004 0400     		movs	r4, r0
 347              	.LVL38:
  79:Data_and_Func.c ****  char sendString[32];
  80:Data_and_Func.c ****  uint16 len=0;
  81:Data_and_Func.c ****  len=strlen(output)	;	
 348              		.loc 1 81 0
 349 0006 FFF7FEFF 		bl	strlen
 350              	.LVL39:
  82:Data_and_Func.c ****  sprintf(sendString,"AT+CIPSEND=0,%d\r\n",len);		//  
 351              		.loc 1 82 0
 352 000a 0204     		lsls	r2, r0, #16
 353 000c 120C     		lsrs	r2, r2, #16
 354 000e 0749     		ldr	r1, .L25
 355 0010 6846     		mov	r0, sp
 356              	.LVL40:
 357 0012 FFF7FEFF 		bl	sprintf
 358              	.LVL41:
  83:Data_and_Func.c ****  UART_PutString(sendString); CyDelay(10);			// –î–ª—è –ø—Ä–æ—Å—Ç–æ—Ç—ã: –≤–º–µ—Å—Ç–æ –æ–∂–∏–¥–∞–Ω–∏
 359              		.loc 1 83 0
 360 0016 6846     		mov	r0, sp
 361 0018 FFF7FEFF 		bl	UART_PutString
 362              	.LVL42:
 363 001c 0A20     		movs	r0, #10
 364 001e FFF7FEFF 		bl	CyDelay
 365              	.LVL43:
  84:Data_and_Func.c ****  UART_PutString(output);  
 366              		.loc 1 84 0
 367 0022 2000     		movs	r0, r4
 368 0024 FFF7FEFF 		bl	UART_PutString
 369              	.LVL44:
ARM GAS  C:\Users\tdoan1\AppData\Local\Temp\ccL3nVE6.s 			page 9


  85:Data_and_Func.c **** }
 370              		.loc 1 85 0
 371 0028 08B0     		add	sp, sp, #32
 372              		@ sp needed
 373              	.LVL45:
 374 002a 10BD     		pop	{r4, pc}
 375              	.L26:
 376              		.align	2
 377              	.L25:
 378 002c 64000000 		.word	.LC16
 379              		.cfi_endproc
 380              	.LFE38:
 381              		.size	http, .-http
 382              		.section	.text.webserver,"ax",%progbits
 383              		.align	2
 384              		.global	webserver
 385              		.code	16
 386              		.thumb_func
 387              		.type	webserver, %function
 388              	webserver:
 389              	.LFB39:
  86:Data_and_Func.c **** 
  87:Data_and_Func.c **** void webserver(void) {/****************************************************************************
 390              		.loc 1 87 0
 391              		.cfi_startproc
 392              		@ args = 0, pretend = 0, frame = 1000
 393              		@ frame_needed = 0, uses_anonymous_args = 0
 394 0000 10B5     		push	{r4, lr}
 395              		.cfi_def_cfa_offset 8
 396              		.cfi_offset 4, -8
 397              		.cfi_offset 14, -4
 398 0002 0C4C     		ldr	r4, .L28
 399 0004 A544     		add	sp, sp, r4
 400              		.cfi_def_cfa_offset 1008
  88:Data_and_Func.c ****  static uint16 test;		// —Å—á–µ—Ç—á–∏–∫ –∞–≤—Ç–æ–æ–±–Ω–æ–≤–ª–µ–Ω–∏–π —Å—Ç—Ä–∞–Ω–∏—á–∫–∏     // HTML
  89:Data_and_Func.c ****  char sendString[1000];	// –Ω–µ –º–µ–Ω–µ–µ –¥–ª–∏–Ω—ã —Å–æ–æ–±—â–µ–Ω–∏—è					// —Ç–∞–±–ª–∏—Ü–∞ –æ—Å
  90:Data_and_Func.c **** 																	// –û—Å–Ω–æ–≤—ã HTML             	http://html-exp.narod.ru/base.htm 
  91:Data_and_Func.c ****  sprintf(sendString,	// –°–æ–±–∏—Ä–∞–µ–º –æ—Ç–≤–µ—Ç –Ω–∞ –∑–∞–ø—Ä–æ—Å:				  
 401              		.loc 1 91 0
 402 0006 0C4C     		ldr	r4, .L28+4
 403 0008 6288     		ldrh	r2, [r4, #2]
 404 000a 0C49     		ldr	r1, .L28+8
 405 000c 6846     		mov	r0, sp
 406 000e FFF7FEFF 		bl	sprintf
 407              	.LVL46:
  92:Data_and_Func.c **** 	"HTTP/1.1 200 OK\r\nContent-Type: text/html; charset=UTF-8\r\n\r\n\r\n"	// —Å–æ–≥–ª–∞—Å–Ω–æ —Å—Ç–∞
  93:Data_and_Func.c ****  	"<html><body>"													// –∑–∞—Ç–µ–º –æ—Ç–∫—Ä—ã–≤–∞–µ–º –¥–æ–∫—É–º–µ–Ω—Ç,  –∏ –Ω–µ –∑–∞–±—ã—Ç
  94:Data_and_Func.c **** 	"<title>ESP8266 Webserver</title>"								// –∑–∞–≥–æ–ª–æ–≤–æ–∫ 
  95:Data_and_Func.c **** 	"<meta http-equiv='refresh' content='5' >" 						// To make the page reload or refresh itself (sec
  96:Data_and_Func.c **** 	"<body bgcolor=PaleGoldenRod>"									// –∑–∞–¥–∞–¥–∏–º —Ü–≤–µ—Ç —Ñ–æ–Ω–∞ –¥–æ–∫—É–º–µ–Ω—Ç–∞ –∏–º
  97:Data_and_Func.c **** 	"<H3>Micro Site Web Server</H3>"								// –∑–∞–≥–æ–ª–æ–≤–æ–∫
  98:Data_and_Func.c **** 	"<span style='color:#0000FF'>\r\n"								// –∑–∞–¥–∞–µ–º —Ü–≤–µ—Ç —Ç–µ–∫—Å—Ç–∞ –∫–æ–¥–æ–º	  	http
  99:Data_and_Func.c ****  	"<p>reloads = %d</p>\r\n"                                       // —Å—á–µ—Ç—á–∏–∫ –∞–≤—Ç–æ–æ–±–Ω–
 100:Data_and_Func.c **** 	"</body></html>" 	,test); 									// CLOSE PAGE  
 101:Data_and_Func.c **** 								// 
 102:Data_and_Func.c **** 	test++;															// 
 408              		.loc 1 102 0
ARM GAS  C:\Users\tdoan1\AppData\Local\Temp\ccL3nVE6.s 			page 10


 409 0012 6388     		ldrh	r3, [r4, #2]
 410 0014 0133     		adds	r3, r3, #1
 411 0016 6380     		strh	r3, [r4, #2]
 103:Data_and_Func.c **** http(sendString);													// —Å—Ç—Ä–∞–Ω–∏—Ü–∞ –≥–æ—Ç–æ–≤–∞, –æ—Ç–ø—Ä–∞–≤–ª—è–µ–º
 412              		.loc 1 103 0
 413 0018 6846     		mov	r0, sp
 414 001a FFF7FEFF 		bl	http
 415              	.LVL47:
 104:Data_and_Func.c **** CyDelay(1000);
 416              		.loc 1 104 0
 417 001e FA20     		movs	r0, #250
 418 0020 8000     		lsls	r0, r0, #2
 419 0022 FFF7FEFF 		bl	CyDelay
 420              	.LVL48:
 105:Data_and_Func.c **** UART_PutString("AT+CIPCLOSE=0\r\n");   	
 421              		.loc 1 105 0
 422 0026 0648     		ldr	r0, .L28+12
 423 0028 FFF7FEFF 		bl	UART_PutString
 424              	.LVL49:
 106:Data_and_Func.c **** }
 425              		.loc 1 106 0
 426 002c FA23     		movs	r3, #250
 427 002e 9B00     		lsls	r3, r3, #2
 428 0030 9D44     		add	sp, sp, r3
 429              		@ sp needed
 430 0032 10BD     		pop	{r4, pc}
 431              	.L29:
 432              		.align	2
 433              	.L28:
 434 0034 18FCFFFF 		.word	-1000
 435 0038 00000000 		.word	.LANCHOR0
 436 003c 78000000 		.word	.LC19
 437 0040 88010000 		.word	.LC21
 438              		.cfi_endproc
 439              	.LFE39:
 440              		.size	webserver, .-webserver
 441              		.section	.text.IP_to_USB,"ax",%progbits
 442              		.align	2
 443              		.global	IP_to_USB
 444              		.code	16
 445              		.thumb_func
 446              		.type	IP_to_USB, %function
 447              	IP_to_USB:
 448              	.LFB40:
 107:Data_and_Func.c **** 
 108:Data_and_Func.c **** 
 109:Data_and_Func.c **** /**************************************************************************************************
 110:Data_and_Func.c **** void IP_to_USB(void)
 111:Data_and_Func.c **** {
 449              		.loc 1 111 0
 450              		.cfi_startproc
 451              		@ args = 0, pretend = 0, frame = 24
 452              		@ frame_needed = 0, uses_anonymous_args = 0
 453 0000 10B5     		push	{r4, lr}
 454              		.cfi_def_cfa_offset 8
 455              		.cfi_offset 4, -8
 456              		.cfi_offset 14, -4
ARM GAS  C:\Users\tdoan1\AppData\Local\Temp\ccL3nVE6.s 			page 11


 457 0002 86B0     		sub	sp, sp, #24
 458              		.cfi_def_cfa_offset 32
 459              	.LVL50:
 112:Data_and_Func.c **** char8 ch;       					// Data received from the Serial port  
 113:Data_and_Func.c **** char buff[20];						// buffer of RX	
 114:Data_and_Func.c **** uint8 count = 0u;					//__________________
 115:Data_and_Func.c **** //UART_PutString("AT+CWLAP\r\n");
 116:Data_and_Func.c **** //UART_PutString("AT+CIFSR\r\n"); 	// –ü–æ–ª—É—á–∏—Ç—å IP –µ—â–µ —Ä–∞–∑ –¥–ª—è –æ—Ç–æ–±—Ä–∞–∂–µ–Ω–∏
 117:Data_and_Func.c **** CyDelay(2);							// –º–æ–¥—É–ª—é –Ω–∞ –æ—Ç–≤–µ—Ç –Ω—É–∂–Ω–æ –≤—Ä–µ–º—è	
 460              		.loc 1 117 0
 461 0004 0220     		movs	r0, #2
 462 0006 FFF7FEFF 		bl	CyDelay
 463              	.LVL51:
 118:Data_and_Func.c **** WaitText("AT+CIFSR\r\r\n", 500);	// —Ñ—Ä–∞–≥–º–µ–Ω—Ç –æ—Ç–≤–µ—Ç–∞ —Å IP –∞–¥—Ä–µ—Å–æ–º –æ—Å—Ç–∞–Ω–µ
 464              		.loc 1 118 0
 465 000a FA24     		movs	r4, #250
 466 000c 6400     		lsls	r4, r4, #1
 467 000e 2100     		movs	r1, r4
 468 0010 0B48     		ldr	r0, .L32
 469 0012 FFF7FEFF 		bl	WaitText
 470              	.LVL52:
 119:Data_and_Func.c **** WaitText("AT+CWLAP\r\r\n", 500);
 471              		.loc 1 119 0
 472 0016 2100     		movs	r1, r4
 473 0018 0A48     		ldr	r0, .L32+4
 474 001a FFF7FEFF 		bl	WaitText
 475              	.LVL53:
 114:Data_and_Func.c **** //UART_PutString("AT+CWLAP\r\n");
 476              		.loc 1 114 0
 477 001e 0024     		movs	r4, #0
 478              	.LVL54:
 479              	.L31:
 120:Data_and_Func.c **** do{ 	// –≤ –±—É—Ñ–µ—Ä–µ –æ—Å—Ç–∞–ª—Å—è IP –∞–¥—Ä–µ—Å
 121:Data_and_Func.c **** 	  	ch= UART_GetChar();				// –≤—ã—á–∏—Ç—ã–≤–∞–µ–º —Å–∏–º–≤–æ–ª
 480              		.loc 1 121 0 discriminator 1
 481 0020 FFF7FEFF 		bl	UART_GetChar
 482              	.LVL55:
 122:Data_and_Func.c **** 	  	buff[count]= ch;	count++;	// –¥–æ–±–∞–≤–ª—è–µ–º –≤ –±—É—Ñ–µ—Ä
 483              		.loc 1 122 0 discriminator 1
 484 0024 01AB     		add	r3, sp, #4
 485 0026 1855     		strb	r0, [r3, r4]
 486 0028 0134     		adds	r4, r4, #1
 487              	.LVL56:
 488 002a E4B2     		uxtb	r4, r4
 489              	.LVL57:
 123:Data_and_Func.c **** 	}while(ch); 
 490              		.loc 1 123 0 discriminator 1
 491 002c 0028     		cmp	r0, #0
 492 002e F7D1     		bne	.L31
 124:Data_and_Func.c **** USB_UART_UartPutString("IP:");
 493              		.loc 1 124 0
 494 0030 0548     		ldr	r0, .L32+8
 495              	.LVL58:
 496 0032 FFF7FEFF 		bl	USB_UART_UartPutString
 497              	.LVL59:
 125:Data_and_Func.c **** USB_UART_UartPutString(buff); ;	// –≤—ã–≤–µ–¥–µ–º IP –Ω–∞ –¥–∏—Å–ø–ª–µ–π
 498              		.loc 1 125 0
ARM GAS  C:\Users\tdoan1\AppData\Local\Temp\ccL3nVE6.s 			page 12


 499 0036 01A8     		add	r0, sp, #4
 500 0038 FFF7FEFF 		bl	USB_UART_UartPutString
 501              	.LVL60:
 126:Data_and_Func.c **** }
 502              		.loc 1 126 0
 503 003c 06B0     		add	sp, sp, #24
 504              		@ sp needed
 505              	.LVL61:
 506 003e 10BD     		pop	{r4, pc}
 507              	.L33:
 508              		.align	2
 509              	.L32:
 510 0040 98010000 		.word	.LC23
 511 0044 A4010000 		.word	.LC25
 512 0048 B0010000 		.word	.LC27
 513              		.cfi_endproc
 514              	.LFE40:
 515              		.size	IP_to_USB, .-IP_to_USB
 516              		.comm	ATanswer,80,4
 517              		.global	HaveAnswer
 518              		.section	.rodata.str1.4,"aMS",%progbits,1
 519              		.align	2
 520              	.LC2:
 521 0000 41542B43 		.ascii	"AT+CWJAP=\"%s\",\"%s\"\015\012\000"
 521      574A4150 
 521      3D222573 
 521      222C2225 
 521      73220D0A 
 522 0015 000000   		.space	3
 523              	.LC4:
 524 0018 4F4B00   		.ascii	"OK\000"
 525 001b 00       		.space	1
 526              	.LC6:
 527 001c 41542B43 		.ascii	"AT+CIFSR\015\012\000"
 527      49465352 
 527      0D0A00
 528 0027 00       		.space	1
 529              	.LC8:
 530 0028 4552524F 		.ascii	"ERROR\000"
 530      5200
 531 002e 0000     		.space	2
 532              	.LC10:
 533 0030 41542B43 		.ascii	"AT+CIPMUX=1\015\012\000"
 533      49504D55 
 533      583D310D 
 533      0A00
 534 003e 0000     		.space	2
 535              	.LC12:
 536 0040 41542B43 		.ascii	"AT+CIPSERVER=1,%d\015\012\000"
 536      49505345 
 536      52564552 
 536      3D312C25 
 536      640D0A00 
 537              	.LC14:
 538 0054 41542B43 		.ascii	"AT+CIPSTO=20\015\012\000"
 538      49505354 
 538      4F3D3230 
ARM GAS  C:\Users\tdoan1\AppData\Local\Temp\ccL3nVE6.s 			page 13


 538      0D0A00
 539 0063 00       		.space	1
 540              	.LC16:
 541 0064 41542B43 		.ascii	"AT+CIPSEND=0,%d\015\012\000"
 541      49505345 
 541      4E443D30 
 541      2C25640D 
 541      0A00
 542 0076 0000     		.space	2
 543              	.LC19:
 544 0078 48545450 		.ascii	"HTTP/1.1 200 OK\015\012Content-Type: text/html; cha"
 544      2F312E31 
 544      20323030 
 544      204F4B0D 
 544      0A436F6E 
 545 00a5 72736574 		.ascii	"rset=UTF-8\015\012\015\012\015\012<html><body><titl"
 545      3D555446 
 545      2D380D0A 
 545      0D0A0D0A 
 545      3C68746D 
 546 00c6 653E4553 		.ascii	"e>ESP8266 Webserver</title><meta http-equiv='refres"
 546      50383236 
 546      36205765 
 546      62736572 
 546      7665723C 
 547 00f9 68272063 		.ascii	"h' content='5' ><body bgcolor=PaleGoldenRod><H3>Mic"
 547      6F6E7465 
 547      6E743D27 
 547      3527203E 
 547      3C626F64 
 548 012c 726F2053 		.ascii	"ro Site Web Server</H3><span style='color:#0000FF'>"
 548      69746520 
 548      57656220 
 548      53657276 
 548      65723C2F 
 549 015f 0D0A3C70 		.ascii	"\015\012<p>reloads = %d</p>\015\012</body></html>\000"
 549      3E72656C 
 549      6F616473 
 549      203D2025 
 549      643C2F70 
 550 0185 000000   		.space	3
 551              	.LC21:
 552 0188 41542B43 		.ascii	"AT+CIPCLOSE=0\015\012\000"
 552      4950434C 
 552      4F53453D 
 552      300D0A00 
 553              	.LC23:
 554 0198 41542B43 		.ascii	"AT+CIFSR\015\015\012\000"
 554      49465352 
 554      0D0D0A00 
 555              	.LC25:
 556 01a4 41542B43 		.ascii	"AT+CWLAP\015\015\012\000"
 556      574C4150 
 556      0D0D0A00 
 557              	.LC27:
 558 01b0 49503A00 		.ascii	"IP:\000"
 559              		.bss
ARM GAS  C:\Users\tdoan1\AppData\Local\Temp\ccL3nVE6.s 			page 14


 560              		.align	1
 561              		.set	.LANCHOR0,. + 0
 562              		.type	Index.6234, %object
 563              		.size	Index.6234, 1
 564              	Index.6234:
 565 0000 00       		.space	1
 566              		.type	HaveAnswer, %object
 567              		.size	HaveAnswer, 1
 568              	HaveAnswer:
 569 0001 00       		.space	1
 570              		.type	test.6263, %object
 571              		.size	test.6263, 2
 572              	test.6263:
 573 0002 0000     		.space	2
 574              		.text
 575              	.Letext0:
 576              		.file 2 "Generated_Source\\PSoC4/cytypes.h"
 577              		.file 3 "Generated_Source\\PSoC4/RST.h"
 578              		.file 4 "Generated_Source\\PSoC4/CyLib.h"
 579              		.file 5 "Generated_Source\\PSoC4/UART.h"
 580              		.file 6 "c:\\program files (x86)\\cypress\\psoc creator\\4.2\\psoc creator\\import\\gnu\\arm\\5.4.
 581              		.file 7 "c:\\program files (x86)\\cypress\\psoc creator\\4.2\\psoc creator\\import\\gnu\\arm\\5.4.
 582              		.file 8 "Generated_Source\\PSoC4/USB_UART_SPI_UART.h"