ARM GAS  C:\Users\tdoan1\AppData\Local\Temp\ccGtvNis.s 			page 1


   1              		.syntax unified
   2              		.cpu cortex-m0
   3              		.fpu softvfp
   4              		.eabi_attribute 20, 1
   5              		.eabi_attribute 21, 1
   6              		.eabi_attribute 23, 3
   7              		.eabi_attribute 24, 1
   8              		.eabi_attribute 25, 1
   9              		.eabi_attribute 26, 1
  10              		.eabi_attribute 30, 1
  11              		.eabi_attribute 34, 0
  12              		.eabi_attribute 18, 4
  13              		.thumb
  14              		.syntax unified
  15              		.file	"main.c"
  16              		.text
  17              	.Ltext0:
  18              		.cfi_sections	.debug_frame
  19              		.section	.text.Reconnect,"ax",%progbits
  20              		.align	2
  21              		.global	Reconnect
  22              		.code	16
  23              		.thumb_func
  24              		.type	Reconnect, %function
  25              	Reconnect:
  26              	.LFB33:
  27              		.file 1 "main.c"
   1:main.c        **** /* ========================================
   2:main.c        ****  *
   3:main.c        ****  * Copyright YOUR COMPANY, THE YEAR
   4:main.c        ****  * All Rights Reserved
   5:main.c        ****  * UNPUBLISHED, LICENSED SOFTWARE.
   6:main.c        ****  *
   7:main.c        ****  * CONFIDENTIAL AND PROPRIETARY INFORMATION
   8:main.c        ****  * WHICH IS THE PROPERTY OF your company.
   9:main.c        ****  *
  10:main.c        ****  * ========================================
  11:main.c        **** */
  12:main.c        **** #include <device.h>
  13:main.c        **** #include <stdio.h>   				/* sprintf() */
  14:main.c        **** #include "Data_and_Func.h"
  15:main.c        **** int uart_test();
  16:main.c        **** #define SSID "TD" 				        // ваш SSID
  17:main.c        **** #define PASS "244466666" 			    // ваш пароль
  18:main.c        **** #define Wait(x)							//	Just for better readability
  19:main.c        **** 
  20:main.c        **** int i=0;
  21:main.c        **** 
  22:main.c        **** CY_ISR_PROTO(WIFI_Reconnect);
  23:main.c        **** CY_ISR(Reconnect)
  24:main.c        **** 	{ recon++; }
  28              		.loc 1 24 0
  29              		.cfi_startproc
  30              		@ args = 0, pretend = 0, frame = 0
  31              		@ frame_needed = 0, uses_anonymous_args = 0
  32              		@ link register save eliminated.
  33              		.loc 1 24 0
ARM GAS  C:\Users\tdoan1\AppData\Local\Temp\ccGtvNis.s 			page 2


  34 0000 024A     		ldr	r2, .L2
  35 0002 1378     		ldrb	r3, [r2]
  36 0004 0133     		adds	r3, r3, #1
  37 0006 1370     		strb	r3, [r2]
  38              		@ sp needed
  39 0008 7047     		bx	lr
  40              	.L3:
  41 000a C046     		.align	2
  42              	.L2:
  43 000c 00000000 		.word	recon
  44              		.cfi_endproc
  45              	.LFE33:
  46              		.size	Reconnect, .-Reconnect
  47              		.section	.text.InitializeSystem,"ax",%progbits
  48              		.align	2
  49              		.global	InitializeSystem
  50              		.code	16
  51              		.thumb_func
  52              		.type	InitializeSystem, %function
  53              	InitializeSystem:
  54              	.LFB34:
  25:main.c        **** void InitializeSystem(void)
  26:main.c        **** {
  55              		.loc 1 26 0
  56              		.cfi_startproc
  57              		@ args = 0, pretend = 0, frame = 0
  58              		@ frame_needed = 0, uses_anonymous_args = 0
  59 0000 10B5     		push	{r4, lr}
  60              		.cfi_def_cfa_offset 8
  61              		.cfi_offset 4, -8
  62              		.cfi_offset 14, -4
  27:main.c        **** 	CyGlobalIntEnable;
  63              		.loc 1 27 0
  64              		.syntax divided
  65              	@ 27 "main.c" 1
  66 0002 62B6     		CPSIE   i
  67              	@ 0 "" 2
  28:main.c        ****     UART_Start();
  68              		.loc 1 28 0
  69              		.thumb
  70              		.syntax unified
  71 0004 FFF7FEFF 		bl	UART_Start
  72              	.LVL0:
  29:main.c        ****     USB_UART_Start();	
  73              		.loc 1 29 0
  74 0008 FFF7FEFF 		bl	USB_UART_Start
  75              	.LVL1:
  30:main.c        **** 	Rx_Int_StartEx(GetChar);
  76              		.loc 1 30 0
  77 000c 0148     		ldr	r0, .L5
  78 000e FFF7FEFF 		bl	Rx_Int_StartEx
  79              	.LVL2:
  31:main.c        **** }
  80              		.loc 1 31 0
  81              		@ sp needed
  82 0012 10BD     		pop	{r4, pc}
  83              	.L6:
ARM GAS  C:\Users\tdoan1\AppData\Local\Temp\ccGtvNis.s 			page 3


  84              		.align	2
  85              	.L5:
  86 0014 00000000 		.word	GetChar
  87              		.cfi_endproc
  88              	.LFE34:
  89              		.size	InitializeSystem, .-InitializeSystem
  90              		.section	.text.main,"ax",%progbits
  91              		.align	2
  92              		.global	main
  93              		.code	16
  94              		.thumb_func
  95              		.type	main, %function
  96              	main:
  97              	.LFB35:
  32:main.c        **** 
  33:main.c        **** //-------------------------------------------------------------------------------------------------
  34:main.c        **** int main()
  35:main.c        **** { 
  98              		.loc 1 35 0
  99              		.cfi_startproc
 100              		@ Volatile: function does not return.
 101              		@ args = 0, pretend = 0, frame = 0
 102              		@ frame_needed = 0, uses_anonymous_args = 0
 103 0000 10B5     		push	{r4, lr}
 104              		.cfi_def_cfa_offset 8
 105              		.cfi_offset 4, -8
 106              		.cfi_offset 14, -4
  36:main.c        ****     //char Rxbyte[10]={0};
  37:main.c        ****     //char data[32];
  38:main.c        ****     InitializeSystem();
 107              		.loc 1 38 0
 108 0002 FFF7FEFF 		bl	InitializeSystem
 109              	.LVL3:
  39:main.c        ****         //   uart_test();
  40:main.c        **** 
  41:main.c        **** 
  42:main.c        ****     
  43:main.c        ****     //CyDelay(5000);
  44:main.c        ****     UART_PutString("AT+CWMODE=1\r\n");   
 110              		.loc 1 44 0
 111 0006 2548     		ldr	r0, .L15
 112 0008 FFF7FEFF 		bl	UART_PutString
 113              	.LVL4:
  45:main.c        **** 	UART_PutString("AT+CIFSR\r\n");   
 114              		.loc 1 45 0
 115 000c 2448     		ldr	r0, .L15+4
 116 000e FFF7FEFF 		bl	UART_PutString
 117              	.LVL5:
 118              	.L8:
  46:main.c        **** 	while(!HaveAnswer)	Wait();			//	Wait for answer from device
 119              		.loc 1 46 0 discriminator 1
 120 0012 244B     		ldr	r3, .L15+8
 121 0014 1B78     		ldrb	r3, [r3]
 122 0016 002B     		cmp	r3, #0
 123 0018 FBD0     		beq	.L8
  47:main.c        **** 	USB_UART_UartPutString("\n WELCOME\n\r");
 124              		.loc 1 47 0
ARM GAS  C:\Users\tdoan1\AppData\Local\Temp\ccGtvNis.s 			page 4


 125 001a 2348     		ldr	r0, .L15+12
 126 001c FFF7FEFF 		bl	USB_UART_UartPutString
 127              	.LVL6:
  48:main.c        **** 	USB_UART_UartPutString(ATanswer);
 128              		.loc 1 48 0
 129 0020 2248     		ldr	r0, .L15+16
 130 0022 FFF7FEFF 		bl	USB_UART_UartPutString
 131              	.LVL7:
  49:main.c        **** 	USB_UART_UartPutCRLF(' ');
 132              		.loc 1 49 0
 133 0026 2020     		movs	r0, #32
 134 0028 FFF7FEFF 		bl	USB_UART_UartPutCRLF
 135              	.LVL8:
  50:main.c        **** 	HaveAnswer = 0;		
 136              		.loc 1 50 0
 137 002c 0024     		movs	r4, #0
 138 002e 1D4B     		ldr	r3, .L15+8
 139 0030 1C70     		strb	r4, [r3]
  51:main.c        **** 	CyDelay(1000);
 140              		.loc 1 51 0
 141 0032 FA20     		movs	r0, #250
 142 0034 8000     		lsls	r0, r0, #2
 143 0036 FFF7FEFF 		bl	CyDelay
 144              	.LVL9:
  52:main.c        ****         
  53:main.c        **** 
  54:main.c        **** 
  55:main.c        **** // ****************try to connect to wifi ********************************************
  56:main.c        ****     for(i=0; i<3; i++)
 145              		.loc 1 56 0
 146 003a 1D4B     		ldr	r3, .L15+20
 147 003c 1C60     		str	r4, [r3]
 148 003e 10E0     		b	.L9
 149              	.L12:
  57:main.c        ****     {
  58:main.c        ****         USB_UART_UartPutString("Connecting...\n");
 150              		.loc 1 58 0
 151 0040 1C48     		ldr	r0, .L15+24
 152 0042 FFF7FEFF 		bl	USB_UART_UartPutString
 153              	.LVL10:
  59:main.c        ****         if(connectWiFi(SSID, PASS))
 154              		.loc 1 59 0
 155 0046 1C49     		ldr	r1, .L15+28
 156 0048 1C48     		ldr	r0, .L15+32
 157 004a FFF7FEFF 		bl	connectWiFi
 158              	.LVL11:
 159 004e 0028     		cmp	r0, #0
 160 0050 03D0     		beq	.L10
  60:main.c        ****         { 
  61:main.c        ****             USB_UART_UartPutString("Wi-Fi connected!\n");
 161              		.loc 1 61 0
 162 0052 1B48     		ldr	r0, .L15+36
 163 0054 FFF7FEFF 		bl	USB_UART_UartPutString
 164              	.LVL12:
  62:main.c        ****             break;
 165              		.loc 1 62 0
 166 0058 07E0     		b	.L11
ARM GAS  C:\Users\tdoan1\AppData\Local\Temp\ccGtvNis.s 			page 5


 167              	.L10:
  56:main.c        ****     {
 168              		.loc 1 56 0 discriminator 2
 169 005a 154A     		ldr	r2, .L15+20
 170 005c 1368     		ldr	r3, [r2]
 171 005e 0133     		adds	r3, r3, #1
 172 0060 1360     		str	r3, [r2]
 173              	.L9:
  56:main.c        ****     {
 174              		.loc 1 56 0 is_stmt 0 discriminator 1
 175 0062 134B     		ldr	r3, .L15+20
 176 0064 1B68     		ldr	r3, [r3]
 177 0066 022B     		cmp	r3, #2
 178 0068 EADD     		ble	.L12
 179              	.L11:
  63:main.c        ****         } 
  64:main.c        ****     }
  65:main.c        **** 
  66:main.c        ****     if (i==3) 
 180              		.loc 1 66 0 is_stmt 1
 181 006a 114B     		ldr	r3, .L15+20
 182 006c 1B68     		ldr	r3, [r3]
 183 006e 032B     		cmp	r3, #3
 184 0070 07D1     		bne	.L13
  67:main.c        ****     {
  68:main.c        ****         USB_UART_UartPutString("Wi-Fi not connected\n");
 185              		.loc 1 68 0
 186 0072 1448     		ldr	r0, .L15+40
 187 0074 FFF7FEFF 		bl	USB_UART_UartPutString
 188              	.LVL13:
  69:main.c        ****         CyDelay(3000); 
 189              		.loc 1 69 0
 190 0078 1348     		ldr	r0, .L15+44
 191 007a FFF7FEFF 		bl	CyDelay
 192              	.LVL14:
  70:main.c        ****         CySoftwareReset();
 193              		.loc 1 70 0
 194 007e FFF7FEFF 		bl	CySoftwareReset
 195              	.LVL15:
 196              	.L13:
  71:main.c        ****     }	// сброс чипа
  72:main.c        ****     //---------------------------------------------------------------------------------------------
  73:main.c        ****     IP_to_USB();
 197              		.loc 1 73 0
 198 0082 FFF7FEFF 		bl	IP_to_USB
 199              	.LVL16:
  74:main.c        ****     SetServer(8045);		// включаем сервер на порт  8046 ( или какой ва
 200              		.loc 1 74 0
 201 0086 1148     		ldr	r0, .L15+48
 202 0088 FFF7FEFF 		bl	SetServer
 203              	.LVL17:
  75:main.c        ****     CyDelay(500);
 204              		.loc 1 75 0
 205 008c FA20     		movs	r0, #250
 206 008e 4000     		lsls	r0, r0, #1
 207 0090 FFF7FEFF 		bl	CyDelay
 208              	.LVL18:
ARM GAS  C:\Users\tdoan1\AppData\Local\Temp\ccGtvNis.s 			page 6


  76:main.c        ****     UART_ClearRxBuffer();	// начнем жизнь с нового листа ))
 209              		.loc 1 76 0
 210 0094 FFF7FEFF 		bl	UART_ClearRxBuffer
 211              	.LVL19:
 212              	.L14:
 213 0098 FEE7     		b	.L14
 214              	.L16:
 215 009a C046     		.align	2
 216              	.L15:
 217 009c 00000000 		.word	.LC2
 218 00a0 10000000 		.word	.LC4
 219 00a4 00000000 		.word	HaveAnswer
 220 00a8 1C000000 		.word	.LC7
 221 00ac 00000000 		.word	ATanswer
 222 00b0 00000000 		.word	.LANCHOR0
 223 00b4 28000000 		.word	.LC11
 224 00b8 38000000 		.word	.LC13
 225 00bc 44000000 		.word	.LC15
 226 00c0 48000000 		.word	.LC17
 227 00c4 5C000000 		.word	.LC19
 228 00c8 B80B0000 		.word	3000
 229 00cc 6D1F0000 		.word	8045
 230              		.cfi_endproc
 231              	.LFE35:
 232              		.size	main, .-main
 233              		.global	i
 234              		.global	count_RX
 235              		.comm	ch,1,1
 236              		.comm	recon,1,1
 237              		.comm	Com_Data,1,1
 238              		.section	.rodata.str1.4,"aMS",%progbits,1
 239              		.align	2
 240              	.LC2:
 241 0000 41542B43 		.ascii	"AT+CWMODE=1\015\012\000"
 241      574D4F44 
 241      453D310D 
 241      0A00
 242 000e 0000     		.space	2
 243              	.LC4:
 244 0010 41542B43 		.ascii	"AT+CIFSR\015\012\000"
 244      49465352 
 244      0D0A00
 245 001b 00       		.space	1
 246              	.LC7:
 247 001c 0A205745 		.ascii	"\012 WELCOME\012\015\000"
 247      4C434F4D 
 247      450A0D00 
 248              	.LC11:
 249 0028 436F6E6E 		.ascii	"Connecting...\012\000"
 249      65637469 
 249      6E672E2E 
 249      2E0A00
 250 0037 00       		.space	1
 251              	.LC13:
 252 0038 32343434 		.ascii	"244466666\000"
 252      36363636 
 252      3600
ARM GAS  C:\Users\tdoan1\AppData\Local\Temp\ccGtvNis.s 			page 7


 253 0042 0000     		.space	2
 254              	.LC15:
 255 0044 544400   		.ascii	"TD\000"
 256 0047 00       		.space	1
 257              	.LC17:
 258 0048 57692D46 		.ascii	"Wi-Fi connected!\012\000"
 258      6920636F 
 258      6E6E6563 
 258      74656421 
 258      0A00
 259 005a 0000     		.space	2
 260              	.LC19:
 261 005c 57692D46 		.ascii	"Wi-Fi not connected\012\000"
 261      69206E6F 
 261      7420636F 
 261      6E6E6563 
 261      7465640A 
 262              		.bss
 263              		.align	2
 264              		.set	.LANCHOR0,. + 0
 265              		.type	i, %object
 266              		.size	i, 4
 267              	i:
 268 0000 00000000 		.space	4
 269              		.type	count_RX, %object
 270              		.size	count_RX, 1
 271              	count_RX:
 272 0004 00       		.space	1
 273              		.text
 274              	.Letext0:
 275              		.file 2 "Generated_Source\\PSoC4/cytypes.h"
 276              		.file 3 "Data_and_Func.h"
 277              		.file 4 "Generated_Source\\PSoC4/UART.h"
 278              		.file 5 "Generated_Source\\PSoC4/USB_UART.h"
 279              		.file 6 "Generated_Source\\PSoC4/Rx_Int.h"
 280              		.file 7 "Generated_Source\\PSoC4/USB_UART_SPI_UART.h"
 281              		.file 8 "Generated_Source\\PSoC4/CyLib.h"