ARM GAS  C:\Users\tdoan1\AppData\Local\Temp\ccP2L39x.s 			page 1


   1              		.syntax unified
   2              		.cpu cortex-m0
   3              		.fpu softvfp
   4              		.eabi_attribute 20, 1
   5              		.eabi_attribute 21, 1
   6              		.eabi_attribute 23, 3
   7              		.eabi_attribute 24, 1
   8              		.eabi_attribute 25, 1
   9              		.eabi_attribute 26, 1
  10              		.eabi_attribute 30, 1
  11              		.eabi_attribute 34, 0
  12              		.eabi_attribute 18, 4
  13              		.thumb
  14              		.syntax unified
  15              		.file	"UART.c"
  16              		.text
  17              	.Ltext0:
  18              		.cfi_sections	.debug_frame
  19              		.section	.text.UART_Init,"ax",%progbits
  20              		.align	2
  21              		.global	UART_Init
  22              		.code	16
  23              		.thumb_func
  24              		.type	UART_Init, %function
  25              	UART_Init:
  26              	.LFB1:
  27              		.file 1 "Generated_Source\\PSoC4\\UART.c"
   1:Generated_Source\PSoC4/UART.c **** /*******************************************************************************
   2:Generated_Source\PSoC4/UART.c **** * File Name: UART.c
   3:Generated_Source\PSoC4/UART.c **** * Version 2.50
   4:Generated_Source\PSoC4/UART.c **** *
   5:Generated_Source\PSoC4/UART.c **** * Description:
   6:Generated_Source\PSoC4/UART.c **** *  This file provides all API functionality of the UART component
   7:Generated_Source\PSoC4/UART.c **** *
   8:Generated_Source\PSoC4/UART.c **** * Note:
   9:Generated_Source\PSoC4/UART.c **** *
  10:Generated_Source\PSoC4/UART.c **** ********************************************************************************
  11:Generated_Source\PSoC4/UART.c **** * Copyright 2008-2015, Cypress Semiconductor Corporation.  All rights reserved.
  12:Generated_Source\PSoC4/UART.c **** * You may use this file only in accordance with the license, terms, conditions,
  13:Generated_Source\PSoC4/UART.c **** * disclaimers, and limitations in the end user license agreement accompanying
  14:Generated_Source\PSoC4/UART.c **** * the software package with which this file was provided.
  15:Generated_Source\PSoC4/UART.c **** *******************************************************************************/
  16:Generated_Source\PSoC4/UART.c **** 
  17:Generated_Source\PSoC4/UART.c **** #include "UART.h"
  18:Generated_Source\PSoC4/UART.c **** #if (UART_INTERNAL_CLOCK_USED)
  19:Generated_Source\PSoC4/UART.c ****     #include "UART_IntClock.h"
  20:Generated_Source\PSoC4/UART.c **** #endif /* End UART_INTERNAL_CLOCK_USED */
  21:Generated_Source\PSoC4/UART.c **** 
  22:Generated_Source\PSoC4/UART.c **** 
  23:Generated_Source\PSoC4/UART.c **** /***************************************
  24:Generated_Source\PSoC4/UART.c **** * Global data allocation
  25:Generated_Source\PSoC4/UART.c **** ***************************************/
  26:Generated_Source\PSoC4/UART.c **** 
  27:Generated_Source\PSoC4/UART.c **** uint8 UART_initVar = 0u;
  28:Generated_Source\PSoC4/UART.c **** 
  29:Generated_Source\PSoC4/UART.c **** #if (UART_TX_INTERRUPT_ENABLED && UART_TX_ENABLED)
  30:Generated_Source\PSoC4/UART.c ****     volatile uint8 UART_txBuffer[UART_TX_BUFFER_SIZE];
ARM GAS  C:\Users\tdoan1\AppData\Local\Temp\ccP2L39x.s 			page 2


  31:Generated_Source\PSoC4/UART.c ****     volatile uint8 UART_txBufferRead = 0u;
  32:Generated_Source\PSoC4/UART.c ****     uint8 UART_txBufferWrite = 0u;
  33:Generated_Source\PSoC4/UART.c **** #endif /* (UART_TX_INTERRUPT_ENABLED && UART_TX_ENABLED) */
  34:Generated_Source\PSoC4/UART.c **** 
  35:Generated_Source\PSoC4/UART.c **** #if (UART_RX_INTERRUPT_ENABLED && (UART_RX_ENABLED || UART_HD_ENABLED))
  36:Generated_Source\PSoC4/UART.c ****     uint8 UART_errorStatus = 0u;
  37:Generated_Source\PSoC4/UART.c ****     volatile uint8 UART_rxBuffer[UART_RX_BUFFER_SIZE];
  38:Generated_Source\PSoC4/UART.c ****     volatile uint8 UART_rxBufferRead  = 0u;
  39:Generated_Source\PSoC4/UART.c ****     volatile uint8 UART_rxBufferWrite = 0u;
  40:Generated_Source\PSoC4/UART.c ****     volatile uint8 UART_rxBufferLoopDetect = 0u;
  41:Generated_Source\PSoC4/UART.c ****     volatile uint8 UART_rxBufferOverflow   = 0u;
  42:Generated_Source\PSoC4/UART.c ****     #if (UART_RXHW_ADDRESS_ENABLED)
  43:Generated_Source\PSoC4/UART.c ****         volatile uint8 UART_rxAddressMode = UART_RX_ADDRESS_MODE;
  44:Generated_Source\PSoC4/UART.c ****         volatile uint8 UART_rxAddressDetected = 0u;
  45:Generated_Source\PSoC4/UART.c ****     #endif /* (UART_RXHW_ADDRESS_ENABLED) */
  46:Generated_Source\PSoC4/UART.c **** #endif /* (UART_RX_INTERRUPT_ENABLED && (UART_RX_ENABLED || UART_HD_ENABLED)) */
  47:Generated_Source\PSoC4/UART.c **** 
  48:Generated_Source\PSoC4/UART.c **** 
  49:Generated_Source\PSoC4/UART.c **** /*******************************************************************************
  50:Generated_Source\PSoC4/UART.c **** * Function Name: UART_Start
  51:Generated_Source\PSoC4/UART.c **** ********************************************************************************
  52:Generated_Source\PSoC4/UART.c **** *
  53:Generated_Source\PSoC4/UART.c **** * Summary:
  54:Generated_Source\PSoC4/UART.c **** *  This is the preferred method to begin component operation.
  55:Generated_Source\PSoC4/UART.c **** *  UART_Start() sets the initVar variable, calls the
  56:Generated_Source\PSoC4/UART.c **** *  UART_Init() function, and then calls the
  57:Generated_Source\PSoC4/UART.c **** *  UART_Enable() function.
  58:Generated_Source\PSoC4/UART.c **** *
  59:Generated_Source\PSoC4/UART.c **** * Parameters:
  60:Generated_Source\PSoC4/UART.c **** *  None.
  61:Generated_Source\PSoC4/UART.c **** *
  62:Generated_Source\PSoC4/UART.c **** * Return:
  63:Generated_Source\PSoC4/UART.c **** *  None.
  64:Generated_Source\PSoC4/UART.c **** *
  65:Generated_Source\PSoC4/UART.c **** * Global variables:
  66:Generated_Source\PSoC4/UART.c **** *  The UART_intiVar variable is used to indicate initial
  67:Generated_Source\PSoC4/UART.c **** *  configuration of this component. The variable is initialized to zero (0u)
  68:Generated_Source\PSoC4/UART.c **** *  and set to one (1u) the first time UART_Start() is called. This
  69:Generated_Source\PSoC4/UART.c **** *  allows for component initialization without re-initialization in all
  70:Generated_Source\PSoC4/UART.c **** *  subsequent calls to the UART_Start() routine.
  71:Generated_Source\PSoC4/UART.c **** *
  72:Generated_Source\PSoC4/UART.c **** * Reentrant:
  73:Generated_Source\PSoC4/UART.c **** *  No.
  74:Generated_Source\PSoC4/UART.c **** *
  75:Generated_Source\PSoC4/UART.c **** *******************************************************************************/
  76:Generated_Source\PSoC4/UART.c **** void UART_Start(void) 
  77:Generated_Source\PSoC4/UART.c **** {
  78:Generated_Source\PSoC4/UART.c ****     /* If not initialized then initialize all required hardware and software */
  79:Generated_Source\PSoC4/UART.c ****     if(UART_initVar == 0u)
  80:Generated_Source\PSoC4/UART.c ****     {
  81:Generated_Source\PSoC4/UART.c ****         UART_Init();
  82:Generated_Source\PSoC4/UART.c ****         UART_initVar = 1u;
  83:Generated_Source\PSoC4/UART.c ****     }
  84:Generated_Source\PSoC4/UART.c **** 
  85:Generated_Source\PSoC4/UART.c ****     UART_Enable();
  86:Generated_Source\PSoC4/UART.c **** }
  87:Generated_Source\PSoC4/UART.c **** 
ARM GAS  C:\Users\tdoan1\AppData\Local\Temp\ccP2L39x.s 			page 3


  88:Generated_Source\PSoC4/UART.c **** 
  89:Generated_Source\PSoC4/UART.c **** /*******************************************************************************
  90:Generated_Source\PSoC4/UART.c **** * Function Name: UART_Init
  91:Generated_Source\PSoC4/UART.c **** ********************************************************************************
  92:Generated_Source\PSoC4/UART.c **** *
  93:Generated_Source\PSoC4/UART.c **** * Summary:
  94:Generated_Source\PSoC4/UART.c **** *  Initializes or restores the component according to the customizer Configure
  95:Generated_Source\PSoC4/UART.c **** *  dialog settings. It is not necessary to call UART_Init() because
  96:Generated_Source\PSoC4/UART.c **** *  the UART_Start() API calls this function and is the preferred
  97:Generated_Source\PSoC4/UART.c **** *  method to begin component operation.
  98:Generated_Source\PSoC4/UART.c **** *
  99:Generated_Source\PSoC4/UART.c **** * Parameters:
 100:Generated_Source\PSoC4/UART.c **** *  None.
 101:Generated_Source\PSoC4/UART.c **** *
 102:Generated_Source\PSoC4/UART.c **** * Return:
 103:Generated_Source\PSoC4/UART.c **** *  None.
 104:Generated_Source\PSoC4/UART.c **** *
 105:Generated_Source\PSoC4/UART.c **** *******************************************************************************/
 106:Generated_Source\PSoC4/UART.c **** void UART_Init(void) 
 107:Generated_Source\PSoC4/UART.c **** {
  28              		.loc 1 107 0
  29              		.cfi_startproc
  30              		@ args = 0, pretend = 0, frame = 0
  31              		@ frame_needed = 0, uses_anonymous_args = 0
  32 0000 10B5     		push	{r4, lr}
  33              		.cfi_def_cfa_offset 8
  34              		.cfi_offset 4, -8
  35              		.cfi_offset 14, -4
 108:Generated_Source\PSoC4/UART.c ****     #if(UART_RX_ENABLED || UART_HD_ENABLED)
 109:Generated_Source\PSoC4/UART.c **** 
 110:Generated_Source\PSoC4/UART.c ****         #if (UART_RX_INTERRUPT_ENABLED)
 111:Generated_Source\PSoC4/UART.c ****             /* Set RX interrupt vector and priority */
 112:Generated_Source\PSoC4/UART.c ****             (void) CyIntSetVector(UART_RX_VECT_NUM, &UART_RXISR);
 113:Generated_Source\PSoC4/UART.c ****             CyIntSetPriority(UART_RX_VECT_NUM, UART_RX_PRIOR_NUM);
 114:Generated_Source\PSoC4/UART.c ****             UART_errorStatus = 0u;
 115:Generated_Source\PSoC4/UART.c ****         #endif /* (UART_RX_INTERRUPT_ENABLED) */
 116:Generated_Source\PSoC4/UART.c **** 
 117:Generated_Source\PSoC4/UART.c ****         #if (UART_RXHW_ADDRESS_ENABLED)
 118:Generated_Source\PSoC4/UART.c ****             UART_SetRxAddressMode(UART_RX_ADDRESS_MODE);
 119:Generated_Source\PSoC4/UART.c ****             UART_SetRxAddress1(UART_RX_HW_ADDRESS1);
 120:Generated_Source\PSoC4/UART.c ****             UART_SetRxAddress2(UART_RX_HW_ADDRESS2);
 121:Generated_Source\PSoC4/UART.c ****         #endif /* End UART_RXHW_ADDRESS_ENABLED */
 122:Generated_Source\PSoC4/UART.c **** 
 123:Generated_Source\PSoC4/UART.c ****         /* Init Count7 period */
 124:Generated_Source\PSoC4/UART.c ****         UART_RXBITCTR_PERIOD_REG = UART_RXBITCTR_INIT;
  36              		.loc 1 124 0
  37 0002 7622     		movs	r2, #118
  38 0004 0B4B     		ldr	r3, .L2
  39 0006 1A70     		strb	r2, [r3]
 125:Generated_Source\PSoC4/UART.c ****         /* Configure the Initial RX interrupt mask */
 126:Generated_Source\PSoC4/UART.c ****         UART_RXSTATUS_MASK_REG  = UART_INIT_RX_INTERRUPTS_MASK;
  40              		.loc 1 126 0
  41 0008 563A     		subs	r2, r2, #86
  42 000a 0B4B     		ldr	r3, .L2+4
  43 000c 1A70     		strb	r2, [r3]
 127:Generated_Source\PSoC4/UART.c ****     #endif /* End UART_RX_ENABLED || UART_HD_ENABLED*/
 128:Generated_Source\PSoC4/UART.c **** 
ARM GAS  C:\Users\tdoan1\AppData\Local\Temp\ccP2L39x.s 			page 4


 129:Generated_Source\PSoC4/UART.c ****     #if(UART_TX_ENABLED)
 130:Generated_Source\PSoC4/UART.c ****         #if (UART_TX_INTERRUPT_ENABLED)
 131:Generated_Source\PSoC4/UART.c ****             /* Set TX interrupt vector and priority */
 132:Generated_Source\PSoC4/UART.c ****             (void) CyIntSetVector(UART_TX_VECT_NUM, &UART_TXISR);
  44              		.loc 1 132 0
  45 000e 0B49     		ldr	r1, .L2+8
  46 0010 0220     		movs	r0, #2
  47 0012 FFF7FEFF 		bl	CyIntSetVector
  48              	.LVL0:
 133:Generated_Source\PSoC4/UART.c ****             CyIntSetPriority(UART_TX_VECT_NUM, UART_TX_PRIOR_NUM);
  49              		.loc 1 133 0
  50 0016 0321     		movs	r1, #3
  51 0018 0220     		movs	r0, #2
  52 001a FFF7FEFF 		bl	CyIntSetPriority
  53              	.LVL1:
 134:Generated_Source\PSoC4/UART.c ****         #endif /* (UART_TX_INTERRUPT_ENABLED) */
 135:Generated_Source\PSoC4/UART.c **** 
 136:Generated_Source\PSoC4/UART.c ****         /* Write Counter Value for TX Bit Clk Generator*/
 137:Generated_Source\PSoC4/UART.c ****         #if (UART_TXCLKGEN_DP)
 138:Generated_Source\PSoC4/UART.c ****             UART_TXBITCLKGEN_CTR_REG = UART_BIT_CENTER;
  54              		.loc 1 138 0
  55 001e 0E22     		movs	r2, #14
  56 0020 074B     		ldr	r3, .L2+12
  57 0022 1A70     		strb	r2, [r3]
 139:Generated_Source\PSoC4/UART.c ****             UART_TXBITCLKTX_COMPLETE_REG = ((UART_NUMBER_OF_DATA_BITS +
  58              		.loc 1 139 0
  59 0024 8132     		adds	r2, r2, #129
  60 0026 074B     		ldr	r3, .L2+16
  61 0028 1A70     		strb	r2, [r3]
 140:Generated_Source\PSoC4/UART.c ****                         UART_NUMBER_OF_START_BIT) * UART_OVER_SAMPLE_COUNT) - 1u;
 141:Generated_Source\PSoC4/UART.c ****         #else
 142:Generated_Source\PSoC4/UART.c ****             UART_TXBITCTR_PERIOD_REG = ((UART_NUMBER_OF_DATA_BITS +
 143:Generated_Source\PSoC4/UART.c ****                         UART_NUMBER_OF_START_BIT) * UART_OVER_SAMPLE_8) - 1u;
 144:Generated_Source\PSoC4/UART.c ****         #endif /* End UART_TXCLKGEN_DP */
 145:Generated_Source\PSoC4/UART.c **** 
 146:Generated_Source\PSoC4/UART.c ****         /* Configure the Initial TX interrupt mask */
 147:Generated_Source\PSoC4/UART.c ****         #if (UART_TX_INTERRUPT_ENABLED)
 148:Generated_Source\PSoC4/UART.c ****             UART_TXSTATUS_MASK_REG = UART_TX_STS_FIFO_EMPTY;
  62              		.loc 1 148 0
  63 002a 8D3A     		subs	r2, r2, #141
  64 002c 064B     		ldr	r3, .L2+20
  65 002e 1A70     		strb	r2, [r3]
 149:Generated_Source\PSoC4/UART.c ****         #else
 150:Generated_Source\PSoC4/UART.c ****             UART_TXSTATUS_MASK_REG = UART_INIT_TX_INTERRUPTS_MASK;
 151:Generated_Source\PSoC4/UART.c ****         #endif /*End UART_TX_INTERRUPT_ENABLED*/
 152:Generated_Source\PSoC4/UART.c **** 
 153:Generated_Source\PSoC4/UART.c ****     #endif /* End UART_TX_ENABLED */
 154:Generated_Source\PSoC4/UART.c **** 
 155:Generated_Source\PSoC4/UART.c ****     #if(UART_PARITY_TYPE_SW)  /* Write Parity to Control Register */
 156:Generated_Source\PSoC4/UART.c ****         UART_WriteControlRegister( \
 157:Generated_Source\PSoC4/UART.c ****             (UART_ReadControlRegister() & (uint8)~UART_CTRL_PARITY_TYPE_MASK) | \
 158:Generated_Source\PSoC4/UART.c ****             (uint8)(UART_PARITY_TYPE << UART_CTRL_PARITY_TYPE0_SHIFT) );
 159:Generated_Source\PSoC4/UART.c ****     #endif /* End UART_PARITY_TYPE_SW */
 160:Generated_Source\PSoC4/UART.c **** }
  66              		.loc 1 160 0
  67              		@ sp needed
  68 0030 10BD     		pop	{r4, pc}
ARM GAS  C:\Users\tdoan1\AppData\Local\Temp\ccP2L39x.s 			page 5


  69              	.L3:
  70 0032 C046     		.align	2
  71              	.L2:
  72 0034 82000F40 		.word	1074724994
  73 0038 80000F40 		.word	1074724992
  74 003c 00000000 		.word	UART_TXISR
  75 0040 22000F40 		.word	1074724898
  76 0044 32000F40 		.word	1074724914
  77 0048 83000F40 		.word	1074724995
  78              		.cfi_endproc
  79              	.LFE1:
  80              		.size	UART_Init, .-UART_Init
  81              		.section	.text.UART_Enable,"ax",%progbits
  82              		.align	2
  83              		.global	UART_Enable
  84              		.code	16
  85              		.thumb_func
  86              		.type	UART_Enable, %function
  87              	UART_Enable:
  88              	.LFB2:
 161:Generated_Source\PSoC4/UART.c **** 
 162:Generated_Source\PSoC4/UART.c **** 
 163:Generated_Source\PSoC4/UART.c **** /*******************************************************************************
 164:Generated_Source\PSoC4/UART.c **** * Function Name: UART_Enable
 165:Generated_Source\PSoC4/UART.c **** ********************************************************************************
 166:Generated_Source\PSoC4/UART.c **** *
 167:Generated_Source\PSoC4/UART.c **** * Summary:
 168:Generated_Source\PSoC4/UART.c **** *  Activates the hardware and begins component operation. It is not necessary
 169:Generated_Source\PSoC4/UART.c **** *  to call UART_Enable() because the UART_Start() API
 170:Generated_Source\PSoC4/UART.c **** *  calls this function, which is the preferred method to begin component
 171:Generated_Source\PSoC4/UART.c **** *  operation.
 172:Generated_Source\PSoC4/UART.c **** 
 173:Generated_Source\PSoC4/UART.c **** * Parameters:
 174:Generated_Source\PSoC4/UART.c **** *  None.
 175:Generated_Source\PSoC4/UART.c **** *
 176:Generated_Source\PSoC4/UART.c **** * Return:
 177:Generated_Source\PSoC4/UART.c **** *  None.
 178:Generated_Source\PSoC4/UART.c **** *
 179:Generated_Source\PSoC4/UART.c **** * Global Variables:
 180:Generated_Source\PSoC4/UART.c **** *  UART_rxAddressDetected - set to initial state (0).
 181:Generated_Source\PSoC4/UART.c **** *
 182:Generated_Source\PSoC4/UART.c **** *******************************************************************************/
 183:Generated_Source\PSoC4/UART.c **** void UART_Enable(void) 
 184:Generated_Source\PSoC4/UART.c **** {
  89              		.loc 1 184 0
  90              		.cfi_startproc
  91              		@ args = 0, pretend = 0, frame = 0
  92              		@ frame_needed = 0, uses_anonymous_args = 0
  93 0000 10B5     		push	{r4, lr}
  94              		.cfi_def_cfa_offset 8
  95              		.cfi_offset 4, -8
  96              		.cfi_offset 14, -4
 185:Generated_Source\PSoC4/UART.c ****     uint8 enableInterrupts;
 186:Generated_Source\PSoC4/UART.c ****     enableInterrupts = CyEnterCriticalSection();
  97              		.loc 1 186 0
  98 0002 FFF7FEFF 		bl	CyEnterCriticalSection
  99              	.LVL2:
ARM GAS  C:\Users\tdoan1\AppData\Local\Temp\ccP2L39x.s 			page 6


 100 0006 0400     		movs	r4, r0
 101              	.LVL3:
 187:Generated_Source\PSoC4/UART.c **** 
 188:Generated_Source\PSoC4/UART.c ****     #if (UART_RX_ENABLED || UART_HD_ENABLED)
 189:Generated_Source\PSoC4/UART.c ****         /* RX Counter (Count7) Enable */
 190:Generated_Source\PSoC4/UART.c ****         UART_RXBITCTR_CONTROL_REG |= UART_CNTR_ENABLE;
 102              		.loc 1 190 0
 103 0008 0E4A     		ldr	r2, .L5
 104 000a 1178     		ldrb	r1, [r2]
 105 000c 2023     		movs	r3, #32
 106 000e 0B43     		orrs	r3, r1
 107 0010 DBB2     		uxtb	r3, r3
 108 0012 1370     		strb	r3, [r2]
 191:Generated_Source\PSoC4/UART.c **** 
 192:Generated_Source\PSoC4/UART.c ****         /* Enable the RX Interrupt */
 193:Generated_Source\PSoC4/UART.c ****         UART_RXSTATUS_ACTL_REG  |= UART_INT_ENABLE;
 109              		.loc 1 193 0
 110 0014 0C49     		ldr	r1, .L5+4
 111 0016 0A78     		ldrb	r2, [r1]
 112 0018 1023     		movs	r3, #16
 113 001a 1A43     		orrs	r2, r3
 114 001c D2B2     		uxtb	r2, r2
 115 001e 0A70     		strb	r2, [r1]
 194:Generated_Source\PSoC4/UART.c **** 
 195:Generated_Source\PSoC4/UART.c ****         #if (UART_RX_INTERRUPT_ENABLED)
 196:Generated_Source\PSoC4/UART.c ****             UART_EnableRxInt();
 197:Generated_Source\PSoC4/UART.c **** 
 198:Generated_Source\PSoC4/UART.c ****             #if (UART_RXHW_ADDRESS_ENABLED)
 199:Generated_Source\PSoC4/UART.c ****                 UART_rxAddressDetected = 0u;
 200:Generated_Source\PSoC4/UART.c ****             #endif /* (UART_RXHW_ADDRESS_ENABLED) */
 201:Generated_Source\PSoC4/UART.c ****         #endif /* (UART_RX_INTERRUPT_ENABLED) */
 202:Generated_Source\PSoC4/UART.c ****     #endif /* (UART_RX_ENABLED || UART_HD_ENABLED) */
 203:Generated_Source\PSoC4/UART.c **** 
 204:Generated_Source\PSoC4/UART.c ****     #if(UART_TX_ENABLED)
 205:Generated_Source\PSoC4/UART.c ****         /* TX Counter (DP/Count7) Enable */
 206:Generated_Source\PSoC4/UART.c ****         #if(!UART_TXCLKGEN_DP)
 207:Generated_Source\PSoC4/UART.c ****             UART_TXBITCTR_CONTROL_REG |= UART_CNTR_ENABLE;
 208:Generated_Source\PSoC4/UART.c ****         #endif /* End UART_TXCLKGEN_DP */
 209:Generated_Source\PSoC4/UART.c **** 
 210:Generated_Source\PSoC4/UART.c ****         /* Enable the TX Interrupt */
 211:Generated_Source\PSoC4/UART.c ****         UART_TXSTATUS_ACTL_REG |= UART_INT_ENABLE;
 116              		.loc 1 211 0
 117 0020 0A4A     		ldr	r2, .L5+8
 118 0022 1178     		ldrb	r1, [r2]
 119 0024 0B43     		orrs	r3, r1
 120 0026 DBB2     		uxtb	r3, r3
 121 0028 1370     		strb	r3, [r2]
 212:Generated_Source\PSoC4/UART.c ****         #if (UART_TX_INTERRUPT_ENABLED)
 213:Generated_Source\PSoC4/UART.c ****             UART_ClearPendingTxInt(); /* Clear history of TX_NOT_EMPTY */
 122              		.loc 1 213 0
 123 002a 0220     		movs	r0, #2
 124 002c FFF7FEFF 		bl	CyIntClearPending
 125              	.LVL4:
 214:Generated_Source\PSoC4/UART.c ****             UART_EnableTxInt();
 126              		.loc 1 214 0
 127 0030 0220     		movs	r0, #2
 128 0032 FFF7FEFF 		bl	CyIntEnable
ARM GAS  C:\Users\tdoan1\AppData\Local\Temp\ccP2L39x.s 			page 7


 129              	.LVL5:
 215:Generated_Source\PSoC4/UART.c ****         #endif /* (UART_TX_INTERRUPT_ENABLED) */
 216:Generated_Source\PSoC4/UART.c ****      #endif /* (UART_TX_INTERRUPT_ENABLED) */
 217:Generated_Source\PSoC4/UART.c **** 
 218:Generated_Source\PSoC4/UART.c ****     #if (UART_INTERNAL_CLOCK_USED)
 219:Generated_Source\PSoC4/UART.c ****         UART_IntClock_Start();  /* Enable the clock */
 130              		.loc 1 219 0
 131 0036 FFF7FEFF 		bl	UART_IntClock_Start
 132              	.LVL6:
 220:Generated_Source\PSoC4/UART.c ****     #endif /* (UART_INTERNAL_CLOCK_USED) */
 221:Generated_Source\PSoC4/UART.c **** 
 222:Generated_Source\PSoC4/UART.c ****     CyExitCriticalSection(enableInterrupts);
 133              		.loc 1 222 0
 134 003a 2000     		movs	r0, r4
 135 003c FFF7FEFF 		bl	CyExitCriticalSection
 136              	.LVL7:
 223:Generated_Source\PSoC4/UART.c **** }
 137              		.loc 1 223 0
 138              		@ sp needed
 139              	.LVL8:
 140 0040 10BD     		pop	{r4, pc}
 141              	.L6:
 142 0042 C046     		.align	2
 143              	.L5:
 144 0044 92000F40 		.word	1074725010
 145 0048 90000F40 		.word	1074725008
 146 004c 93000F40 		.word	1074725011
 147              		.cfi_endproc
 148              	.LFE2:
 149              		.size	UART_Enable, .-UART_Enable
 150              		.section	.text.UART_Start,"ax",%progbits
 151              		.align	2
 152              		.global	UART_Start
 153              		.code	16
 154              		.thumb_func
 155              		.type	UART_Start, %function
 156              	UART_Start:
 157              	.LFB0:
  77:Generated_Source\PSoC4/UART.c ****     /* If not initialized then initialize all required hardware and software */
 158              		.loc 1 77 0
 159              		.cfi_startproc
 160              		@ args = 0, pretend = 0, frame = 0
 161              		@ frame_needed = 0, uses_anonymous_args = 0
 162 0000 10B5     		push	{r4, lr}
 163              		.cfi_def_cfa_offset 8
 164              		.cfi_offset 4, -8
 165              		.cfi_offset 14, -4
  79:Generated_Source\PSoC4/UART.c ****     {
 166              		.loc 1 79 0
 167 0002 064B     		ldr	r3, .L9
 168 0004 1B78     		ldrb	r3, [r3]
 169 0006 002B     		cmp	r3, #0
 170 0008 04D1     		bne	.L8
  81:Generated_Source\PSoC4/UART.c ****         UART_initVar = 1u;
 171              		.loc 1 81 0
 172 000a FFF7FEFF 		bl	UART_Init
 173              	.LVL9:
ARM GAS  C:\Users\tdoan1\AppData\Local\Temp\ccP2L39x.s 			page 8


  82:Generated_Source\PSoC4/UART.c ****     }
 174              		.loc 1 82 0
 175 000e 0122     		movs	r2, #1
 176 0010 024B     		ldr	r3, .L9
 177 0012 1A70     		strb	r2, [r3]
 178              	.L8:
  85:Generated_Source\PSoC4/UART.c **** }
 179              		.loc 1 85 0
 180 0014 FFF7FEFF 		bl	UART_Enable
 181              	.LVL10:
  86:Generated_Source\PSoC4/UART.c **** 
 182              		.loc 1 86 0
 183              		@ sp needed
 184 0018 10BD     		pop	{r4, pc}
 185              	.L10:
 186 001a C046     		.align	2
 187              	.L9:
 188 001c 00000000 		.word	.LANCHOR0
 189              		.cfi_endproc
 190              	.LFE0:
 191              		.size	UART_Start, .-UART_Start
 192              		.section	.text.UART_Stop,"ax",%progbits
 193              		.align	2
 194              		.global	UART_Stop
 195              		.code	16
 196              		.thumb_func
 197              		.type	UART_Stop, %function
 198              	UART_Stop:
 199              	.LFB3:
 224:Generated_Source\PSoC4/UART.c **** 
 225:Generated_Source\PSoC4/UART.c **** 
 226:Generated_Source\PSoC4/UART.c **** /*******************************************************************************
 227:Generated_Source\PSoC4/UART.c **** * Function Name: UART_Stop
 228:Generated_Source\PSoC4/UART.c **** ********************************************************************************
 229:Generated_Source\PSoC4/UART.c **** *
 230:Generated_Source\PSoC4/UART.c **** * Summary:
 231:Generated_Source\PSoC4/UART.c **** *  Disables the UART operation.
 232:Generated_Source\PSoC4/UART.c **** *
 233:Generated_Source\PSoC4/UART.c **** * Parameters:
 234:Generated_Source\PSoC4/UART.c **** *  None.
 235:Generated_Source\PSoC4/UART.c **** *
 236:Generated_Source\PSoC4/UART.c **** * Return:
 237:Generated_Source\PSoC4/UART.c **** *  None.
 238:Generated_Source\PSoC4/UART.c **** *
 239:Generated_Source\PSoC4/UART.c **** *******************************************************************************/
 240:Generated_Source\PSoC4/UART.c **** void UART_Stop(void) 
 241:Generated_Source\PSoC4/UART.c **** {
 200              		.loc 1 241 0
 201              		.cfi_startproc
 202              		@ args = 0, pretend = 0, frame = 0
 203              		@ frame_needed = 0, uses_anonymous_args = 0
 204 0000 10B5     		push	{r4, lr}
 205              		.cfi_def_cfa_offset 8
 206              		.cfi_offset 4, -8
 207              		.cfi_offset 14, -4
 242:Generated_Source\PSoC4/UART.c ****     uint8 enableInterrupts;
 243:Generated_Source\PSoC4/UART.c ****     enableInterrupts = CyEnterCriticalSection();
ARM GAS  C:\Users\tdoan1\AppData\Local\Temp\ccP2L39x.s 			page 9


 208              		.loc 1 243 0
 209 0002 FFF7FEFF 		bl	CyEnterCriticalSection
 210              	.LVL11:
 211 0006 0400     		movs	r4, r0
 212              	.LVL12:
 244:Generated_Source\PSoC4/UART.c **** 
 245:Generated_Source\PSoC4/UART.c ****     /* Write Bit Counter Disable */
 246:Generated_Source\PSoC4/UART.c ****     #if (UART_RX_ENABLED || UART_HD_ENABLED)
 247:Generated_Source\PSoC4/UART.c ****         UART_RXBITCTR_CONTROL_REG &= (uint8) ~UART_CNTR_ENABLE;
 213              		.loc 1 247 0
 214 0008 0B4A     		ldr	r2, .L12
 215 000a 1378     		ldrb	r3, [r2]
 216 000c 2021     		movs	r1, #32
 217 000e 8B43     		bics	r3, r1
 218 0010 1370     		strb	r3, [r2]
 248:Generated_Source\PSoC4/UART.c ****     #endif /* (UART_RX_ENABLED || UART_HD_ENABLED) */
 249:Generated_Source\PSoC4/UART.c **** 
 250:Generated_Source\PSoC4/UART.c ****     #if (UART_TX_ENABLED)
 251:Generated_Source\PSoC4/UART.c ****         #if(!UART_TXCLKGEN_DP)
 252:Generated_Source\PSoC4/UART.c ****             UART_TXBITCTR_CONTROL_REG &= (uint8) ~UART_CNTR_ENABLE;
 253:Generated_Source\PSoC4/UART.c ****         #endif /* (!UART_TXCLKGEN_DP) */
 254:Generated_Source\PSoC4/UART.c ****     #endif /* (UART_TX_ENABLED) */
 255:Generated_Source\PSoC4/UART.c **** 
 256:Generated_Source\PSoC4/UART.c ****     #if (UART_INTERNAL_CLOCK_USED)
 257:Generated_Source\PSoC4/UART.c ****         UART_IntClock_Stop();   /* Disable the clock */
 219              		.loc 1 257 0
 220 0012 FFF7FEFF 		bl	UART_IntClock_Stop
 221              	.LVL13:
 258:Generated_Source\PSoC4/UART.c ****     #endif /* (UART_INTERNAL_CLOCK_USED) */
 259:Generated_Source\PSoC4/UART.c **** 
 260:Generated_Source\PSoC4/UART.c ****     /* Disable internal interrupt component */
 261:Generated_Source\PSoC4/UART.c ****     #if (UART_RX_ENABLED || UART_HD_ENABLED)
 262:Generated_Source\PSoC4/UART.c ****         UART_RXSTATUS_ACTL_REG  &= (uint8) ~UART_INT_ENABLE;
 222              		.loc 1 262 0
 223 0016 094A     		ldr	r2, .L12+4
 224 0018 1378     		ldrb	r3, [r2]
 225 001a 1021     		movs	r1, #16
 226 001c 8B43     		bics	r3, r1
 227 001e 1370     		strb	r3, [r2]
 263:Generated_Source\PSoC4/UART.c **** 
 264:Generated_Source\PSoC4/UART.c ****         #if (UART_RX_INTERRUPT_ENABLED)
 265:Generated_Source\PSoC4/UART.c ****             UART_DisableRxInt();
 266:Generated_Source\PSoC4/UART.c ****         #endif /* (UART_RX_INTERRUPT_ENABLED) */
 267:Generated_Source\PSoC4/UART.c ****     #endif /* (UART_RX_ENABLED || UART_HD_ENABLED) */
 268:Generated_Source\PSoC4/UART.c **** 
 269:Generated_Source\PSoC4/UART.c ****     #if (UART_TX_ENABLED)
 270:Generated_Source\PSoC4/UART.c ****         UART_TXSTATUS_ACTL_REG &= (uint8) ~UART_INT_ENABLE;
 228              		.loc 1 270 0
 229 0020 074A     		ldr	r2, .L12+8
 230 0022 1378     		ldrb	r3, [r2]
 231 0024 8B43     		bics	r3, r1
 232 0026 1370     		strb	r3, [r2]
 271:Generated_Source\PSoC4/UART.c **** 
 272:Generated_Source\PSoC4/UART.c ****         #if (UART_TX_INTERRUPT_ENABLED)
 273:Generated_Source\PSoC4/UART.c ****             UART_DisableTxInt();
 233              		.loc 1 273 0
 234 0028 0220     		movs	r0, #2
ARM GAS  C:\Users\tdoan1\AppData\Local\Temp\ccP2L39x.s 			page 10


 235 002a FFF7FEFF 		bl	CyIntDisable
 236              	.LVL14:
 274:Generated_Source\PSoC4/UART.c ****         #endif /* (UART_TX_INTERRUPT_ENABLED) */
 275:Generated_Source\PSoC4/UART.c ****     #endif /* (UART_TX_ENABLED) */
 276:Generated_Source\PSoC4/UART.c **** 
 277:Generated_Source\PSoC4/UART.c ****     CyExitCriticalSection(enableInterrupts);
 237              		.loc 1 277 0
 238 002e 2000     		movs	r0, r4
 239 0030 FFF7FEFF 		bl	CyExitCriticalSection
 240              	.LVL15:
 278:Generated_Source\PSoC4/UART.c **** }
 241              		.loc 1 278 0
 242              		@ sp needed
 243              	.LVL16:
 244 0034 10BD     		pop	{r4, pc}
 245              	.L13:
 246 0036 C046     		.align	2
 247              	.L12:
 248 0038 92000F40 		.word	1074725010
 249 003c 90000F40 		.word	1074725008
 250 0040 93000F40 		.word	1074725011
 251              		.cfi_endproc
 252              	.LFE3:
 253              		.size	UART_Stop, .-UART_Stop
 254              		.section	.text.UART_ReadControlRegister,"ax",%progbits
 255              		.align	2
 256              		.global	UART_ReadControlRegister
 257              		.code	16
 258              		.thumb_func
 259              		.type	UART_ReadControlRegister, %function
 260              	UART_ReadControlRegister:
 261              	.LFB4:
 279:Generated_Source\PSoC4/UART.c **** 
 280:Generated_Source\PSoC4/UART.c **** 
 281:Generated_Source\PSoC4/UART.c **** /*******************************************************************************
 282:Generated_Source\PSoC4/UART.c **** * Function Name: UART_ReadControlRegister
 283:Generated_Source\PSoC4/UART.c **** ********************************************************************************
 284:Generated_Source\PSoC4/UART.c **** *
 285:Generated_Source\PSoC4/UART.c **** * Summary:
 286:Generated_Source\PSoC4/UART.c **** *  Returns the current value of the control register.
 287:Generated_Source\PSoC4/UART.c **** *
 288:Generated_Source\PSoC4/UART.c **** * Parameters:
 289:Generated_Source\PSoC4/UART.c **** *  None.
 290:Generated_Source\PSoC4/UART.c **** *
 291:Generated_Source\PSoC4/UART.c **** * Return:
 292:Generated_Source\PSoC4/UART.c **** *  Contents of the control register.
 293:Generated_Source\PSoC4/UART.c **** *
 294:Generated_Source\PSoC4/UART.c **** *******************************************************************************/
 295:Generated_Source\PSoC4/UART.c **** uint8 UART_ReadControlRegister(void) 
 296:Generated_Source\PSoC4/UART.c **** {
 262              		.loc 1 296 0
 263              		.cfi_startproc
 264              		@ args = 0, pretend = 0, frame = 0
 265              		@ frame_needed = 0, uses_anonymous_args = 0
 266              		@ link register save eliminated.
 297:Generated_Source\PSoC4/UART.c ****     #if (UART_CONTROL_REG_REMOVED)
 298:Generated_Source\PSoC4/UART.c ****         return(0u);
ARM GAS  C:\Users\tdoan1\AppData\Local\Temp\ccP2L39x.s 			page 11


 299:Generated_Source\PSoC4/UART.c ****     #else
 300:Generated_Source\PSoC4/UART.c ****         return(UART_CONTROL_REG);
 301:Generated_Source\PSoC4/UART.c ****     #endif /* (UART_CONTROL_REG_REMOVED) */
 302:Generated_Source\PSoC4/UART.c **** }
 267              		.loc 1 302 0
 268 0000 0020     		movs	r0, #0
 269              		@ sp needed
 270 0002 7047     		bx	lr
 271              		.cfi_endproc
 272              	.LFE4:
 273              		.size	UART_ReadControlRegister, .-UART_ReadControlRegister
 274              		.section	.text.UART_WriteControlRegister,"ax",%progbits
 275              		.align	2
 276              		.global	UART_WriteControlRegister
 277              		.code	16
 278              		.thumb_func
 279              		.type	UART_WriteControlRegister, %function
 280              	UART_WriteControlRegister:
 281              	.LFB5:
 303:Generated_Source\PSoC4/UART.c **** 
 304:Generated_Source\PSoC4/UART.c **** 
 305:Generated_Source\PSoC4/UART.c **** /*******************************************************************************
 306:Generated_Source\PSoC4/UART.c **** * Function Name: UART_WriteControlRegister
 307:Generated_Source\PSoC4/UART.c **** ********************************************************************************
 308:Generated_Source\PSoC4/UART.c **** *
 309:Generated_Source\PSoC4/UART.c **** * Summary:
 310:Generated_Source\PSoC4/UART.c **** *  Writes an 8-bit value into the control register
 311:Generated_Source\PSoC4/UART.c **** *
 312:Generated_Source\PSoC4/UART.c **** * Parameters:
 313:Generated_Source\PSoC4/UART.c **** *  control:  control register value
 314:Generated_Source\PSoC4/UART.c **** *
 315:Generated_Source\PSoC4/UART.c **** * Return:
 316:Generated_Source\PSoC4/UART.c **** *  None.
 317:Generated_Source\PSoC4/UART.c **** *
 318:Generated_Source\PSoC4/UART.c **** *******************************************************************************/
 319:Generated_Source\PSoC4/UART.c **** void  UART_WriteControlRegister(uint8 control) 
 320:Generated_Source\PSoC4/UART.c **** {
 282              		.loc 1 320 0
 283              		.cfi_startproc
 284              		@ args = 0, pretend = 0, frame = 0
 285              		@ frame_needed = 0, uses_anonymous_args = 0
 286              		@ link register save eliminated.
 287              	.LVL17:
 321:Generated_Source\PSoC4/UART.c ****     #if (UART_CONTROL_REG_REMOVED)
 322:Generated_Source\PSoC4/UART.c ****         if(0u != control)
 323:Generated_Source\PSoC4/UART.c ****         {
 324:Generated_Source\PSoC4/UART.c ****             /* Suppress compiler warning */
 325:Generated_Source\PSoC4/UART.c ****         }
 326:Generated_Source\PSoC4/UART.c ****     #else
 327:Generated_Source\PSoC4/UART.c ****        UART_CONTROL_REG = control;
 328:Generated_Source\PSoC4/UART.c ****     #endif /* (UART_CONTROL_REG_REMOVED) */
 329:Generated_Source\PSoC4/UART.c **** }
 288              		.loc 1 329 0
 289              		@ sp needed
 290 0000 7047     		bx	lr
 291              		.cfi_endproc
 292              	.LFE5:
ARM GAS  C:\Users\tdoan1\AppData\Local\Temp\ccP2L39x.s 			page 12


 293              		.size	UART_WriteControlRegister, .-UART_WriteControlRegister
 294 0002 C046     		.section	.text.UART_SetRxInterruptMode,"ax",%progbits
 295              		.align	2
 296              		.global	UART_SetRxInterruptMode
 297              		.code	16
 298              		.thumb_func
 299              		.type	UART_SetRxInterruptMode, %function
 300              	UART_SetRxInterruptMode:
 301              	.LFB6:
 330:Generated_Source\PSoC4/UART.c **** 
 331:Generated_Source\PSoC4/UART.c **** 
 332:Generated_Source\PSoC4/UART.c **** #if(UART_RX_ENABLED || UART_HD_ENABLED)
 333:Generated_Source\PSoC4/UART.c ****     /*******************************************************************************
 334:Generated_Source\PSoC4/UART.c ****     * Function Name: UART_SetRxInterruptMode
 335:Generated_Source\PSoC4/UART.c ****     ********************************************************************************
 336:Generated_Source\PSoC4/UART.c ****     *
 337:Generated_Source\PSoC4/UART.c ****     * Summary:
 338:Generated_Source\PSoC4/UART.c ****     *  Configures the RX interrupt sources enabled.
 339:Generated_Source\PSoC4/UART.c ****     *
 340:Generated_Source\PSoC4/UART.c ****     * Parameters:
 341:Generated_Source\PSoC4/UART.c ****     *  IntSrc:  Bit field containing the RX interrupts to enable. Based on the 
 342:Generated_Source\PSoC4/UART.c ****     *  bit-field arrangement of the status register. This value must be a 
 343:Generated_Source\PSoC4/UART.c ****     *  combination of status register bit-masks shown below:
 344:Generated_Source\PSoC4/UART.c ****     *      UART_RX_STS_FIFO_NOTEMPTY    Interrupt on byte received.
 345:Generated_Source\PSoC4/UART.c ****     *      UART_RX_STS_PAR_ERROR        Interrupt on parity error.
 346:Generated_Source\PSoC4/UART.c ****     *      UART_RX_STS_STOP_ERROR       Interrupt on stop error.
 347:Generated_Source\PSoC4/UART.c ****     *      UART_RX_STS_BREAK            Interrupt on break.
 348:Generated_Source\PSoC4/UART.c ****     *      UART_RX_STS_OVERRUN          Interrupt on overrun error.
 349:Generated_Source\PSoC4/UART.c ****     *      UART_RX_STS_ADDR_MATCH       Interrupt on address match.
 350:Generated_Source\PSoC4/UART.c ****     *      UART_RX_STS_MRKSPC           Interrupt on address detect.
 351:Generated_Source\PSoC4/UART.c ****     *
 352:Generated_Source\PSoC4/UART.c ****     * Return:
 353:Generated_Source\PSoC4/UART.c ****     *  None.
 354:Generated_Source\PSoC4/UART.c ****     *
 355:Generated_Source\PSoC4/UART.c ****     * Theory:
 356:Generated_Source\PSoC4/UART.c ****     *  Enables the output of specific status bits to the interrupt controller
 357:Generated_Source\PSoC4/UART.c ****     *
 358:Generated_Source\PSoC4/UART.c ****     *******************************************************************************/
 359:Generated_Source\PSoC4/UART.c ****     void UART_SetRxInterruptMode(uint8 intSrc) 
 360:Generated_Source\PSoC4/UART.c ****     {
 302              		.loc 1 360 0
 303              		.cfi_startproc
 304              		@ args = 0, pretend = 0, frame = 0
 305              		@ frame_needed = 0, uses_anonymous_args = 0
 306              		@ link register save eliminated.
 307              	.LVL18:
 361:Generated_Source\PSoC4/UART.c ****         UART_RXSTATUS_MASK_REG  = intSrc;
 308              		.loc 1 361 0
 309 0000 014B     		ldr	r3, .L17
 310 0002 1870     		strb	r0, [r3]
 362:Generated_Source\PSoC4/UART.c ****     }
 311              		.loc 1 362 0
 312              		@ sp needed
 313 0004 7047     		bx	lr
 314              	.L18:
 315 0006 C046     		.align	2
 316              	.L17:
ARM GAS  C:\Users\tdoan1\AppData\Local\Temp\ccP2L39x.s 			page 13


 317 0008 80000F40 		.word	1074724992
 318              		.cfi_endproc
 319              	.LFE6:
 320              		.size	UART_SetRxInterruptMode, .-UART_SetRxInterruptMode
 321              		.section	.text.UART_ReadRxData,"ax",%progbits
 322              		.align	2
 323              		.global	UART_ReadRxData
 324              		.code	16
 325              		.thumb_func
 326              		.type	UART_ReadRxData, %function
 327              	UART_ReadRxData:
 328              	.LFB7:
 363:Generated_Source\PSoC4/UART.c **** 
 364:Generated_Source\PSoC4/UART.c **** 
 365:Generated_Source\PSoC4/UART.c ****     /*******************************************************************************
 366:Generated_Source\PSoC4/UART.c ****     * Function Name: UART_ReadRxData
 367:Generated_Source\PSoC4/UART.c ****     ********************************************************************************
 368:Generated_Source\PSoC4/UART.c ****     *
 369:Generated_Source\PSoC4/UART.c ****     * Summary:
 370:Generated_Source\PSoC4/UART.c ****     *  Returns the next byte of received data. This function returns data without
 371:Generated_Source\PSoC4/UART.c ****     *  checking the status. You must check the status separately.
 372:Generated_Source\PSoC4/UART.c ****     *
 373:Generated_Source\PSoC4/UART.c ****     * Parameters:
 374:Generated_Source\PSoC4/UART.c ****     *  None.
 375:Generated_Source\PSoC4/UART.c ****     *
 376:Generated_Source\PSoC4/UART.c ****     * Return:
 377:Generated_Source\PSoC4/UART.c ****     *  Received data from RX register
 378:Generated_Source\PSoC4/UART.c ****     *
 379:Generated_Source\PSoC4/UART.c ****     * Global Variables:
 380:Generated_Source\PSoC4/UART.c ****     *  UART_rxBuffer - RAM buffer pointer for save received data.
 381:Generated_Source\PSoC4/UART.c ****     *  UART_rxBufferWrite - cyclic index for write to rxBuffer,
 382:Generated_Source\PSoC4/UART.c ****     *     checked to identify new data.
 383:Generated_Source\PSoC4/UART.c ****     *  UART_rxBufferRead - cyclic index for read from rxBuffer,
 384:Generated_Source\PSoC4/UART.c ****     *     incremented after each byte has been read from buffer.
 385:Generated_Source\PSoC4/UART.c ****     *  UART_rxBufferLoopDetect - cleared if loop condition was detected
 386:Generated_Source\PSoC4/UART.c ****     *     in RX ISR.
 387:Generated_Source\PSoC4/UART.c ****     *
 388:Generated_Source\PSoC4/UART.c ****     * Reentrant:
 389:Generated_Source\PSoC4/UART.c ****     *  No.
 390:Generated_Source\PSoC4/UART.c ****     *
 391:Generated_Source\PSoC4/UART.c ****     *******************************************************************************/
 392:Generated_Source\PSoC4/UART.c ****     uint8 UART_ReadRxData(void) 
 393:Generated_Source\PSoC4/UART.c ****     {
 329              		.loc 1 393 0
 330              		.cfi_startproc
 331              		@ args = 0, pretend = 0, frame = 0
 332              		@ frame_needed = 0, uses_anonymous_args = 0
 333              		@ link register save eliminated.
 394:Generated_Source\PSoC4/UART.c ****         uint8 rxData;
 395:Generated_Source\PSoC4/UART.c **** 
 396:Generated_Source\PSoC4/UART.c ****     #if (UART_RX_INTERRUPT_ENABLED)
 397:Generated_Source\PSoC4/UART.c **** 
 398:Generated_Source\PSoC4/UART.c ****         uint8 locRxBufferRead;
 399:Generated_Source\PSoC4/UART.c ****         uint8 locRxBufferWrite;
 400:Generated_Source\PSoC4/UART.c **** 
 401:Generated_Source\PSoC4/UART.c ****         /* Protect variables that could change on interrupt */
 402:Generated_Source\PSoC4/UART.c ****         UART_DisableRxInt();
ARM GAS  C:\Users\tdoan1\AppData\Local\Temp\ccP2L39x.s 			page 14


 403:Generated_Source\PSoC4/UART.c **** 
 404:Generated_Source\PSoC4/UART.c ****         locRxBufferRead  = UART_rxBufferRead;
 405:Generated_Source\PSoC4/UART.c ****         locRxBufferWrite = UART_rxBufferWrite;
 406:Generated_Source\PSoC4/UART.c **** 
 407:Generated_Source\PSoC4/UART.c ****         if( (UART_rxBufferLoopDetect != 0u) || (locRxBufferRead != locRxBufferWrite) )
 408:Generated_Source\PSoC4/UART.c ****         {
 409:Generated_Source\PSoC4/UART.c ****             rxData = UART_rxBuffer[locRxBufferRead];
 410:Generated_Source\PSoC4/UART.c ****             locRxBufferRead++;
 411:Generated_Source\PSoC4/UART.c **** 
 412:Generated_Source\PSoC4/UART.c ****             if(locRxBufferRead >= UART_RX_BUFFER_SIZE)
 413:Generated_Source\PSoC4/UART.c ****             {
 414:Generated_Source\PSoC4/UART.c ****                 locRxBufferRead = 0u;
 415:Generated_Source\PSoC4/UART.c ****             }
 416:Generated_Source\PSoC4/UART.c ****             /* Update the real pointer */
 417:Generated_Source\PSoC4/UART.c ****             UART_rxBufferRead = locRxBufferRead;
 418:Generated_Source\PSoC4/UART.c **** 
 419:Generated_Source\PSoC4/UART.c ****             if(UART_rxBufferLoopDetect != 0u)
 420:Generated_Source\PSoC4/UART.c ****             {
 421:Generated_Source\PSoC4/UART.c ****                 UART_rxBufferLoopDetect = 0u;
 422:Generated_Source\PSoC4/UART.c ****                 #if ((UART_RX_INTERRUPT_ENABLED) && (UART_FLOW_CONTROL != 0u))
 423:Generated_Source\PSoC4/UART.c ****                     /* When Hardware Flow Control selected - return RX mask */
 424:Generated_Source\PSoC4/UART.c ****                     #if( UART_HD_ENABLED )
 425:Generated_Source\PSoC4/UART.c ****                         if((UART_CONTROL_REG & UART_CTRL_HD_SEND) == 0u)
 426:Generated_Source\PSoC4/UART.c ****                         {   /* In Half duplex mode return RX mask only in RX
 427:Generated_Source\PSoC4/UART.c ****                             *  configuration set, otherwise
 428:Generated_Source\PSoC4/UART.c ****                             *  mask will be returned in LoadRxConfig() API.
 429:Generated_Source\PSoC4/UART.c ****                             */
 430:Generated_Source\PSoC4/UART.c ****                             UART_RXSTATUS_MASK_REG  |= UART_RX_STS_FIFO_NOTEMPTY;
 431:Generated_Source\PSoC4/UART.c ****                         }
 432:Generated_Source\PSoC4/UART.c ****                     #else
 433:Generated_Source\PSoC4/UART.c ****                         UART_RXSTATUS_MASK_REG  |= UART_RX_STS_FIFO_NOTEMPTY;
 434:Generated_Source\PSoC4/UART.c ****                     #endif /* end UART_HD_ENABLED */
 435:Generated_Source\PSoC4/UART.c ****                 #endif /* ((UART_RX_INTERRUPT_ENABLED) && (UART_FLOW_CONTROL != 0u)) */
 436:Generated_Source\PSoC4/UART.c ****             }
 437:Generated_Source\PSoC4/UART.c ****         }
 438:Generated_Source\PSoC4/UART.c ****         else
 439:Generated_Source\PSoC4/UART.c ****         {   /* Needs to check status for RX_STS_FIFO_NOTEMPTY bit */
 440:Generated_Source\PSoC4/UART.c ****             rxData = UART_RXDATA_REG;
 441:Generated_Source\PSoC4/UART.c ****         }
 442:Generated_Source\PSoC4/UART.c **** 
 443:Generated_Source\PSoC4/UART.c ****         UART_EnableRxInt();
 444:Generated_Source\PSoC4/UART.c **** 
 445:Generated_Source\PSoC4/UART.c ****     #else
 446:Generated_Source\PSoC4/UART.c **** 
 447:Generated_Source\PSoC4/UART.c ****         /* Needs to check status for RX_STS_FIFO_NOTEMPTY bit */
 448:Generated_Source\PSoC4/UART.c ****         rxData = UART_RXDATA_REG;
 334              		.loc 1 448 0
 335 0000 014B     		ldr	r3, .L20
 336 0002 1878     		ldrb	r0, [r3]
 337 0004 C0B2     		uxtb	r0, r0
 338              	.LVL19:
 449:Generated_Source\PSoC4/UART.c **** 
 450:Generated_Source\PSoC4/UART.c ****     #endif /* (UART_RX_INTERRUPT_ENABLED) */
 451:Generated_Source\PSoC4/UART.c **** 
 452:Generated_Source\PSoC4/UART.c ****         return(rxData);
 453:Generated_Source\PSoC4/UART.c ****     }
 339              		.loc 1 453 0
ARM GAS  C:\Users\tdoan1\AppData\Local\Temp\ccP2L39x.s 			page 15


 340              		@ sp needed
 341 0006 7047     		bx	lr
 342              	.L21:
 343              		.align	2
 344              	.L20:
 345 0008 40000F40 		.word	1074724928
 346              		.cfi_endproc
 347              	.LFE7:
 348              		.size	UART_ReadRxData, .-UART_ReadRxData
 349              		.section	.text.UART_ReadRxStatus,"ax",%progbits
 350              		.align	2
 351              		.global	UART_ReadRxStatus
 352              		.code	16
 353              		.thumb_func
 354              		.type	UART_ReadRxStatus, %function
 355              	UART_ReadRxStatus:
 356              	.LFB8:
 454:Generated_Source\PSoC4/UART.c **** 
 455:Generated_Source\PSoC4/UART.c **** 
 456:Generated_Source\PSoC4/UART.c ****     /*******************************************************************************
 457:Generated_Source\PSoC4/UART.c ****     * Function Name: UART_ReadRxStatus
 458:Generated_Source\PSoC4/UART.c ****     ********************************************************************************
 459:Generated_Source\PSoC4/UART.c ****     *
 460:Generated_Source\PSoC4/UART.c ****     * Summary:
 461:Generated_Source\PSoC4/UART.c ****     *  Returns the current state of the receiver status register and the software
 462:Generated_Source\PSoC4/UART.c ****     *  buffer overflow status.
 463:Generated_Source\PSoC4/UART.c ****     *
 464:Generated_Source\PSoC4/UART.c ****     * Parameters:
 465:Generated_Source\PSoC4/UART.c ****     *  None.
 466:Generated_Source\PSoC4/UART.c ****     *
 467:Generated_Source\PSoC4/UART.c ****     * Return:
 468:Generated_Source\PSoC4/UART.c ****     *  Current state of the status register.
 469:Generated_Source\PSoC4/UART.c ****     *
 470:Generated_Source\PSoC4/UART.c ****     * Side Effect:
 471:Generated_Source\PSoC4/UART.c ****     *  All status register bits are clear-on-read except
 472:Generated_Source\PSoC4/UART.c ****     *  UART_RX_STS_FIFO_NOTEMPTY.
 473:Generated_Source\PSoC4/UART.c ****     *  UART_RX_STS_FIFO_NOTEMPTY clears immediately after RX data
 474:Generated_Source\PSoC4/UART.c ****     *  register read.
 475:Generated_Source\PSoC4/UART.c ****     *
 476:Generated_Source\PSoC4/UART.c ****     * Global Variables:
 477:Generated_Source\PSoC4/UART.c ****     *  UART_rxBufferOverflow - used to indicate overload condition.
 478:Generated_Source\PSoC4/UART.c ****     *   It set to one in RX interrupt when there isn't free space in
 479:Generated_Source\PSoC4/UART.c ****     *   UART_rxBufferRead to write new data. This condition returned
 480:Generated_Source\PSoC4/UART.c ****     *   and cleared to zero by this API as an
 481:Generated_Source\PSoC4/UART.c ****     *   UART_RX_STS_SOFT_BUFF_OVER bit along with RX Status register
 482:Generated_Source\PSoC4/UART.c ****     *   bits.
 483:Generated_Source\PSoC4/UART.c ****     *
 484:Generated_Source\PSoC4/UART.c ****     *******************************************************************************/
 485:Generated_Source\PSoC4/UART.c ****     uint8 UART_ReadRxStatus(void) 
 486:Generated_Source\PSoC4/UART.c ****     {
 357              		.loc 1 486 0
 358              		.cfi_startproc
 359              		@ args = 0, pretend = 0, frame = 0
 360              		@ frame_needed = 0, uses_anonymous_args = 0
 361              		@ link register save eliminated.
 487:Generated_Source\PSoC4/UART.c ****         uint8 status;
 488:Generated_Source\PSoC4/UART.c **** 
ARM GAS  C:\Users\tdoan1\AppData\Local\Temp\ccP2L39x.s 			page 16


 489:Generated_Source\PSoC4/UART.c ****         status = UART_RXSTATUS_REG & UART_RX_HW_MASK;
 362              		.loc 1 489 0
 363 0000 024B     		ldr	r3, .L23
 364 0002 1878     		ldrb	r0, [r3]
 365 0004 7F23     		movs	r3, #127
 366 0006 1840     		ands	r0, r3
 367              	.LVL20:
 490:Generated_Source\PSoC4/UART.c **** 
 491:Generated_Source\PSoC4/UART.c ****     #if (UART_RX_INTERRUPT_ENABLED)
 492:Generated_Source\PSoC4/UART.c ****         if(UART_rxBufferOverflow != 0u)
 493:Generated_Source\PSoC4/UART.c ****         {
 494:Generated_Source\PSoC4/UART.c ****             status |= UART_RX_STS_SOFT_BUFF_OVER;
 495:Generated_Source\PSoC4/UART.c ****             UART_rxBufferOverflow = 0u;
 496:Generated_Source\PSoC4/UART.c ****         }
 497:Generated_Source\PSoC4/UART.c ****     #endif /* (UART_RX_INTERRUPT_ENABLED) */
 498:Generated_Source\PSoC4/UART.c **** 
 499:Generated_Source\PSoC4/UART.c ****         return(status);
 500:Generated_Source\PSoC4/UART.c ****     }
 368              		.loc 1 500 0
 369              		@ sp needed
 370 0008 7047     		bx	lr
 371              	.L24:
 372 000a C046     		.align	2
 373              	.L23:
 374 000c 60000F40 		.word	1074724960
 375              		.cfi_endproc
 376              	.LFE8:
 377              		.size	UART_ReadRxStatus, .-UART_ReadRxStatus
 378              		.section	.text.UART_GetChar,"ax",%progbits
 379              		.align	2
 380              		.global	UART_GetChar
 381              		.code	16
 382              		.thumb_func
 383              		.type	UART_GetChar, %function
 384              	UART_GetChar:
 385              	.LFB9:
 501:Generated_Source\PSoC4/UART.c **** 
 502:Generated_Source\PSoC4/UART.c **** 
 503:Generated_Source\PSoC4/UART.c ****     /*******************************************************************************
 504:Generated_Source\PSoC4/UART.c ****     * Function Name: UART_GetChar
 505:Generated_Source\PSoC4/UART.c ****     ********************************************************************************
 506:Generated_Source\PSoC4/UART.c ****     *
 507:Generated_Source\PSoC4/UART.c ****     * Summary:
 508:Generated_Source\PSoC4/UART.c ****     *  Returns the last received byte of data. UART_GetChar() is
 509:Generated_Source\PSoC4/UART.c ****     *  designed for ASCII characters and returns a uint8 where 1 to 255 are values
 510:Generated_Source\PSoC4/UART.c ****     *  for valid characters and 0 indicates an error occurred or no data is present.
 511:Generated_Source\PSoC4/UART.c ****     *
 512:Generated_Source\PSoC4/UART.c ****     * Parameters:
 513:Generated_Source\PSoC4/UART.c ****     *  None.
 514:Generated_Source\PSoC4/UART.c ****     *
 515:Generated_Source\PSoC4/UART.c ****     * Return:
 516:Generated_Source\PSoC4/UART.c ****     *  Character read from UART RX buffer. ASCII characters from 1 to 255 are valid.
 517:Generated_Source\PSoC4/UART.c ****     *  A returned zero signifies an error condition or no data available.
 518:Generated_Source\PSoC4/UART.c ****     *
 519:Generated_Source\PSoC4/UART.c ****     * Global Variables:
 520:Generated_Source\PSoC4/UART.c ****     *  UART_rxBuffer - RAM buffer pointer for save received data.
 521:Generated_Source\PSoC4/UART.c ****     *  UART_rxBufferWrite - cyclic index for write to rxBuffer,
ARM GAS  C:\Users\tdoan1\AppData\Local\Temp\ccP2L39x.s 			page 17


 522:Generated_Source\PSoC4/UART.c ****     *     checked to identify new data.
 523:Generated_Source\PSoC4/UART.c ****     *  UART_rxBufferRead - cyclic index for read from rxBuffer,
 524:Generated_Source\PSoC4/UART.c ****     *     incremented after each byte has been read from buffer.
 525:Generated_Source\PSoC4/UART.c ****     *  UART_rxBufferLoopDetect - cleared if loop condition was detected
 526:Generated_Source\PSoC4/UART.c ****     *     in RX ISR.
 527:Generated_Source\PSoC4/UART.c ****     *
 528:Generated_Source\PSoC4/UART.c ****     * Reentrant:
 529:Generated_Source\PSoC4/UART.c ****     *  No.
 530:Generated_Source\PSoC4/UART.c ****     *
 531:Generated_Source\PSoC4/UART.c ****     *******************************************************************************/
 532:Generated_Source\PSoC4/UART.c ****     uint8 UART_GetChar(void) 
 533:Generated_Source\PSoC4/UART.c ****     {
 386              		.loc 1 533 0
 387              		.cfi_startproc
 388              		@ args = 0, pretend = 0, frame = 0
 389              		@ frame_needed = 0, uses_anonymous_args = 0
 390              		@ link register save eliminated.
 391              	.LVL21:
 534:Generated_Source\PSoC4/UART.c ****         uint8 rxData = 0u;
 535:Generated_Source\PSoC4/UART.c ****         uint8 rxStatus;
 536:Generated_Source\PSoC4/UART.c **** 
 537:Generated_Source\PSoC4/UART.c ****     #if (UART_RX_INTERRUPT_ENABLED)
 538:Generated_Source\PSoC4/UART.c ****         uint8 locRxBufferRead;
 539:Generated_Source\PSoC4/UART.c ****         uint8 locRxBufferWrite;
 540:Generated_Source\PSoC4/UART.c **** 
 541:Generated_Source\PSoC4/UART.c ****         /* Protect variables that could change on interrupt */
 542:Generated_Source\PSoC4/UART.c ****         UART_DisableRxInt();
 543:Generated_Source\PSoC4/UART.c **** 
 544:Generated_Source\PSoC4/UART.c ****         locRxBufferRead  = UART_rxBufferRead;
 545:Generated_Source\PSoC4/UART.c ****         locRxBufferWrite = UART_rxBufferWrite;
 546:Generated_Source\PSoC4/UART.c **** 
 547:Generated_Source\PSoC4/UART.c ****         if( (UART_rxBufferLoopDetect != 0u) || (locRxBufferRead != locRxBufferWrite) )
 548:Generated_Source\PSoC4/UART.c ****         {
 549:Generated_Source\PSoC4/UART.c ****             rxData = UART_rxBuffer[locRxBufferRead];
 550:Generated_Source\PSoC4/UART.c ****             locRxBufferRead++;
 551:Generated_Source\PSoC4/UART.c ****             if(locRxBufferRead >= UART_RX_BUFFER_SIZE)
 552:Generated_Source\PSoC4/UART.c ****             {
 553:Generated_Source\PSoC4/UART.c ****                 locRxBufferRead = 0u;
 554:Generated_Source\PSoC4/UART.c ****             }
 555:Generated_Source\PSoC4/UART.c ****             /* Update the real pointer */
 556:Generated_Source\PSoC4/UART.c ****             UART_rxBufferRead = locRxBufferRead;
 557:Generated_Source\PSoC4/UART.c **** 
 558:Generated_Source\PSoC4/UART.c ****             if(UART_rxBufferLoopDetect != 0u)
 559:Generated_Source\PSoC4/UART.c ****             {
 560:Generated_Source\PSoC4/UART.c ****                 UART_rxBufferLoopDetect = 0u;
 561:Generated_Source\PSoC4/UART.c ****                 #if( (UART_RX_INTERRUPT_ENABLED) && (UART_FLOW_CONTROL != 0u) )
 562:Generated_Source\PSoC4/UART.c ****                     /* When Hardware Flow Control selected - return RX mask */
 563:Generated_Source\PSoC4/UART.c ****                     #if( UART_HD_ENABLED )
 564:Generated_Source\PSoC4/UART.c ****                         if((UART_CONTROL_REG & UART_CTRL_HD_SEND) == 0u)
 565:Generated_Source\PSoC4/UART.c ****                         {   /* In Half duplex mode return RX mask only if
 566:Generated_Source\PSoC4/UART.c ****                             *  RX configuration set, otherwise
 567:Generated_Source\PSoC4/UART.c ****                             *  mask will be returned in LoadRxConfig() API.
 568:Generated_Source\PSoC4/UART.c ****                             */
 569:Generated_Source\PSoC4/UART.c ****                             UART_RXSTATUS_MASK_REG |= UART_RX_STS_FIFO_NOTEMPTY;
 570:Generated_Source\PSoC4/UART.c ****                         }
 571:Generated_Source\PSoC4/UART.c ****                     #else
 572:Generated_Source\PSoC4/UART.c ****                         UART_RXSTATUS_MASK_REG |= UART_RX_STS_FIFO_NOTEMPTY;
ARM GAS  C:\Users\tdoan1\AppData\Local\Temp\ccP2L39x.s 			page 18


 573:Generated_Source\PSoC4/UART.c ****                     #endif /* end UART_HD_ENABLED */
 574:Generated_Source\PSoC4/UART.c ****                 #endif /* UART_RX_INTERRUPT_ENABLED and Hardware flow control*/
 575:Generated_Source\PSoC4/UART.c ****             }
 576:Generated_Source\PSoC4/UART.c **** 
 577:Generated_Source\PSoC4/UART.c ****         }
 578:Generated_Source\PSoC4/UART.c ****         else
 579:Generated_Source\PSoC4/UART.c ****         {   rxStatus = UART_RXSTATUS_REG;
 580:Generated_Source\PSoC4/UART.c ****             if((rxStatus & UART_RX_STS_FIFO_NOTEMPTY) != 0u)
 581:Generated_Source\PSoC4/UART.c ****             {   /* Read received data from FIFO */
 582:Generated_Source\PSoC4/UART.c ****                 rxData = UART_RXDATA_REG;
 583:Generated_Source\PSoC4/UART.c ****                 /*Check status on error*/
 584:Generated_Source\PSoC4/UART.c ****                 if((rxStatus & (UART_RX_STS_BREAK | UART_RX_STS_PAR_ERROR |
 585:Generated_Source\PSoC4/UART.c ****                                 UART_RX_STS_STOP_ERROR | UART_RX_STS_OVERRUN)) != 0u)
 586:Generated_Source\PSoC4/UART.c ****                 {
 587:Generated_Source\PSoC4/UART.c ****                     rxData = 0u;
 588:Generated_Source\PSoC4/UART.c ****                 }
 589:Generated_Source\PSoC4/UART.c ****             }
 590:Generated_Source\PSoC4/UART.c ****         }
 591:Generated_Source\PSoC4/UART.c **** 
 592:Generated_Source\PSoC4/UART.c ****         UART_EnableRxInt();
 593:Generated_Source\PSoC4/UART.c **** 
 594:Generated_Source\PSoC4/UART.c ****     #else
 595:Generated_Source\PSoC4/UART.c **** 
 596:Generated_Source\PSoC4/UART.c ****         rxStatus =UART_RXSTATUS_REG;
 392              		.loc 1 596 0
 393 0000 074B     		ldr	r3, .L29
 394 0002 1B78     		ldrb	r3, [r3]
 395 0004 DBB2     		uxtb	r3, r3
 396              	.LVL22:
 597:Generated_Source\PSoC4/UART.c ****         if((rxStatus & UART_RX_STS_FIFO_NOTEMPTY) != 0u)
 397              		.loc 1 597 0
 398 0006 9A06     		lsls	r2, r3, #26
 399 0008 06D5     		bpl	.L27
 598:Generated_Source\PSoC4/UART.c ****         {
 599:Generated_Source\PSoC4/UART.c ****             /* Read received data from FIFO */
 600:Generated_Source\PSoC4/UART.c ****             rxData = UART_RXDATA_REG;
 400              		.loc 1 600 0
 401 000a 064A     		ldr	r2, .L29+4
 402 000c 1078     		ldrb	r0, [r2]
 403 000e C0B2     		uxtb	r0, r0
 404              	.LVL23:
 601:Generated_Source\PSoC4/UART.c **** 
 602:Generated_Source\PSoC4/UART.c ****             /*Check status on error*/
 603:Generated_Source\PSoC4/UART.c ****             if((rxStatus & (UART_RX_STS_BREAK | UART_RX_STS_PAR_ERROR |
 405              		.loc 1 603 0
 406 0010 1E22     		movs	r2, #30
 407 0012 1A42     		tst	r2, r3
 408 0014 02D1     		bne	.L28
 409 0016 02E0     		b	.L26
 410              	.LVL24:
 411              	.L27:
 534:Generated_Source\PSoC4/UART.c ****         uint8 rxStatus;
 412              		.loc 1 534 0
 413 0018 0020     		movs	r0, #0
 414 001a 00E0     		b	.L26
 415              	.LVL25:
 416              	.L28:
ARM GAS  C:\Users\tdoan1\AppData\Local\Temp\ccP2L39x.s 			page 19


 604:Generated_Source\PSoC4/UART.c ****                             UART_RX_STS_STOP_ERROR | UART_RX_STS_OVERRUN)) != 0u)
 605:Generated_Source\PSoC4/UART.c ****             {
 606:Generated_Source\PSoC4/UART.c ****                 rxData = 0u;
 417              		.loc 1 606 0
 418 001c 0020     		movs	r0, #0
 419              	.LVL26:
 420              	.L26:
 607:Generated_Source\PSoC4/UART.c ****             }
 608:Generated_Source\PSoC4/UART.c ****         }
 609:Generated_Source\PSoC4/UART.c ****     #endif /* (UART_RX_INTERRUPT_ENABLED) */
 610:Generated_Source\PSoC4/UART.c **** 
 611:Generated_Source\PSoC4/UART.c ****         return(rxData);
 612:Generated_Source\PSoC4/UART.c ****     }
 421              		.loc 1 612 0
 422              		@ sp needed
 423 001e 7047     		bx	lr
 424              	.L30:
 425              		.align	2
 426              	.L29:
 427 0020 60000F40 		.word	1074724960
 428 0024 40000F40 		.word	1074724928
 429              		.cfi_endproc
 430              	.LFE9:
 431              		.size	UART_GetChar, .-UART_GetChar
 432              		.section	.text.UART_GetByte,"ax",%progbits
 433              		.align	2
 434              		.global	UART_GetByte
 435              		.code	16
 436              		.thumb_func
 437              		.type	UART_GetByte, %function
 438              	UART_GetByte:
 439              	.LFB10:
 613:Generated_Source\PSoC4/UART.c **** 
 614:Generated_Source\PSoC4/UART.c **** 
 615:Generated_Source\PSoC4/UART.c ****     /*******************************************************************************
 616:Generated_Source\PSoC4/UART.c ****     * Function Name: UART_GetByte
 617:Generated_Source\PSoC4/UART.c ****     ********************************************************************************
 618:Generated_Source\PSoC4/UART.c ****     *
 619:Generated_Source\PSoC4/UART.c ****     * Summary:
 620:Generated_Source\PSoC4/UART.c ****     *  Reads UART RX buffer immediately, returns received character and error
 621:Generated_Source\PSoC4/UART.c ****     *  condition.
 622:Generated_Source\PSoC4/UART.c ****     *
 623:Generated_Source\PSoC4/UART.c ****     * Parameters:
 624:Generated_Source\PSoC4/UART.c ****     *  None.
 625:Generated_Source\PSoC4/UART.c ****     *
 626:Generated_Source\PSoC4/UART.c ****     * Return:
 627:Generated_Source\PSoC4/UART.c ****     *  MSB contains status and LSB contains UART RX data. If the MSB is nonzero,
 628:Generated_Source\PSoC4/UART.c ****     *  an error has occurred.
 629:Generated_Source\PSoC4/UART.c ****     *
 630:Generated_Source\PSoC4/UART.c ****     * Reentrant:
 631:Generated_Source\PSoC4/UART.c ****     *  No.
 632:Generated_Source\PSoC4/UART.c ****     *
 633:Generated_Source\PSoC4/UART.c ****     *******************************************************************************/
 634:Generated_Source\PSoC4/UART.c ****     uint16 UART_GetByte(void) 
 635:Generated_Source\PSoC4/UART.c ****     {
 440              		.loc 1 635 0
 441              		.cfi_startproc
ARM GAS  C:\Users\tdoan1\AppData\Local\Temp\ccP2L39x.s 			page 20


 442              		@ args = 0, pretend = 0, frame = 0
 443              		@ frame_needed = 0, uses_anonymous_args = 0
 444 0000 10B5     		push	{r4, lr}
 445              		.cfi_def_cfa_offset 8
 446              		.cfi_offset 4, -8
 447              		.cfi_offset 14, -4
 636:Generated_Source\PSoC4/UART.c ****         
 637:Generated_Source\PSoC4/UART.c ****     #if (UART_RX_INTERRUPT_ENABLED)
 638:Generated_Source\PSoC4/UART.c ****         uint16 locErrorStatus;
 639:Generated_Source\PSoC4/UART.c ****         /* Protect variables that could change on interrupt */
 640:Generated_Source\PSoC4/UART.c ****         UART_DisableRxInt();
 641:Generated_Source\PSoC4/UART.c ****         locErrorStatus = (uint16)UART_errorStatus;
 642:Generated_Source\PSoC4/UART.c ****         UART_errorStatus = 0u;
 643:Generated_Source\PSoC4/UART.c ****         UART_EnableRxInt();
 644:Generated_Source\PSoC4/UART.c ****         return ( (uint16)(locErrorStatus << 8u) | UART_ReadRxData() );
 645:Generated_Source\PSoC4/UART.c ****     #else
 646:Generated_Source\PSoC4/UART.c ****         return ( ((uint16)UART_ReadRxStatus() << 8u) | UART_ReadRxData() );
 448              		.loc 1 646 0
 449 0002 FFF7FEFF 		bl	UART_ReadRxStatus
 450              	.LVL27:
 451 0006 0402     		lsls	r4, r0, #8
 452 0008 FFF7FEFF 		bl	UART_ReadRxData
 453              	.LVL28:
 454 000c 2043     		orrs	r0, r4
 455 000e 80B2     		uxth	r0, r0
 647:Generated_Source\PSoC4/UART.c ****     #endif /* UART_RX_INTERRUPT_ENABLED */
 648:Generated_Source\PSoC4/UART.c ****         
 649:Generated_Source\PSoC4/UART.c ****     }
 456              		.loc 1 649 0
 457              		@ sp needed
 458 0010 10BD     		pop	{r4, pc}
 459              		.cfi_endproc
 460              	.LFE10:
 461              		.size	UART_GetByte, .-UART_GetByte
 462 0012 C046     		.section	.text.UART_GetRxBufferSize,"ax",%progbits
 463              		.align	2
 464              		.global	UART_GetRxBufferSize
 465              		.code	16
 466              		.thumb_func
 467              		.type	UART_GetRxBufferSize, %function
 468              	UART_GetRxBufferSize:
 469              	.LFB11:
 650:Generated_Source\PSoC4/UART.c **** 
 651:Generated_Source\PSoC4/UART.c **** 
 652:Generated_Source\PSoC4/UART.c ****     /*******************************************************************************
 653:Generated_Source\PSoC4/UART.c ****     * Function Name: UART_GetRxBufferSize
 654:Generated_Source\PSoC4/UART.c ****     ********************************************************************************
 655:Generated_Source\PSoC4/UART.c ****     *
 656:Generated_Source\PSoC4/UART.c ****     * Summary:
 657:Generated_Source\PSoC4/UART.c ****     *  Returns the number of received bytes available in the RX buffer.
 658:Generated_Source\PSoC4/UART.c ****     *  * RX software buffer is disabled (RX Buffer Size parameter is equal to 4): 
 659:Generated_Source\PSoC4/UART.c ****     *    returns 0 for empty RX FIFO or 1 for not empty RX FIFO.
 660:Generated_Source\PSoC4/UART.c ****     *  * RX software buffer is enabled: returns the number of bytes available in 
 661:Generated_Source\PSoC4/UART.c ****     *    the RX software buffer. Bytes available in the RX FIFO do not take to 
 662:Generated_Source\PSoC4/UART.c ****     *    account.
 663:Generated_Source\PSoC4/UART.c ****     *
 664:Generated_Source\PSoC4/UART.c ****     * Parameters:
ARM GAS  C:\Users\tdoan1\AppData\Local\Temp\ccP2L39x.s 			page 21


 665:Generated_Source\PSoC4/UART.c ****     *  None.
 666:Generated_Source\PSoC4/UART.c ****     *
 667:Generated_Source\PSoC4/UART.c ****     * Return:
 668:Generated_Source\PSoC4/UART.c ****     *  uint8: Number of bytes in the RX buffer. 
 669:Generated_Source\PSoC4/UART.c ****     *    Return value type depends on RX Buffer Size parameter.
 670:Generated_Source\PSoC4/UART.c ****     *
 671:Generated_Source\PSoC4/UART.c ****     * Global Variables:
 672:Generated_Source\PSoC4/UART.c ****     *  UART_rxBufferWrite - used to calculate left bytes.
 673:Generated_Source\PSoC4/UART.c ****     *  UART_rxBufferRead - used to calculate left bytes.
 674:Generated_Source\PSoC4/UART.c ****     *  UART_rxBufferLoopDetect - checked to decide left bytes amount.
 675:Generated_Source\PSoC4/UART.c ****     *
 676:Generated_Source\PSoC4/UART.c ****     * Reentrant:
 677:Generated_Source\PSoC4/UART.c ****     *  No.
 678:Generated_Source\PSoC4/UART.c ****     *
 679:Generated_Source\PSoC4/UART.c ****     * Theory:
 680:Generated_Source\PSoC4/UART.c ****     *  Allows the user to find out how full the RX Buffer is.
 681:Generated_Source\PSoC4/UART.c ****     *
 682:Generated_Source\PSoC4/UART.c ****     *******************************************************************************/
 683:Generated_Source\PSoC4/UART.c ****     uint8 UART_GetRxBufferSize(void)
 684:Generated_Source\PSoC4/UART.c ****                                                             
 685:Generated_Source\PSoC4/UART.c ****     {
 470              		.loc 1 685 0
 471              		.cfi_startproc
 472              		@ args = 0, pretend = 0, frame = 0
 473              		@ frame_needed = 0, uses_anonymous_args = 0
 474              		@ link register save eliminated.
 686:Generated_Source\PSoC4/UART.c ****         uint8 size;
 687:Generated_Source\PSoC4/UART.c **** 
 688:Generated_Source\PSoC4/UART.c ****     #if (UART_RX_INTERRUPT_ENABLED)
 689:Generated_Source\PSoC4/UART.c **** 
 690:Generated_Source\PSoC4/UART.c ****         /* Protect variables that could change on interrupt */
 691:Generated_Source\PSoC4/UART.c ****         UART_DisableRxInt();
 692:Generated_Source\PSoC4/UART.c **** 
 693:Generated_Source\PSoC4/UART.c ****         if(UART_rxBufferRead == UART_rxBufferWrite)
 694:Generated_Source\PSoC4/UART.c ****         {
 695:Generated_Source\PSoC4/UART.c ****             if(UART_rxBufferLoopDetect != 0u)
 696:Generated_Source\PSoC4/UART.c ****             {
 697:Generated_Source\PSoC4/UART.c ****                 size = UART_RX_BUFFER_SIZE;
 698:Generated_Source\PSoC4/UART.c ****             }
 699:Generated_Source\PSoC4/UART.c ****             else
 700:Generated_Source\PSoC4/UART.c ****             {
 701:Generated_Source\PSoC4/UART.c ****                 size = 0u;
 702:Generated_Source\PSoC4/UART.c ****             }
 703:Generated_Source\PSoC4/UART.c ****         }
 704:Generated_Source\PSoC4/UART.c ****         else if(UART_rxBufferRead < UART_rxBufferWrite)
 705:Generated_Source\PSoC4/UART.c ****         {
 706:Generated_Source\PSoC4/UART.c ****             size = (UART_rxBufferWrite - UART_rxBufferRead);
 707:Generated_Source\PSoC4/UART.c ****         }
 708:Generated_Source\PSoC4/UART.c ****         else
 709:Generated_Source\PSoC4/UART.c ****         {
 710:Generated_Source\PSoC4/UART.c ****             size = (UART_RX_BUFFER_SIZE - UART_rxBufferRead) + UART_rxBufferWrite;
 711:Generated_Source\PSoC4/UART.c ****         }
 712:Generated_Source\PSoC4/UART.c **** 
 713:Generated_Source\PSoC4/UART.c ****         UART_EnableRxInt();
 714:Generated_Source\PSoC4/UART.c **** 
 715:Generated_Source\PSoC4/UART.c ****     #else
 716:Generated_Source\PSoC4/UART.c **** 
ARM GAS  C:\Users\tdoan1\AppData\Local\Temp\ccP2L39x.s 			page 22


 717:Generated_Source\PSoC4/UART.c ****         /* We can only know if there is data in the fifo. */
 718:Generated_Source\PSoC4/UART.c ****         size = ((UART_RXSTATUS_REG & UART_RX_STS_FIFO_NOTEMPTY) != 0u) ? 1u : 0u;
 475              		.loc 1 718 0
 476 0000 034B     		ldr	r3, .L35
 477 0002 1B78     		ldrb	r3, [r3]
 478 0004 9B06     		lsls	r3, r3, #26
 479 0006 01D5     		bpl	.L34
 480 0008 0120     		movs	r0, #1
 481 000a 00E0     		b	.L33
 482              	.L34:
 483 000c 0020     		movs	r0, #0
 484              	.L33:
 485              	.LVL29:
 719:Generated_Source\PSoC4/UART.c **** 
 720:Generated_Source\PSoC4/UART.c ****     #endif /* (UART_RX_INTERRUPT_ENABLED) */
 721:Generated_Source\PSoC4/UART.c **** 
 722:Generated_Source\PSoC4/UART.c ****         return(size);
 723:Generated_Source\PSoC4/UART.c ****     }
 486              		.loc 1 723 0 discriminator 4
 487              		@ sp needed
 488 000e 7047     		bx	lr
 489              	.L36:
 490              		.align	2
 491              	.L35:
 492 0010 60000F40 		.word	1074724960
 493              		.cfi_endproc
 494              	.LFE11:
 495              		.size	UART_GetRxBufferSize, .-UART_GetRxBufferSize
 496              		.section	.text.UART_ClearRxBuffer,"ax",%progbits
 497              		.align	2
 498              		.global	UART_ClearRxBuffer
 499              		.code	16
 500              		.thumb_func
 501              		.type	UART_ClearRxBuffer, %function
 502              	UART_ClearRxBuffer:
 503              	.LFB12:
 724:Generated_Source\PSoC4/UART.c **** 
 725:Generated_Source\PSoC4/UART.c **** 
 726:Generated_Source\PSoC4/UART.c ****     /*******************************************************************************
 727:Generated_Source\PSoC4/UART.c ****     * Function Name: UART_ClearRxBuffer
 728:Generated_Source\PSoC4/UART.c ****     ********************************************************************************
 729:Generated_Source\PSoC4/UART.c ****     *
 730:Generated_Source\PSoC4/UART.c ****     * Summary:
 731:Generated_Source\PSoC4/UART.c ****     *  Clears the receiver memory buffer and hardware RX FIFO of all received data.
 732:Generated_Source\PSoC4/UART.c ****     *
 733:Generated_Source\PSoC4/UART.c ****     * Parameters:
 734:Generated_Source\PSoC4/UART.c ****     *  None.
 735:Generated_Source\PSoC4/UART.c ****     *
 736:Generated_Source\PSoC4/UART.c ****     * Return:
 737:Generated_Source\PSoC4/UART.c ****     *  None.
 738:Generated_Source\PSoC4/UART.c ****     *
 739:Generated_Source\PSoC4/UART.c ****     * Global Variables:
 740:Generated_Source\PSoC4/UART.c ****     *  UART_rxBufferWrite - cleared to zero.
 741:Generated_Source\PSoC4/UART.c ****     *  UART_rxBufferRead - cleared to zero.
 742:Generated_Source\PSoC4/UART.c ****     *  UART_rxBufferLoopDetect - cleared to zero.
 743:Generated_Source\PSoC4/UART.c ****     *  UART_rxBufferOverflow - cleared to zero.
 744:Generated_Source\PSoC4/UART.c ****     *
ARM GAS  C:\Users\tdoan1\AppData\Local\Temp\ccP2L39x.s 			page 23


 745:Generated_Source\PSoC4/UART.c ****     * Reentrant:
 746:Generated_Source\PSoC4/UART.c ****     *  No.
 747:Generated_Source\PSoC4/UART.c ****     *
 748:Generated_Source\PSoC4/UART.c ****     * Theory:
 749:Generated_Source\PSoC4/UART.c ****     *  Setting the pointers to zero makes the system believe there is no data to
 750:Generated_Source\PSoC4/UART.c ****     *  read and writing will resume at address 0 overwriting any data that may
 751:Generated_Source\PSoC4/UART.c ****     *  have remained in the RAM.
 752:Generated_Source\PSoC4/UART.c ****     *
 753:Generated_Source\PSoC4/UART.c ****     * Side Effects:
 754:Generated_Source\PSoC4/UART.c ****     *  Any received data not read from the RAM or FIFO buffer will be lost.
 755:Generated_Source\PSoC4/UART.c ****     *
 756:Generated_Source\PSoC4/UART.c ****     *******************************************************************************/
 757:Generated_Source\PSoC4/UART.c ****     void UART_ClearRxBuffer(void) 
 758:Generated_Source\PSoC4/UART.c ****     {
 504              		.loc 1 758 0
 505              		.cfi_startproc
 506              		@ args = 0, pretend = 0, frame = 0
 507              		@ frame_needed = 0, uses_anonymous_args = 0
 508 0000 10B5     		push	{r4, lr}
 509              		.cfi_def_cfa_offset 8
 510              		.cfi_offset 4, -8
 511              		.cfi_offset 14, -4
 759:Generated_Source\PSoC4/UART.c ****         uint8 enableInterrupts;
 760:Generated_Source\PSoC4/UART.c **** 
 761:Generated_Source\PSoC4/UART.c ****         /* Clear the HW FIFO */
 762:Generated_Source\PSoC4/UART.c ****         enableInterrupts = CyEnterCriticalSection();
 512              		.loc 1 762 0
 513 0002 FFF7FEFF 		bl	CyEnterCriticalSection
 514              	.LVL30:
 763:Generated_Source\PSoC4/UART.c ****         UART_RXDATA_AUX_CTL_REG |= (uint8)  UART_RX_FIFO_CLR;
 515              		.loc 1 763 0
 516 0006 064A     		ldr	r2, .L38
 517 0008 1178     		ldrb	r1, [r2]
 518 000a 0123     		movs	r3, #1
 519 000c 0B43     		orrs	r3, r1
 520 000e DBB2     		uxtb	r3, r3
 521 0010 1370     		strb	r3, [r2]
 764:Generated_Source\PSoC4/UART.c ****         UART_RXDATA_AUX_CTL_REG &= (uint8) ~UART_RX_FIFO_CLR;
 522              		.loc 1 764 0
 523 0012 1378     		ldrb	r3, [r2]
 524 0014 0121     		movs	r1, #1
 525 0016 8B43     		bics	r3, r1
 526 0018 1370     		strb	r3, [r2]
 765:Generated_Source\PSoC4/UART.c ****         CyExitCriticalSection(enableInterrupts);
 527              		.loc 1 765 0
 528 001a FFF7FEFF 		bl	CyExitCriticalSection
 529              	.LVL31:
 766:Generated_Source\PSoC4/UART.c **** 
 767:Generated_Source\PSoC4/UART.c ****     #if (UART_RX_INTERRUPT_ENABLED)
 768:Generated_Source\PSoC4/UART.c **** 
 769:Generated_Source\PSoC4/UART.c ****         /* Protect variables that could change on interrupt. */
 770:Generated_Source\PSoC4/UART.c ****         UART_DisableRxInt();
 771:Generated_Source\PSoC4/UART.c **** 
 772:Generated_Source\PSoC4/UART.c ****         UART_rxBufferRead = 0u;
 773:Generated_Source\PSoC4/UART.c ****         UART_rxBufferWrite = 0u;
 774:Generated_Source\PSoC4/UART.c ****         UART_rxBufferLoopDetect = 0u;
 775:Generated_Source\PSoC4/UART.c ****         UART_rxBufferOverflow = 0u;
ARM GAS  C:\Users\tdoan1\AppData\Local\Temp\ccP2L39x.s 			page 24


 776:Generated_Source\PSoC4/UART.c **** 
 777:Generated_Source\PSoC4/UART.c ****         UART_EnableRxInt();
 778:Generated_Source\PSoC4/UART.c **** 
 779:Generated_Source\PSoC4/UART.c ****     #endif /* (UART_RX_INTERRUPT_ENABLED) */
 780:Generated_Source\PSoC4/UART.c **** 
 781:Generated_Source\PSoC4/UART.c ****     }
 530              		.loc 1 781 0
 531              		@ sp needed
 532 001e 10BD     		pop	{r4, pc}
 533              	.L39:
 534              		.align	2
 535              	.L38:
 536 0020 90000F40 		.word	1074725008
 537              		.cfi_endproc
 538              	.LFE12:
 539              		.size	UART_ClearRxBuffer, .-UART_ClearRxBuffer
 540              		.section	.text.UART_SetRxAddressMode,"ax",%progbits
 541              		.align	2
 542              		.global	UART_SetRxAddressMode
 543              		.code	16
 544              		.thumb_func
 545              		.type	UART_SetRxAddressMode, %function
 546              	UART_SetRxAddressMode:
 547              	.LFB13:
 782:Generated_Source\PSoC4/UART.c **** 
 783:Generated_Source\PSoC4/UART.c **** 
 784:Generated_Source\PSoC4/UART.c ****     /*******************************************************************************
 785:Generated_Source\PSoC4/UART.c ****     * Function Name: UART_SetRxAddressMode
 786:Generated_Source\PSoC4/UART.c ****     ********************************************************************************
 787:Generated_Source\PSoC4/UART.c ****     *
 788:Generated_Source\PSoC4/UART.c ****     * Summary:
 789:Generated_Source\PSoC4/UART.c ****     *  Sets the software controlled Addressing mode used by the RX portion of the
 790:Generated_Source\PSoC4/UART.c ****     *  UART.
 791:Generated_Source\PSoC4/UART.c ****     *
 792:Generated_Source\PSoC4/UART.c ****     * Parameters:
 793:Generated_Source\PSoC4/UART.c ****     *  addressMode: Enumerated value indicating the mode of RX addressing
 794:Generated_Source\PSoC4/UART.c ****     *  UART__B_UART__AM_SW_BYTE_BYTE -  Software Byte-by-Byte address
 795:Generated_Source\PSoC4/UART.c ****     *                                               detection
 796:Generated_Source\PSoC4/UART.c ****     *  UART__B_UART__AM_SW_DETECT_TO_BUFFER - Software Detect to Buffer
 797:Generated_Source\PSoC4/UART.c ****     *                                               address detection
 798:Generated_Source\PSoC4/UART.c ****     *  UART__B_UART__AM_HW_BYTE_BY_BYTE - Hardware Byte-by-Byte address
 799:Generated_Source\PSoC4/UART.c ****     *                                               detection
 800:Generated_Source\PSoC4/UART.c ****     *  UART__B_UART__AM_HW_DETECT_TO_BUFFER - Hardware Detect to Buffer
 801:Generated_Source\PSoC4/UART.c ****     *                                               address detection
 802:Generated_Source\PSoC4/UART.c ****     *  UART__B_UART__AM_NONE - No address detection
 803:Generated_Source\PSoC4/UART.c ****     *
 804:Generated_Source\PSoC4/UART.c ****     * Return:
 805:Generated_Source\PSoC4/UART.c ****     *  None.
 806:Generated_Source\PSoC4/UART.c ****     *
 807:Generated_Source\PSoC4/UART.c ****     * Global Variables:
 808:Generated_Source\PSoC4/UART.c ****     *  UART_rxAddressMode - the parameter stored in this variable for
 809:Generated_Source\PSoC4/UART.c ****     *   the farther usage in RX ISR.
 810:Generated_Source\PSoC4/UART.c ****     *  UART_rxAddressDetected - set to initial state (0).
 811:Generated_Source\PSoC4/UART.c ****     *
 812:Generated_Source\PSoC4/UART.c ****     *******************************************************************************/
 813:Generated_Source\PSoC4/UART.c ****     void UART_SetRxAddressMode(uint8 addressMode)
 814:Generated_Source\PSoC4/UART.c ****                                                         
ARM GAS  C:\Users\tdoan1\AppData\Local\Temp\ccP2L39x.s 			page 25


 815:Generated_Source\PSoC4/UART.c ****     {
 548              		.loc 1 815 0
 549              		.cfi_startproc
 550              		@ args = 0, pretend = 0, frame = 0
 551              		@ frame_needed = 0, uses_anonymous_args = 0
 552              		@ link register save eliminated.
 553              	.LVL32:
 816:Generated_Source\PSoC4/UART.c ****         #if(UART_RXHW_ADDRESS_ENABLED)
 817:Generated_Source\PSoC4/UART.c ****             #if(UART_CONTROL_REG_REMOVED)
 818:Generated_Source\PSoC4/UART.c ****                 if(0u != addressMode)
 819:Generated_Source\PSoC4/UART.c ****                 {
 820:Generated_Source\PSoC4/UART.c ****                     /* Suppress compiler warning */
 821:Generated_Source\PSoC4/UART.c ****                 }
 822:Generated_Source\PSoC4/UART.c ****             #else /* UART_CONTROL_REG_REMOVED */
 823:Generated_Source\PSoC4/UART.c ****                 uint8 tmpCtrl;
 824:Generated_Source\PSoC4/UART.c ****                 tmpCtrl = UART_CONTROL_REG & (uint8)~UART_CTRL_RXADDR_MODE_MASK;
 825:Generated_Source\PSoC4/UART.c ****                 tmpCtrl |= (uint8)(addressMode << UART_CTRL_RXADDR_MODE0_SHIFT);
 826:Generated_Source\PSoC4/UART.c ****                 UART_CONTROL_REG = tmpCtrl;
 827:Generated_Source\PSoC4/UART.c **** 
 828:Generated_Source\PSoC4/UART.c ****                 #if(UART_RX_INTERRUPT_ENABLED && \
 829:Generated_Source\PSoC4/UART.c ****                    (UART_RXBUFFERSIZE > UART_FIFO_LENGTH) )
 830:Generated_Source\PSoC4/UART.c ****                     UART_rxAddressMode = addressMode;
 831:Generated_Source\PSoC4/UART.c ****                     UART_rxAddressDetected = 0u;
 832:Generated_Source\PSoC4/UART.c ****                 #endif /* End UART_RXBUFFERSIZE > UART_FIFO_LENGTH*/
 833:Generated_Source\PSoC4/UART.c ****             #endif /* End UART_CONTROL_REG_REMOVED */
 834:Generated_Source\PSoC4/UART.c ****         #else /* UART_RXHW_ADDRESS_ENABLED */
 835:Generated_Source\PSoC4/UART.c ****             if(0u != addressMode)
 836:Generated_Source\PSoC4/UART.c ****             {
 837:Generated_Source\PSoC4/UART.c ****                 /* Suppress compiler warning */
 838:Generated_Source\PSoC4/UART.c ****             }
 839:Generated_Source\PSoC4/UART.c ****         #endif /* End UART_RXHW_ADDRESS_ENABLED */
 840:Generated_Source\PSoC4/UART.c ****     }
 554              		.loc 1 840 0
 555              		@ sp needed
 556 0000 7047     		bx	lr
 557              		.cfi_endproc
 558              	.LFE13:
 559              		.size	UART_SetRxAddressMode, .-UART_SetRxAddressMode
 560 0002 C046     		.section	.text.UART_SetRxAddress1,"ax",%progbits
 561              		.align	2
 562              		.global	UART_SetRxAddress1
 563              		.code	16
 564              		.thumb_func
 565              		.type	UART_SetRxAddress1, %function
 566              	UART_SetRxAddress1:
 567              	.LFB14:
 841:Generated_Source\PSoC4/UART.c **** 
 842:Generated_Source\PSoC4/UART.c **** 
 843:Generated_Source\PSoC4/UART.c ****     /*******************************************************************************
 844:Generated_Source\PSoC4/UART.c ****     * Function Name: UART_SetRxAddress1
 845:Generated_Source\PSoC4/UART.c ****     ********************************************************************************
 846:Generated_Source\PSoC4/UART.c ****     *
 847:Generated_Source\PSoC4/UART.c ****     * Summary:
 848:Generated_Source\PSoC4/UART.c ****     *  Sets the first of two hardware-detectable receiver addresses.
 849:Generated_Source\PSoC4/UART.c ****     *
 850:Generated_Source\PSoC4/UART.c ****     * Parameters:
 851:Generated_Source\PSoC4/UART.c ****     *  address: Address #1 for hardware address detection.
ARM GAS  C:\Users\tdoan1\AppData\Local\Temp\ccP2L39x.s 			page 26


 852:Generated_Source\PSoC4/UART.c ****     *
 853:Generated_Source\PSoC4/UART.c ****     * Return:
 854:Generated_Source\PSoC4/UART.c ****     *  None.
 855:Generated_Source\PSoC4/UART.c ****     *
 856:Generated_Source\PSoC4/UART.c ****     *******************************************************************************/
 857:Generated_Source\PSoC4/UART.c ****     void UART_SetRxAddress1(uint8 address) 
 858:Generated_Source\PSoC4/UART.c ****     {
 568              		.loc 1 858 0
 569              		.cfi_startproc
 570              		@ args = 0, pretend = 0, frame = 0
 571              		@ frame_needed = 0, uses_anonymous_args = 0
 572              		@ link register save eliminated.
 573              	.LVL33:
 859:Generated_Source\PSoC4/UART.c ****         UART_RXADDRESS1_REG = address;
 574              		.loc 1 859 0
 575 0000 014B     		ldr	r3, .L42
 576 0002 1870     		strb	r0, [r3]
 860:Generated_Source\PSoC4/UART.c ****     }
 577              		.loc 1 860 0
 578              		@ sp needed
 579 0004 7047     		bx	lr
 580              	.L43:
 581 0006 C046     		.align	2
 582              	.L42:
 583 0008 20000F40 		.word	1074724896
 584              		.cfi_endproc
 585              	.LFE14:
 586              		.size	UART_SetRxAddress1, .-UART_SetRxAddress1
 587              		.section	.text.UART_SetRxAddress2,"ax",%progbits
 588              		.align	2
 589              		.global	UART_SetRxAddress2
 590              		.code	16
 591              		.thumb_func
 592              		.type	UART_SetRxAddress2, %function
 593              	UART_SetRxAddress2:
 594              	.LFB15:
 861:Generated_Source\PSoC4/UART.c **** 
 862:Generated_Source\PSoC4/UART.c **** 
 863:Generated_Source\PSoC4/UART.c ****     /*******************************************************************************
 864:Generated_Source\PSoC4/UART.c ****     * Function Name: UART_SetRxAddress2
 865:Generated_Source\PSoC4/UART.c ****     ********************************************************************************
 866:Generated_Source\PSoC4/UART.c ****     *
 867:Generated_Source\PSoC4/UART.c ****     * Summary:
 868:Generated_Source\PSoC4/UART.c ****     *  Sets the second of two hardware-detectable receiver addresses.
 869:Generated_Source\PSoC4/UART.c ****     *
 870:Generated_Source\PSoC4/UART.c ****     * Parameters:
 871:Generated_Source\PSoC4/UART.c ****     *  address: Address #2 for hardware address detection.
 872:Generated_Source\PSoC4/UART.c ****     *
 873:Generated_Source\PSoC4/UART.c ****     * Return:
 874:Generated_Source\PSoC4/UART.c ****     *  None.
 875:Generated_Source\PSoC4/UART.c ****     *
 876:Generated_Source\PSoC4/UART.c ****     *******************************************************************************/
 877:Generated_Source\PSoC4/UART.c ****     void UART_SetRxAddress2(uint8 address) 
 878:Generated_Source\PSoC4/UART.c ****     {
 595              		.loc 1 878 0
 596              		.cfi_startproc
 597              		@ args = 0, pretend = 0, frame = 0
ARM GAS  C:\Users\tdoan1\AppData\Local\Temp\ccP2L39x.s 			page 27


 598              		@ frame_needed = 0, uses_anonymous_args = 0
 599              		@ link register save eliminated.
 600              	.LVL34:
 879:Generated_Source\PSoC4/UART.c ****         UART_RXADDRESS2_REG = address;
 601              		.loc 1 879 0
 602 0000 014B     		ldr	r3, .L45
 603 0002 1870     		strb	r0, [r3]
 880:Generated_Source\PSoC4/UART.c ****     }
 604              		.loc 1 880 0
 605              		@ sp needed
 606 0004 7047     		bx	lr
 607              	.L46:
 608 0006 C046     		.align	2
 609              	.L45:
 610 0008 30000F40 		.word	1074724912
 611              		.cfi_endproc
 612              	.LFE15:
 613              		.size	UART_SetRxAddress2, .-UART_SetRxAddress2
 614              		.section	.text.UART_SetTxInterruptMode,"ax",%progbits
 615              		.align	2
 616              		.global	UART_SetTxInterruptMode
 617              		.code	16
 618              		.thumb_func
 619              		.type	UART_SetTxInterruptMode, %function
 620              	UART_SetTxInterruptMode:
 621              	.LFB16:
 881:Generated_Source\PSoC4/UART.c **** 
 882:Generated_Source\PSoC4/UART.c **** #endif  /* UART_RX_ENABLED || UART_HD_ENABLED*/
 883:Generated_Source\PSoC4/UART.c **** 
 884:Generated_Source\PSoC4/UART.c **** 
 885:Generated_Source\PSoC4/UART.c **** #if( (UART_TX_ENABLED) || (UART_HD_ENABLED) )
 886:Generated_Source\PSoC4/UART.c ****     /*******************************************************************************
 887:Generated_Source\PSoC4/UART.c ****     * Function Name: UART_SetTxInterruptMode
 888:Generated_Source\PSoC4/UART.c ****     ********************************************************************************
 889:Generated_Source\PSoC4/UART.c ****     *
 890:Generated_Source\PSoC4/UART.c ****     * Summary:
 891:Generated_Source\PSoC4/UART.c ****     *  Configures the TX interrupt sources to be enabled, but does not enable the
 892:Generated_Source\PSoC4/UART.c ****     *  interrupt.
 893:Generated_Source\PSoC4/UART.c ****     *
 894:Generated_Source\PSoC4/UART.c ****     * Parameters:
 895:Generated_Source\PSoC4/UART.c ****     *  intSrc: Bit field containing the TX interrupt sources to enable
 896:Generated_Source\PSoC4/UART.c ****     *   UART_TX_STS_COMPLETE        Interrupt on TX byte complete
 897:Generated_Source\PSoC4/UART.c ****     *   UART_TX_STS_FIFO_EMPTY      Interrupt when TX FIFO is empty
 898:Generated_Source\PSoC4/UART.c ****     *   UART_TX_STS_FIFO_FULL       Interrupt when TX FIFO is full
 899:Generated_Source\PSoC4/UART.c ****     *   UART_TX_STS_FIFO_NOT_FULL   Interrupt when TX FIFO is not full
 900:Generated_Source\PSoC4/UART.c ****     *
 901:Generated_Source\PSoC4/UART.c ****     * Return:
 902:Generated_Source\PSoC4/UART.c ****     *  None.
 903:Generated_Source\PSoC4/UART.c ****     *
 904:Generated_Source\PSoC4/UART.c ****     * Theory:
 905:Generated_Source\PSoC4/UART.c ****     *  Enables the output of specific status bits to the interrupt controller
 906:Generated_Source\PSoC4/UART.c ****     *
 907:Generated_Source\PSoC4/UART.c ****     *******************************************************************************/
 908:Generated_Source\PSoC4/UART.c ****     void UART_SetTxInterruptMode(uint8 intSrc) 
 909:Generated_Source\PSoC4/UART.c ****     {
 622              		.loc 1 909 0
 623              		.cfi_startproc
ARM GAS  C:\Users\tdoan1\AppData\Local\Temp\ccP2L39x.s 			page 28


 624              		@ args = 0, pretend = 0, frame = 0
 625              		@ frame_needed = 0, uses_anonymous_args = 0
 626              		@ link register save eliminated.
 627              	.LVL35:
 910:Generated_Source\PSoC4/UART.c ****         UART_TXSTATUS_MASK_REG = intSrc;
 628              		.loc 1 910 0
 629 0000 014B     		ldr	r3, .L48
 630 0002 1870     		strb	r0, [r3]
 911:Generated_Source\PSoC4/UART.c ****     }
 631              		.loc 1 911 0
 632              		@ sp needed
 633 0004 7047     		bx	lr
 634              	.L49:
 635 0006 C046     		.align	2
 636              	.L48:
 637 0008 83000F40 		.word	1074724995
 638              		.cfi_endproc
 639              	.LFE16:
 640              		.size	UART_SetTxInterruptMode, .-UART_SetTxInterruptMode
 641              		.section	.text.UART_WriteTxData,"ax",%progbits
 642              		.align	2
 643              		.global	UART_WriteTxData
 644              		.code	16
 645              		.thumb_func
 646              		.type	UART_WriteTxData, %function
 647              	UART_WriteTxData:
 648              	.LFB17:
 912:Generated_Source\PSoC4/UART.c **** 
 913:Generated_Source\PSoC4/UART.c **** 
 914:Generated_Source\PSoC4/UART.c ****     /*******************************************************************************
 915:Generated_Source\PSoC4/UART.c ****     * Function Name: UART_WriteTxData
 916:Generated_Source\PSoC4/UART.c ****     ********************************************************************************
 917:Generated_Source\PSoC4/UART.c ****     *
 918:Generated_Source\PSoC4/UART.c ****     * Summary:
 919:Generated_Source\PSoC4/UART.c ****     *  Places a byte of data into the transmit buffer to be sent when the bus is
 920:Generated_Source\PSoC4/UART.c ****     *  available without checking the TX status register. You must check status
 921:Generated_Source\PSoC4/UART.c ****     *  separately.
 922:Generated_Source\PSoC4/UART.c ****     *
 923:Generated_Source\PSoC4/UART.c ****     * Parameters:
 924:Generated_Source\PSoC4/UART.c ****     *  txDataByte: data byte
 925:Generated_Source\PSoC4/UART.c ****     *
 926:Generated_Source\PSoC4/UART.c ****     * Return:
 927:Generated_Source\PSoC4/UART.c ****     * None.
 928:Generated_Source\PSoC4/UART.c ****     *
 929:Generated_Source\PSoC4/UART.c ****     * Global Variables:
 930:Generated_Source\PSoC4/UART.c ****     *  UART_txBuffer - RAM buffer pointer for save data for transmission
 931:Generated_Source\PSoC4/UART.c ****     *  UART_txBufferWrite - cyclic index for write to txBuffer,
 932:Generated_Source\PSoC4/UART.c ****     *    incremented after each byte saved to buffer.
 933:Generated_Source\PSoC4/UART.c ****     *  UART_txBufferRead - cyclic index for read from txBuffer,
 934:Generated_Source\PSoC4/UART.c ****     *    checked to identify the condition to write to FIFO directly or to TX buffer
 935:Generated_Source\PSoC4/UART.c ****     *  UART_initVar - checked to identify that the component has been
 936:Generated_Source\PSoC4/UART.c ****     *    initialized.
 937:Generated_Source\PSoC4/UART.c ****     *
 938:Generated_Source\PSoC4/UART.c ****     * Reentrant:
 939:Generated_Source\PSoC4/UART.c ****     *  No.
 940:Generated_Source\PSoC4/UART.c ****     *
 941:Generated_Source\PSoC4/UART.c ****     *******************************************************************************/
ARM GAS  C:\Users\tdoan1\AppData\Local\Temp\ccP2L39x.s 			page 29


 942:Generated_Source\PSoC4/UART.c ****     void UART_WriteTxData(uint8 txDataByte) 
 943:Generated_Source\PSoC4/UART.c ****     {
 649              		.loc 1 943 0
 650              		.cfi_startproc
 651              		@ args = 0, pretend = 0, frame = 0
 652              		@ frame_needed = 0, uses_anonymous_args = 0
 653              	.LVL36:
 654 0000 10B5     		push	{r4, lr}
 655              		.cfi_def_cfa_offset 8
 656              		.cfi_offset 4, -8
 657              		.cfi_offset 14, -4
 658 0002 0400     		movs	r4, r0
 944:Generated_Source\PSoC4/UART.c ****         /* If not Initialized then skip this function*/
 945:Generated_Source\PSoC4/UART.c ****         if(UART_initVar != 0u)
 659              		.loc 1 945 0
 660 0004 114B     		ldr	r3, .L55
 661 0006 1B78     		ldrb	r3, [r3]
 662 0008 002B     		cmp	r3, #0
 663 000a 1DD0     		beq	.L50
 946:Generated_Source\PSoC4/UART.c ****         {
 947:Generated_Source\PSoC4/UART.c ****         #if (UART_TX_INTERRUPT_ENABLED)
 948:Generated_Source\PSoC4/UART.c **** 
 949:Generated_Source\PSoC4/UART.c ****             /* Protect variables that could change on interrupt. */
 950:Generated_Source\PSoC4/UART.c ****             UART_DisableTxInt();
 664              		.loc 1 950 0
 665 000c 0220     		movs	r0, #2
 666              	.LVL37:
 667 000e FFF7FEFF 		bl	CyIntDisable
 668              	.LVL38:
 951:Generated_Source\PSoC4/UART.c **** 
 952:Generated_Source\PSoC4/UART.c ****             if( (UART_txBufferRead == UART_txBufferWrite) &&
 669              		.loc 1 952 0
 670 0012 0E4A     		ldr	r2, .L55
 671 0014 5378     		ldrb	r3, [r2, #1]
 672 0016 DBB2     		uxtb	r3, r3
 673 0018 9278     		ldrb	r2, [r2, #2]
 674 001a 9342     		cmp	r3, r2
 675 001c 06D1     		bne	.L52
 953:Generated_Source\PSoC4/UART.c ****                 ((UART_TXSTATUS_REG & UART_TX_STS_FIFO_FULL) == 0u) )
 676              		.loc 1 953 0 discriminator 1
 677 001e 0C4B     		ldr	r3, .L55+4
 678 0020 1B78     		ldrb	r3, [r3]
 952:Generated_Source\PSoC4/UART.c ****                 ((UART_TXSTATUS_REG & UART_TX_STS_FIFO_FULL) == 0u) )
 679              		.loc 1 952 0 discriminator 1
 680 0022 5B07     		lsls	r3, r3, #29
 681 0024 02D4     		bmi	.L52
 954:Generated_Source\PSoC4/UART.c ****             {
 955:Generated_Source\PSoC4/UART.c ****                 /* Add directly to the FIFO. */
 956:Generated_Source\PSoC4/UART.c ****                 UART_TXDATA_REG = txDataByte;
 682              		.loc 1 956 0
 683 0026 0B4B     		ldr	r3, .L55+8
 684 0028 1C70     		strb	r4, [r3]
 685 002a 0AE0     		b	.L53
 686              	.L52:
 957:Generated_Source\PSoC4/UART.c ****             }
 958:Generated_Source\PSoC4/UART.c ****             else
 959:Generated_Source\PSoC4/UART.c ****             {
ARM GAS  C:\Users\tdoan1\AppData\Local\Temp\ccP2L39x.s 			page 30


 960:Generated_Source\PSoC4/UART.c ****                 if(UART_txBufferWrite >= UART_TX_BUFFER_SIZE)
 687              		.loc 1 960 0
 688 002c 272A     		cmp	r2, #39
 689 002e 02D9     		bls	.L54
 961:Generated_Source\PSoC4/UART.c ****                 {
 962:Generated_Source\PSoC4/UART.c ****                     UART_txBufferWrite = 0u;
 690              		.loc 1 962 0
 691 0030 0022     		movs	r2, #0
 692 0032 064B     		ldr	r3, .L55
 693 0034 9A70     		strb	r2, [r3, #2]
 694              	.L54:
 963:Generated_Source\PSoC4/UART.c ****                 }
 964:Generated_Source\PSoC4/UART.c **** 
 965:Generated_Source\PSoC4/UART.c ****                 UART_txBuffer[UART_txBufferWrite] = txDataByte;
 695              		.loc 1 965 0
 696 0036 054A     		ldr	r2, .L55
 697 0038 9378     		ldrb	r3, [r2, #2]
 698 003a 0749     		ldr	r1, .L55+12
 699 003c CC54     		strb	r4, [r1, r3]
 966:Generated_Source\PSoC4/UART.c **** 
 967:Generated_Source\PSoC4/UART.c ****                 /* Add to the software buffer. */
 968:Generated_Source\PSoC4/UART.c ****                 UART_txBufferWrite++;
 700              		.loc 1 968 0
 701 003e 0133     		adds	r3, r3, #1
 702 0040 9370     		strb	r3, [r2, #2]
 703              	.L53:
 969:Generated_Source\PSoC4/UART.c ****             }
 970:Generated_Source\PSoC4/UART.c **** 
 971:Generated_Source\PSoC4/UART.c ****             UART_EnableTxInt();
 704              		.loc 1 971 0
 705 0042 0220     		movs	r0, #2
 706 0044 FFF7FEFF 		bl	CyIntEnable
 707              	.LVL39:
 708              	.L50:
 972:Generated_Source\PSoC4/UART.c **** 
 973:Generated_Source\PSoC4/UART.c ****         #else
 974:Generated_Source\PSoC4/UART.c **** 
 975:Generated_Source\PSoC4/UART.c ****             /* Add directly to the FIFO. */
 976:Generated_Source\PSoC4/UART.c ****             UART_TXDATA_REG = txDataByte;
 977:Generated_Source\PSoC4/UART.c **** 
 978:Generated_Source\PSoC4/UART.c ****         #endif /*(UART_TX_INTERRUPT_ENABLED) */
 979:Generated_Source\PSoC4/UART.c ****         }
 980:Generated_Source\PSoC4/UART.c ****     }
 709              		.loc 1 980 0
 710              		@ sp needed
 711 0048 10BD     		pop	{r4, pc}
 712              	.L56:
 713 004a C046     		.align	2
 714              	.L55:
 715 004c 00000000 		.word	.LANCHOR0
 716 0050 63000F40 		.word	1074724963
 717 0054 43000F40 		.word	1074724931
 718 0058 00000000 		.word	UART_txBuffer
 719              		.cfi_endproc
 720              	.LFE17:
 721              		.size	UART_WriteTxData, .-UART_WriteTxData
 722              		.section	.text.UART_ReadTxStatus,"ax",%progbits
ARM GAS  C:\Users\tdoan1\AppData\Local\Temp\ccP2L39x.s 			page 31


 723              		.align	2
 724              		.global	UART_ReadTxStatus
 725              		.code	16
 726              		.thumb_func
 727              		.type	UART_ReadTxStatus, %function
 728              	UART_ReadTxStatus:
 729              	.LFB18:
 981:Generated_Source\PSoC4/UART.c **** 
 982:Generated_Source\PSoC4/UART.c **** 
 983:Generated_Source\PSoC4/UART.c ****     /*******************************************************************************
 984:Generated_Source\PSoC4/UART.c ****     * Function Name: UART_ReadTxStatus
 985:Generated_Source\PSoC4/UART.c ****     ********************************************************************************
 986:Generated_Source\PSoC4/UART.c ****     *
 987:Generated_Source\PSoC4/UART.c ****     * Summary:
 988:Generated_Source\PSoC4/UART.c ****     *  Reads the status register for the TX portion of the UART.
 989:Generated_Source\PSoC4/UART.c ****     *
 990:Generated_Source\PSoC4/UART.c ****     * Parameters:
 991:Generated_Source\PSoC4/UART.c ****     *  None.
 992:Generated_Source\PSoC4/UART.c ****     *
 993:Generated_Source\PSoC4/UART.c ****     * Return:
 994:Generated_Source\PSoC4/UART.c ****     *  Contents of the status register
 995:Generated_Source\PSoC4/UART.c ****     *
 996:Generated_Source\PSoC4/UART.c ****     * Theory:
 997:Generated_Source\PSoC4/UART.c ****     *  This function reads the TX status register, which is cleared on read.
 998:Generated_Source\PSoC4/UART.c ****     *  It is up to the user to handle all bits in this return value accordingly,
 999:Generated_Source\PSoC4/UART.c ****     *  even if the bit was not enabled as an interrupt source the event happened
1000:Generated_Source\PSoC4/UART.c ****     *  and must be handled accordingly.
1001:Generated_Source\PSoC4/UART.c ****     *
1002:Generated_Source\PSoC4/UART.c ****     *******************************************************************************/
1003:Generated_Source\PSoC4/UART.c ****     uint8 UART_ReadTxStatus(void) 
1004:Generated_Source\PSoC4/UART.c ****     {
 730              		.loc 1 1004 0
 731              		.cfi_startproc
 732              		@ args = 0, pretend = 0, frame = 0
 733              		@ frame_needed = 0, uses_anonymous_args = 0
 734              		@ link register save eliminated.
1005:Generated_Source\PSoC4/UART.c ****         return(UART_TXSTATUS_REG);
 735              		.loc 1 1005 0
 736 0000 014B     		ldr	r3, .L58
 737 0002 1878     		ldrb	r0, [r3]
 738 0004 C0B2     		uxtb	r0, r0
1006:Generated_Source\PSoC4/UART.c ****     }
 739              		.loc 1 1006 0
 740              		@ sp needed
 741 0006 7047     		bx	lr
 742              	.L59:
 743              		.align	2
 744              	.L58:
 745 0008 63000F40 		.word	1074724963
 746              		.cfi_endproc
 747              	.LFE18:
 748              		.size	UART_ReadTxStatus, .-UART_ReadTxStatus
 749              		.section	.text.UART_PutChar,"ax",%progbits
 750              		.align	2
 751              		.global	UART_PutChar
 752              		.code	16
 753              		.thumb_func
ARM GAS  C:\Users\tdoan1\AppData\Local\Temp\ccP2L39x.s 			page 32


 754              		.type	UART_PutChar, %function
 755              	UART_PutChar:
 756              	.LFB19:
1007:Generated_Source\PSoC4/UART.c **** 
1008:Generated_Source\PSoC4/UART.c **** 
1009:Generated_Source\PSoC4/UART.c ****     /*******************************************************************************
1010:Generated_Source\PSoC4/UART.c ****     * Function Name: UART_PutChar
1011:Generated_Source\PSoC4/UART.c ****     ********************************************************************************
1012:Generated_Source\PSoC4/UART.c ****     *
1013:Generated_Source\PSoC4/UART.c ****     * Summary:
1014:Generated_Source\PSoC4/UART.c ****     *  Puts a byte of data into the transmit buffer to be sent when the bus is
1015:Generated_Source\PSoC4/UART.c ****     *  available. This is a blocking API that waits until the TX buffer has room to
1016:Generated_Source\PSoC4/UART.c ****     *  hold the data.
1017:Generated_Source\PSoC4/UART.c ****     *
1018:Generated_Source\PSoC4/UART.c ****     * Parameters:
1019:Generated_Source\PSoC4/UART.c ****     *  txDataByte: Byte containing the data to transmit
1020:Generated_Source\PSoC4/UART.c ****     *
1021:Generated_Source\PSoC4/UART.c ****     * Return:
1022:Generated_Source\PSoC4/UART.c ****     *  None.
1023:Generated_Source\PSoC4/UART.c ****     *
1024:Generated_Source\PSoC4/UART.c ****     * Global Variables:
1025:Generated_Source\PSoC4/UART.c ****     *  UART_txBuffer - RAM buffer pointer for save data for transmission
1026:Generated_Source\PSoC4/UART.c ****     *  UART_txBufferWrite - cyclic index for write to txBuffer,
1027:Generated_Source\PSoC4/UART.c ****     *     checked to identify free space in txBuffer and incremented after each byte
1028:Generated_Source\PSoC4/UART.c ****     *     saved to buffer.
1029:Generated_Source\PSoC4/UART.c ****     *  UART_txBufferRead - cyclic index for read from txBuffer,
1030:Generated_Source\PSoC4/UART.c ****     *     checked to identify free space in txBuffer.
1031:Generated_Source\PSoC4/UART.c ****     *  UART_initVar - checked to identify that the component has been
1032:Generated_Source\PSoC4/UART.c ****     *     initialized.
1033:Generated_Source\PSoC4/UART.c ****     *
1034:Generated_Source\PSoC4/UART.c ****     * Reentrant:
1035:Generated_Source\PSoC4/UART.c ****     *  No.
1036:Generated_Source\PSoC4/UART.c ****     *
1037:Generated_Source\PSoC4/UART.c ****     * Theory:
1038:Generated_Source\PSoC4/UART.c ****     *  Allows the user to transmit any byte of data in a single transfer
1039:Generated_Source\PSoC4/UART.c ****     *
1040:Generated_Source\PSoC4/UART.c ****     *******************************************************************************/
1041:Generated_Source\PSoC4/UART.c ****     void UART_PutChar(uint8 txDataByte) 
1042:Generated_Source\PSoC4/UART.c ****     {
 757              		.loc 1 1042 0
 758              		.cfi_startproc
 759              		@ args = 0, pretend = 0, frame = 0
 760              		@ frame_needed = 0, uses_anonymous_args = 0
 761              	.LVL40:
 762 0000 10B5     		push	{r4, lr}
 763              		.cfi_def_cfa_offset 8
 764              		.cfi_offset 4, -8
 765              		.cfi_offset 14, -4
 766              	.L63:
1043:Generated_Source\PSoC4/UART.c ****     #if (UART_TX_INTERRUPT_ENABLED)
1044:Generated_Source\PSoC4/UART.c ****         /* The temporary output pointer is used since it takes two instructions
1045:Generated_Source\PSoC4/UART.c ****         *  to increment with a wrap, and we can't risk doing that with the real
1046:Generated_Source\PSoC4/UART.c ****         *  pointer and getting an interrupt in between instructions.
1047:Generated_Source\PSoC4/UART.c ****         */
1048:Generated_Source\PSoC4/UART.c ****         uint8 locTxBufferWrite;
1049:Generated_Source\PSoC4/UART.c ****         uint8 locTxBufferRead;
1050:Generated_Source\PSoC4/UART.c **** 
ARM GAS  C:\Users\tdoan1\AppData\Local\Temp\ccP2L39x.s 			page 33


1051:Generated_Source\PSoC4/UART.c ****         do
1052:Generated_Source\PSoC4/UART.c ****         { /* Block if software buffer is full, so we don't overwrite. */
1053:Generated_Source\PSoC4/UART.c **** 
1054:Generated_Source\PSoC4/UART.c ****         #if ((UART_TX_BUFFER_SIZE > UART_MAX_BYTE_VALUE) && (CY_PSOC3))
1055:Generated_Source\PSoC4/UART.c ****             /* Disable TX interrupt to protect variables from modification */
1056:Generated_Source\PSoC4/UART.c ****             UART_DisableTxInt();
1057:Generated_Source\PSoC4/UART.c ****         #endif /* (UART_TX_BUFFER_SIZE > UART_MAX_BYTE_VALUE) && (CY_PSOC3) */
1058:Generated_Source\PSoC4/UART.c **** 
1059:Generated_Source\PSoC4/UART.c ****             locTxBufferWrite = UART_txBufferWrite;
 767              		.loc 1 1059 0
 768 0002 164B     		ldr	r3, .L68
 769 0004 9978     		ldrb	r1, [r3, #2]
 770              	.LVL41:
1060:Generated_Source\PSoC4/UART.c ****             locTxBufferRead  = UART_txBufferRead;
 771              		.loc 1 1060 0
 772 0006 5A78     		ldrb	r2, [r3, #1]
 773 0008 D2B2     		uxtb	r2, r2
 774              	.LVL42:
1061:Generated_Source\PSoC4/UART.c **** 
1062:Generated_Source\PSoC4/UART.c ****         #if ((UART_TX_BUFFER_SIZE > UART_MAX_BYTE_VALUE) && (CY_PSOC3))
1063:Generated_Source\PSoC4/UART.c ****             /* Enable interrupt to continue transmission */
1064:Generated_Source\PSoC4/UART.c ****             UART_EnableTxInt();
1065:Generated_Source\PSoC4/UART.c ****         #endif /* (UART_TX_BUFFER_SIZE > UART_MAX_BYTE_VALUE) && (CY_PSOC3) */
1066:Generated_Source\PSoC4/UART.c ****         }
1067:Generated_Source\PSoC4/UART.c ****         while( (locTxBufferWrite < locTxBufferRead) ? (locTxBufferWrite == (locTxBufferRead - 1u)) 
 775              		.loc 1 1067 0
 776 000a 9142     		cmp	r1, r2
 777 000c 05D2     		bcs	.L61
 778              		.loc 1 1067 0 is_stmt 0 discriminator 1
 779 000e 531E     		subs	r3, r2, #1
 780 0010 CB1A     		subs	r3, r1, r3
 781 0012 5C42     		rsbs	r4, r3, #0
 782 0014 6341     		adcs	r3, r3, r4
 783 0016 DBB2     		uxtb	r3, r3
 784 0018 04E0     		b	.L62
 785              	.L61:
1068:Generated_Source\PSoC4/UART.c ****                                 ((locTxBufferWrite - locTxBufferRead) ==
 786              		.loc 1 1068 0 is_stmt 1 discriminator 2
 787 001a 8B1A     		subs	r3, r1, r2
1067:Generated_Source\PSoC4/UART.c ****                                 ((locTxBufferWrite - locTxBufferRead) ==
 788              		.loc 1 1067 0 discriminator 2
 789 001c 273B     		subs	r3, r3, #39
 790 001e 5C42     		rsbs	r4, r3, #0
 791 0020 6341     		adcs	r3, r3, r4
 792 0022 DBB2     		uxtb	r3, r3
 793              	.L62:
1069:Generated_Source\PSoC4/UART.c ****                                 (uint8)(UART_TX_BUFFER_SIZE - 1u)) );
 794              		.loc 1 1069 0
 795 0024 002B     		cmp	r3, #0
 796 0026 ECD1     		bne	.L63
1070:Generated_Source\PSoC4/UART.c **** 
1071:Generated_Source\PSoC4/UART.c ****         if( (locTxBufferRead == locTxBufferWrite) &&
 797              		.loc 1 1071 0
 798 0028 9142     		cmp	r1, r2
 799 002a 06D1     		bne	.L64
1072:Generated_Source\PSoC4/UART.c ****             ((UART_TXSTATUS_REG & UART_TX_STS_FIFO_FULL) == 0u) )
 800              		.loc 1 1072 0 discriminator 1
ARM GAS  C:\Users\tdoan1\AppData\Local\Temp\ccP2L39x.s 			page 34


 801 002c 0C4B     		ldr	r3, .L68+4
 802 002e 1B78     		ldrb	r3, [r3]
1071:Generated_Source\PSoC4/UART.c ****             ((UART_TXSTATUS_REG & UART_TX_STS_FIFO_FULL) == 0u) )
 803              		.loc 1 1071 0 discriminator 1
 804 0030 5B07     		lsls	r3, r3, #29
 805 0032 02D4     		bmi	.L64
1073:Generated_Source\PSoC4/UART.c ****         {
1074:Generated_Source\PSoC4/UART.c ****             /* Add directly to the FIFO */
1075:Generated_Source\PSoC4/UART.c ****             UART_TXDATA_REG = txDataByte;
 806              		.loc 1 1075 0
 807 0034 0B4B     		ldr	r3, .L68+8
 808 0036 1870     		strb	r0, [r3]
 809 0038 0EE0     		b	.L60
 810              	.L64:
1076:Generated_Source\PSoC4/UART.c ****         }
1077:Generated_Source\PSoC4/UART.c ****         else
1078:Generated_Source\PSoC4/UART.c ****         {
1079:Generated_Source\PSoC4/UART.c ****             if(locTxBufferWrite >= UART_TX_BUFFER_SIZE)
 811              		.loc 1 1079 0
 812 003a 2729     		cmp	r1, #39
 813 003c 00D9     		bls	.L66
1080:Generated_Source\PSoC4/UART.c ****             {
1081:Generated_Source\PSoC4/UART.c ****                 locTxBufferWrite = 0u;
 814              		.loc 1 1081 0
 815 003e 0021     		movs	r1, #0
 816              	.LVL43:
 817              	.L66:
1082:Generated_Source\PSoC4/UART.c ****             }
1083:Generated_Source\PSoC4/UART.c ****             /* Add to the software buffer. */
1084:Generated_Source\PSoC4/UART.c ****             UART_txBuffer[locTxBufferWrite] = txDataByte;
 818              		.loc 1 1084 0
 819 0040 094B     		ldr	r3, .L68+12
 820 0042 5854     		strb	r0, [r3, r1]
1085:Generated_Source\PSoC4/UART.c ****             locTxBufferWrite++;
 821              		.loc 1 1085 0
 822 0044 0131     		adds	r1, r1, #1
 823              	.LVL44:
1086:Generated_Source\PSoC4/UART.c **** 
1087:Generated_Source\PSoC4/UART.c ****             /* Finally, update the real output pointer */
1088:Generated_Source\PSoC4/UART.c ****         #if ((UART_TX_BUFFER_SIZE > UART_MAX_BYTE_VALUE) && (CY_PSOC3))
1089:Generated_Source\PSoC4/UART.c ****             UART_DisableTxInt();
1090:Generated_Source\PSoC4/UART.c ****         #endif /* (UART_TX_BUFFER_SIZE > UART_MAX_BYTE_VALUE) && (CY_PSOC3) */
1091:Generated_Source\PSoC4/UART.c **** 
1092:Generated_Source\PSoC4/UART.c ****             UART_txBufferWrite = locTxBufferWrite;
 824              		.loc 1 1092 0
 825 0046 054B     		ldr	r3, .L68
 826 0048 9970     		strb	r1, [r3, #2]
1093:Generated_Source\PSoC4/UART.c **** 
1094:Generated_Source\PSoC4/UART.c ****         #if ((UART_TX_BUFFER_SIZE > UART_MAX_BYTE_VALUE) && (CY_PSOC3))
1095:Generated_Source\PSoC4/UART.c ****             UART_EnableTxInt();
1096:Generated_Source\PSoC4/UART.c ****         #endif /* (UART_TX_BUFFER_SIZE > UART_MAX_BYTE_VALUE) && (CY_PSOC3) */
1097:Generated_Source\PSoC4/UART.c **** 
1098:Generated_Source\PSoC4/UART.c ****             if(0u != (UART_TXSTATUS_REG & UART_TX_STS_FIFO_EMPTY))
 827              		.loc 1 1098 0
 828 004a 054B     		ldr	r3, .L68+4
 829 004c 1B78     		ldrb	r3, [r3]
 830 004e 9B07     		lsls	r3, r3, #30
ARM GAS  C:\Users\tdoan1\AppData\Local\Temp\ccP2L39x.s 			page 35


 831 0050 02D5     		bpl	.L60
1099:Generated_Source\PSoC4/UART.c ****             {
1100:Generated_Source\PSoC4/UART.c ****                 /* Trigger TX interrupt to send software buffer */
1101:Generated_Source\PSoC4/UART.c ****                 UART_SetPendingTxInt();
 832              		.loc 1 1101 0
 833 0052 0220     		movs	r0, #2
 834              	.LVL45:
 835 0054 FFF7FEFF 		bl	CyIntSetPending
 836              	.LVL46:
 837              	.L60:
1102:Generated_Source\PSoC4/UART.c ****             }
1103:Generated_Source\PSoC4/UART.c ****         }
1104:Generated_Source\PSoC4/UART.c **** 
1105:Generated_Source\PSoC4/UART.c ****     #else
1106:Generated_Source\PSoC4/UART.c **** 
1107:Generated_Source\PSoC4/UART.c ****         while((UART_TXSTATUS_REG & UART_TX_STS_FIFO_FULL) != 0u)
1108:Generated_Source\PSoC4/UART.c ****         {
1109:Generated_Source\PSoC4/UART.c ****             /* Wait for room in the FIFO */
1110:Generated_Source\PSoC4/UART.c ****         }
1111:Generated_Source\PSoC4/UART.c **** 
1112:Generated_Source\PSoC4/UART.c ****         /* Add directly to the FIFO */
1113:Generated_Source\PSoC4/UART.c ****         UART_TXDATA_REG = txDataByte;
1114:Generated_Source\PSoC4/UART.c **** 
1115:Generated_Source\PSoC4/UART.c ****     #endif /* UART_TX_INTERRUPT_ENABLED */
1116:Generated_Source\PSoC4/UART.c ****     }
 838              		.loc 1 1116 0
 839              		@ sp needed
 840 0058 10BD     		pop	{r4, pc}
 841              	.L69:
 842 005a C046     		.align	2
 843              	.L68:
 844 005c 00000000 		.word	.LANCHOR0
 845 0060 63000F40 		.word	1074724963
 846 0064 43000F40 		.word	1074724931
 847 0068 00000000 		.word	UART_txBuffer
 848              		.cfi_endproc
 849              	.LFE19:
 850              		.size	UART_PutChar, .-UART_PutChar
 851              		.section	.text.UART_PutString,"ax",%progbits
 852              		.align	2
 853              		.global	UART_PutString
 854              		.code	16
 855              		.thumb_func
 856              		.type	UART_PutString, %function
 857              	UART_PutString:
 858              	.LFB20:
1117:Generated_Source\PSoC4/UART.c **** 
1118:Generated_Source\PSoC4/UART.c **** 
1119:Generated_Source\PSoC4/UART.c ****     /*******************************************************************************
1120:Generated_Source\PSoC4/UART.c ****     * Function Name: UART_PutString
1121:Generated_Source\PSoC4/UART.c ****     ********************************************************************************
1122:Generated_Source\PSoC4/UART.c ****     *
1123:Generated_Source\PSoC4/UART.c ****     * Summary:
1124:Generated_Source\PSoC4/UART.c ****     *  Sends a NULL terminated string to the TX buffer for transmission.
1125:Generated_Source\PSoC4/UART.c ****     *
1126:Generated_Source\PSoC4/UART.c ****     * Parameters:
1127:Generated_Source\PSoC4/UART.c ****     *  string[]: Pointer to the null terminated string array residing in RAM or ROM
ARM GAS  C:\Users\tdoan1\AppData\Local\Temp\ccP2L39x.s 			page 36


1128:Generated_Source\PSoC4/UART.c ****     *
1129:Generated_Source\PSoC4/UART.c ****     * Return:
1130:Generated_Source\PSoC4/UART.c ****     *  None.
1131:Generated_Source\PSoC4/UART.c ****     *
1132:Generated_Source\PSoC4/UART.c ****     * Global Variables:
1133:Generated_Source\PSoC4/UART.c ****     *  UART_initVar - checked to identify that the component has been
1134:Generated_Source\PSoC4/UART.c ****     *     initialized.
1135:Generated_Source\PSoC4/UART.c ****     *
1136:Generated_Source\PSoC4/UART.c ****     * Reentrant:
1137:Generated_Source\PSoC4/UART.c ****     *  No.
1138:Generated_Source\PSoC4/UART.c ****     *
1139:Generated_Source\PSoC4/UART.c ****     * Theory:
1140:Generated_Source\PSoC4/UART.c ****     *  If there is not enough memory in the TX buffer for the entire string, this
1141:Generated_Source\PSoC4/UART.c ****     *  function blocks until the last character of the string is loaded into the
1142:Generated_Source\PSoC4/UART.c ****     *  TX buffer.
1143:Generated_Source\PSoC4/UART.c ****     *
1144:Generated_Source\PSoC4/UART.c ****     *******************************************************************************/
1145:Generated_Source\PSoC4/UART.c ****     void UART_PutString(const char8 string[]) 
1146:Generated_Source\PSoC4/UART.c ****     {
 859              		.loc 1 1146 0
 860              		.cfi_startproc
 861              		@ args = 0, pretend = 0, frame = 0
 862              		@ frame_needed = 0, uses_anonymous_args = 0
 863              	.LVL47:
 864 0000 70B5     		push	{r4, r5, r6, lr}
 865              		.cfi_def_cfa_offset 16
 866              		.cfi_offset 4, -16
 867              		.cfi_offset 5, -12
 868              		.cfi_offset 6, -8
 869              		.cfi_offset 14, -4
 870 0002 0500     		movs	r5, r0
 871              	.LVL48:
1147:Generated_Source\PSoC4/UART.c ****         uint16 bufIndex = 0u;
1148:Generated_Source\PSoC4/UART.c **** 
1149:Generated_Source\PSoC4/UART.c ****         /* If not Initialized then skip this function */
1150:Generated_Source\PSoC4/UART.c ****         if(UART_initVar != 0u)
 872              		.loc 1 1150 0
 873 0004 074B     		ldr	r3, .L75
 874 0006 1B78     		ldrb	r3, [r3]
 875 0008 002B     		cmp	r3, #0
 876 000a 05D1     		bne	.L74
 877 000c 08E0     		b	.L70
 878              	.LVL49:
 879              	.L73:
1151:Generated_Source\PSoC4/UART.c ****         {
1152:Generated_Source\PSoC4/UART.c ****             /* This is a blocking function, it will not exit until all data is sent */
1153:Generated_Source\PSoC4/UART.c ****             while(string[bufIndex] != (char8) 0)
1154:Generated_Source\PSoC4/UART.c ****             {
1155:Generated_Source\PSoC4/UART.c ****                 UART_PutChar((uint8)string[bufIndex]);
 880              		.loc 1 1155 0
 881 000e FFF7FEFF 		bl	UART_PutChar
 882              	.LVL50:
1156:Generated_Source\PSoC4/UART.c ****                 bufIndex++;
 883              		.loc 1 1156 0
 884 0012 0134     		adds	r4, r4, #1
 885              	.LVL51:
 886 0014 A4B2     		uxth	r4, r4
ARM GAS  C:\Users\tdoan1\AppData\Local\Temp\ccP2L39x.s 			page 37


 887              	.LVL52:
 888 0016 00E0     		b	.L71
 889              	.LVL53:
 890              	.L74:
 891 0018 0024     		movs	r4, #0
 892              	.LVL54:
 893              	.L71:
1153:Generated_Source\PSoC4/UART.c ****             {
 894              		.loc 1 1153 0
 895 001a 285D     		ldrb	r0, [r5, r4]
 896 001c 0028     		cmp	r0, #0
 897 001e F6D1     		bne	.L73
 898              	.LVL55:
 899              	.L70:
1157:Generated_Source\PSoC4/UART.c ****             }
1158:Generated_Source\PSoC4/UART.c ****         }
1159:Generated_Source\PSoC4/UART.c ****     }
 900              		.loc 1 1159 0
 901              		@ sp needed
 902              	.LVL56:
 903 0020 70BD     		pop	{r4, r5, r6, pc}
 904              	.L76:
 905 0022 C046     		.align	2
 906              	.L75:
 907 0024 00000000 		.word	.LANCHOR0
 908              		.cfi_endproc
 909              	.LFE20:
 910              		.size	UART_PutString, .-UART_PutString
 911              		.section	.text.UART_PutArray,"ax",%progbits
 912              		.align	2
 913              		.global	UART_PutArray
 914              		.code	16
 915              		.thumb_func
 916              		.type	UART_PutArray, %function
 917              	UART_PutArray:
 918              	.LFB21:
1160:Generated_Source\PSoC4/UART.c **** 
1161:Generated_Source\PSoC4/UART.c **** 
1162:Generated_Source\PSoC4/UART.c ****     /*******************************************************************************
1163:Generated_Source\PSoC4/UART.c ****     * Function Name: UART_PutArray
1164:Generated_Source\PSoC4/UART.c ****     ********************************************************************************
1165:Generated_Source\PSoC4/UART.c ****     *
1166:Generated_Source\PSoC4/UART.c ****     * Summary:
1167:Generated_Source\PSoC4/UART.c ****     *  Places N bytes of data from a memory array into the TX buffer for
1168:Generated_Source\PSoC4/UART.c ****     *  transmission.
1169:Generated_Source\PSoC4/UART.c ****     *
1170:Generated_Source\PSoC4/UART.c ****     * Parameters:
1171:Generated_Source\PSoC4/UART.c ****     *  string[]: Address of the memory array residing in RAM or ROM.
1172:Generated_Source\PSoC4/UART.c ****     *  byteCount: Number of bytes to be transmitted. The type depends on TX Buffer
1173:Generated_Source\PSoC4/UART.c ****     *             Size parameter.
1174:Generated_Source\PSoC4/UART.c ****     *
1175:Generated_Source\PSoC4/UART.c ****     * Return:
1176:Generated_Source\PSoC4/UART.c ****     *  None.
1177:Generated_Source\PSoC4/UART.c ****     *
1178:Generated_Source\PSoC4/UART.c ****     * Global Variables:
1179:Generated_Source\PSoC4/UART.c ****     *  UART_initVar - checked to identify that the component has been
1180:Generated_Source\PSoC4/UART.c ****     *     initialized.
ARM GAS  C:\Users\tdoan1\AppData\Local\Temp\ccP2L39x.s 			page 38


1181:Generated_Source\PSoC4/UART.c ****     *
1182:Generated_Source\PSoC4/UART.c ****     * Reentrant:
1183:Generated_Source\PSoC4/UART.c ****     *  No.
1184:Generated_Source\PSoC4/UART.c ****     *
1185:Generated_Source\PSoC4/UART.c ****     * Theory:
1186:Generated_Source\PSoC4/UART.c ****     *  If there is not enough memory in the TX buffer for the entire string, this
1187:Generated_Source\PSoC4/UART.c ****     *  function blocks until the last character of the string is loaded into the
1188:Generated_Source\PSoC4/UART.c ****     *  TX buffer.
1189:Generated_Source\PSoC4/UART.c ****     *
1190:Generated_Source\PSoC4/UART.c ****     *******************************************************************************/
1191:Generated_Source\PSoC4/UART.c ****     void UART_PutArray(const uint8 string[], uint8 byteCount)
1192:Generated_Source\PSoC4/UART.c ****                                                                     
1193:Generated_Source\PSoC4/UART.c ****     {
 919              		.loc 1 1193 0
 920              		.cfi_startproc
 921              		@ args = 0, pretend = 0, frame = 0
 922              		@ frame_needed = 0, uses_anonymous_args = 0
 923              	.LVL57:
 924 0000 70B5     		push	{r4, r5, r6, lr}
 925              		.cfi_def_cfa_offset 16
 926              		.cfi_offset 4, -16
 927              		.cfi_offset 5, -12
 928              		.cfi_offset 6, -8
 929              		.cfi_offset 14, -4
 930 0002 0600     		movs	r6, r0
 931 0004 0D00     		movs	r5, r1
 932              	.LVL58:
1194:Generated_Source\PSoC4/UART.c ****         uint8 bufIndex = 0u;
1195:Generated_Source\PSoC4/UART.c **** 
1196:Generated_Source\PSoC4/UART.c ****         /* If not Initialized then skip this function */
1197:Generated_Source\PSoC4/UART.c ****         if(UART_initVar != 0u)
 933              		.loc 1 1197 0
 934 0006 074B     		ldr	r3, .L82
 935 0008 1B78     		ldrb	r3, [r3]
 936 000a 002B     		cmp	r3, #0
 937 000c 06D1     		bne	.L81
 938 000e 08E0     		b	.L77
 939              	.LVL59:
 940              	.L80:
1198:Generated_Source\PSoC4/UART.c ****         {
1199:Generated_Source\PSoC4/UART.c ****             while(bufIndex < byteCount)
1200:Generated_Source\PSoC4/UART.c ****             {
1201:Generated_Source\PSoC4/UART.c ****                 UART_PutChar(string[bufIndex]);
 941              		.loc 1 1201 0
 942 0010 305D     		ldrb	r0, [r6, r4]
 943 0012 FFF7FEFF 		bl	UART_PutChar
 944              	.LVL60:
1202:Generated_Source\PSoC4/UART.c ****                 bufIndex++;
 945              		.loc 1 1202 0
 946 0016 0134     		adds	r4, r4, #1
 947              	.LVL61:
 948 0018 E4B2     		uxtb	r4, r4
 949              	.LVL62:
 950 001a 00E0     		b	.L78
 951              	.LVL63:
 952              	.L81:
 953 001c 0024     		movs	r4, #0
ARM GAS  C:\Users\tdoan1\AppData\Local\Temp\ccP2L39x.s 			page 39


 954              	.LVL64:
 955              	.L78:
1199:Generated_Source\PSoC4/UART.c ****             {
 956              		.loc 1 1199 0
 957 001e AC42     		cmp	r4, r5
 958 0020 F6D3     		bcc	.L80
 959              	.LVL65:
 960              	.L77:
1203:Generated_Source\PSoC4/UART.c ****             }
1204:Generated_Source\PSoC4/UART.c ****         }
1205:Generated_Source\PSoC4/UART.c ****     }
 961              		.loc 1 1205 0
 962              		@ sp needed
 963              	.LVL66:
 964 0022 70BD     		pop	{r4, r5, r6, pc}
 965              	.L83:
 966              		.align	2
 967              	.L82:
 968 0024 00000000 		.word	.LANCHOR0
 969              		.cfi_endproc
 970              	.LFE21:
 971              		.size	UART_PutArray, .-UART_PutArray
 972              		.section	.text.UART_PutCRLF,"ax",%progbits
 973              		.align	2
 974              		.global	UART_PutCRLF
 975              		.code	16
 976              		.thumb_func
 977              		.type	UART_PutCRLF, %function
 978              	UART_PutCRLF:
 979              	.LFB22:
1206:Generated_Source\PSoC4/UART.c **** 
1207:Generated_Source\PSoC4/UART.c **** 
1208:Generated_Source\PSoC4/UART.c ****     /*******************************************************************************
1209:Generated_Source\PSoC4/UART.c ****     * Function Name: UART_PutCRLF
1210:Generated_Source\PSoC4/UART.c ****     ********************************************************************************
1211:Generated_Source\PSoC4/UART.c ****     *
1212:Generated_Source\PSoC4/UART.c ****     * Summary:
1213:Generated_Source\PSoC4/UART.c ****     *  Writes a byte of data followed by a carriage return (0x0D) and line feed
1214:Generated_Source\PSoC4/UART.c ****     *  (0x0A) to the transmit buffer.
1215:Generated_Source\PSoC4/UART.c ****     *
1216:Generated_Source\PSoC4/UART.c ****     * Parameters:
1217:Generated_Source\PSoC4/UART.c ****     *  txDataByte: Data byte to transmit before the carriage return and line feed.
1218:Generated_Source\PSoC4/UART.c ****     *
1219:Generated_Source\PSoC4/UART.c ****     * Return:
1220:Generated_Source\PSoC4/UART.c ****     *  None.
1221:Generated_Source\PSoC4/UART.c ****     *
1222:Generated_Source\PSoC4/UART.c ****     * Global Variables:
1223:Generated_Source\PSoC4/UART.c ****     *  UART_initVar - checked to identify that the component has been
1224:Generated_Source\PSoC4/UART.c ****     *     initialized.
1225:Generated_Source\PSoC4/UART.c ****     *
1226:Generated_Source\PSoC4/UART.c ****     * Reentrant:
1227:Generated_Source\PSoC4/UART.c ****     *  No.
1228:Generated_Source\PSoC4/UART.c ****     *
1229:Generated_Source\PSoC4/UART.c ****     *******************************************************************************/
1230:Generated_Source\PSoC4/UART.c ****     void UART_PutCRLF(uint8 txDataByte) 
1231:Generated_Source\PSoC4/UART.c ****     {
 980              		.loc 1 1231 0
ARM GAS  C:\Users\tdoan1\AppData\Local\Temp\ccP2L39x.s 			page 40


 981              		.cfi_startproc
 982              		@ args = 0, pretend = 0, frame = 0
 983              		@ frame_needed = 0, uses_anonymous_args = 0
 984              	.LVL67:
 985 0000 10B5     		push	{r4, lr}
 986              		.cfi_def_cfa_offset 8
 987              		.cfi_offset 4, -8
 988              		.cfi_offset 14, -4
1232:Generated_Source\PSoC4/UART.c ****         /* If not Initialized then skip this function */
1233:Generated_Source\PSoC4/UART.c ****         if(UART_initVar != 0u)
 989              		.loc 1 1233 0
 990 0002 064B     		ldr	r3, .L86
 991 0004 1B78     		ldrb	r3, [r3]
 992 0006 002B     		cmp	r3, #0
 993 0008 07D0     		beq	.L84
1234:Generated_Source\PSoC4/UART.c ****         {
1235:Generated_Source\PSoC4/UART.c ****             UART_PutChar(txDataByte);
 994              		.loc 1 1235 0
 995 000a FFF7FEFF 		bl	UART_PutChar
 996              	.LVL68:
1236:Generated_Source\PSoC4/UART.c ****             UART_PutChar(0x0Du);
 997              		.loc 1 1236 0
 998 000e 0D20     		movs	r0, #13
 999 0010 FFF7FEFF 		bl	UART_PutChar
 1000              	.LVL69:
1237:Generated_Source\PSoC4/UART.c ****             UART_PutChar(0x0Au);
 1001              		.loc 1 1237 0
 1002 0014 0A20     		movs	r0, #10
 1003 0016 FFF7FEFF 		bl	UART_PutChar
 1004              	.LVL70:
 1005              	.L84:
1238:Generated_Source\PSoC4/UART.c ****         }
1239:Generated_Source\PSoC4/UART.c ****     }
 1006              		.loc 1 1239 0
 1007              		@ sp needed
 1008 001a 10BD     		pop	{r4, pc}
 1009              	.L87:
 1010              		.align	2
 1011              	.L86:
 1012 001c 00000000 		.word	.LANCHOR0
 1013              		.cfi_endproc
 1014              	.LFE22:
 1015              		.size	UART_PutCRLF, .-UART_PutCRLF
 1016              		.section	.text.UART_GetTxBufferSize,"ax",%progbits
 1017              		.align	2
 1018              		.global	UART_GetTxBufferSize
 1019              		.code	16
 1020              		.thumb_func
 1021              		.type	UART_GetTxBufferSize, %function
 1022              	UART_GetTxBufferSize:
 1023              	.LFB23:
1240:Generated_Source\PSoC4/UART.c **** 
1241:Generated_Source\PSoC4/UART.c **** 
1242:Generated_Source\PSoC4/UART.c ****     /*******************************************************************************
1243:Generated_Source\PSoC4/UART.c ****     * Function Name: UART_GetTxBufferSize
1244:Generated_Source\PSoC4/UART.c ****     ********************************************************************************
1245:Generated_Source\PSoC4/UART.c ****     *
ARM GAS  C:\Users\tdoan1\AppData\Local\Temp\ccP2L39x.s 			page 41


1246:Generated_Source\PSoC4/UART.c ****     * Summary:
1247:Generated_Source\PSoC4/UART.c ****     *  Returns the number of bytes in the TX buffer which are waiting to be 
1248:Generated_Source\PSoC4/UART.c ****     *  transmitted.
1249:Generated_Source\PSoC4/UART.c ****     *  * TX software buffer is disabled (TX Buffer Size parameter is equal to 4): 
1250:Generated_Source\PSoC4/UART.c ****     *    returns 0 for empty TX FIFO, 1 for not full TX FIFO or 4 for full TX FIFO.
1251:Generated_Source\PSoC4/UART.c ****     *  * TX software buffer is enabled: returns the number of bytes in the TX 
1252:Generated_Source\PSoC4/UART.c ****     *    software buffer which are waiting to be transmitted. Bytes available in the
1253:Generated_Source\PSoC4/UART.c ****     *    TX FIFO do not count.
1254:Generated_Source\PSoC4/UART.c ****     *
1255:Generated_Source\PSoC4/UART.c ****     * Parameters:
1256:Generated_Source\PSoC4/UART.c ****     *  None.
1257:Generated_Source\PSoC4/UART.c ****     *
1258:Generated_Source\PSoC4/UART.c ****     * Return:
1259:Generated_Source\PSoC4/UART.c ****     *  Number of bytes used in the TX buffer. Return value type depends on the TX 
1260:Generated_Source\PSoC4/UART.c ****     *  Buffer Size parameter.
1261:Generated_Source\PSoC4/UART.c ****     *
1262:Generated_Source\PSoC4/UART.c ****     * Global Variables:
1263:Generated_Source\PSoC4/UART.c ****     *  UART_txBufferWrite - used to calculate left space.
1264:Generated_Source\PSoC4/UART.c ****     *  UART_txBufferRead - used to calculate left space.
1265:Generated_Source\PSoC4/UART.c ****     *
1266:Generated_Source\PSoC4/UART.c ****     * Reentrant:
1267:Generated_Source\PSoC4/UART.c ****     *  No.
1268:Generated_Source\PSoC4/UART.c ****     *
1269:Generated_Source\PSoC4/UART.c ****     * Theory:
1270:Generated_Source\PSoC4/UART.c ****     *  Allows the user to find out how full the TX Buffer is.
1271:Generated_Source\PSoC4/UART.c ****     *
1272:Generated_Source\PSoC4/UART.c ****     *******************************************************************************/
1273:Generated_Source\PSoC4/UART.c ****     uint8 UART_GetTxBufferSize(void)
1274:Generated_Source\PSoC4/UART.c ****                                                             
1275:Generated_Source\PSoC4/UART.c ****     {
 1024              		.loc 1 1275 0
 1025              		.cfi_startproc
 1026              		@ args = 0, pretend = 0, frame = 0
 1027              		@ frame_needed = 0, uses_anonymous_args = 0
 1028 0000 10B5     		push	{r4, lr}
 1029              		.cfi_def_cfa_offset 8
 1030              		.cfi_offset 4, -8
 1031              		.cfi_offset 14, -4
1276:Generated_Source\PSoC4/UART.c ****         uint8 size;
1277:Generated_Source\PSoC4/UART.c **** 
1278:Generated_Source\PSoC4/UART.c ****     #if (UART_TX_INTERRUPT_ENABLED)
1279:Generated_Source\PSoC4/UART.c **** 
1280:Generated_Source\PSoC4/UART.c ****         /* Protect variables that could change on interrupt. */
1281:Generated_Source\PSoC4/UART.c ****         UART_DisableTxInt();
 1032              		.loc 1 1281 0
 1033 0002 0220     		movs	r0, #2
 1034 0004 FFF7FEFF 		bl	CyIntDisable
 1035              	.LVL71:
1282:Generated_Source\PSoC4/UART.c **** 
1283:Generated_Source\PSoC4/UART.c ****         if(UART_txBufferRead == UART_txBufferWrite)
 1036              		.loc 1 1283 0
 1037 0008 0D4B     		ldr	r3, .L92
 1038 000a 5A78     		ldrb	r2, [r3, #1]
 1039 000c D2B2     		uxtb	r2, r2
 1040 000e 9B78     		ldrb	r3, [r3, #2]
 1041 0010 9A42     		cmp	r2, r3
 1042 0012 0FD0     		beq	.L91
ARM GAS  C:\Users\tdoan1\AppData\Local\Temp\ccP2L39x.s 			page 42


1284:Generated_Source\PSoC4/UART.c ****         {
1285:Generated_Source\PSoC4/UART.c ****             size = 0u;
1286:Generated_Source\PSoC4/UART.c ****         }
1287:Generated_Source\PSoC4/UART.c ****         else if(UART_txBufferRead < UART_txBufferWrite)
 1043              		.loc 1 1287 0
 1044 0014 0A4A     		ldr	r2, .L92
 1045 0016 5278     		ldrb	r2, [r2, #1]
 1046 0018 D2B2     		uxtb	r2, r2
 1047 001a 9342     		cmp	r3, r2
 1048 001c 04D9     		bls	.L90
1288:Generated_Source\PSoC4/UART.c ****         {
1289:Generated_Source\PSoC4/UART.c ****             size = (UART_txBufferWrite - UART_txBufferRead);
 1049              		.loc 1 1289 0
 1050 001e 084A     		ldr	r2, .L92
 1051 0020 5478     		ldrb	r4, [r2, #1]
 1052 0022 1B1B     		subs	r3, r3, r4
 1053 0024 DCB2     		uxtb	r4, r3
 1054              	.LVL72:
 1055 0026 06E0     		b	.L89
 1056              	.LVL73:
 1057              	.L90:
1290:Generated_Source\PSoC4/UART.c ****         }
1291:Generated_Source\PSoC4/UART.c ****         else
1292:Generated_Source\PSoC4/UART.c ****         {
1293:Generated_Source\PSoC4/UART.c ****             size = (UART_TX_BUFFER_SIZE - UART_txBufferRead) +
 1058              		.loc 1 1293 0
 1059 0028 054A     		ldr	r2, .L92
 1060 002a 5478     		ldrb	r4, [r2, #1]
 1061 002c 1C1B     		subs	r4, r3, r4
 1062 002e 2834     		adds	r4, r4, #40
 1063 0030 E4B2     		uxtb	r4, r4
 1064              	.LVL74:
 1065 0032 00E0     		b	.L89
 1066              	.LVL75:
 1067              	.L91:
1285:Generated_Source\PSoC4/UART.c ****         }
 1068              		.loc 1 1285 0
 1069 0034 0024     		movs	r4, #0
 1070              	.L89:
 1071              	.LVL76:
1294:Generated_Source\PSoC4/UART.c ****                     UART_txBufferWrite;
1295:Generated_Source\PSoC4/UART.c ****         }
1296:Generated_Source\PSoC4/UART.c **** 
1297:Generated_Source\PSoC4/UART.c ****         UART_EnableTxInt();
 1072              		.loc 1 1297 0
 1073 0036 0220     		movs	r0, #2
 1074 0038 FFF7FEFF 		bl	CyIntEnable
 1075              	.LVL77:
1298:Generated_Source\PSoC4/UART.c **** 
1299:Generated_Source\PSoC4/UART.c ****     #else
1300:Generated_Source\PSoC4/UART.c **** 
1301:Generated_Source\PSoC4/UART.c ****         size = UART_TXSTATUS_REG;
1302:Generated_Source\PSoC4/UART.c **** 
1303:Generated_Source\PSoC4/UART.c ****         /* Is the fifo is full. */
1304:Generated_Source\PSoC4/UART.c ****         if((size & UART_TX_STS_FIFO_FULL) != 0u)
1305:Generated_Source\PSoC4/UART.c ****         {
1306:Generated_Source\PSoC4/UART.c ****             size = UART_FIFO_LENGTH;
ARM GAS  C:\Users\tdoan1\AppData\Local\Temp\ccP2L39x.s 			page 43


1307:Generated_Source\PSoC4/UART.c ****         }
1308:Generated_Source\PSoC4/UART.c ****         else if((size & UART_TX_STS_FIFO_EMPTY) != 0u)
1309:Generated_Source\PSoC4/UART.c ****         {
1310:Generated_Source\PSoC4/UART.c ****             size = 0u;
1311:Generated_Source\PSoC4/UART.c ****         }
1312:Generated_Source\PSoC4/UART.c ****         else
1313:Generated_Source\PSoC4/UART.c ****         {
1314:Generated_Source\PSoC4/UART.c ****             /* We only know there is data in the fifo. */
1315:Generated_Source\PSoC4/UART.c ****             size = 1u;
1316:Generated_Source\PSoC4/UART.c ****         }
1317:Generated_Source\PSoC4/UART.c **** 
1318:Generated_Source\PSoC4/UART.c ****     #endif /* (UART_TX_INTERRUPT_ENABLED) */
1319:Generated_Source\PSoC4/UART.c **** 
1320:Generated_Source\PSoC4/UART.c ****     return(size);
1321:Generated_Source\PSoC4/UART.c ****     }
 1076              		.loc 1 1321 0
 1077 003c 2000     		movs	r0, r4
 1078              		@ sp needed
 1079              	.LVL78:
 1080 003e 10BD     		pop	{r4, pc}
 1081              	.L93:
 1082              		.align	2
 1083              	.L92:
 1084 0040 00000000 		.word	.LANCHOR0
 1085              		.cfi_endproc
 1086              	.LFE23:
 1087              		.size	UART_GetTxBufferSize, .-UART_GetTxBufferSize
 1088              		.section	.text.UART_ClearTxBuffer,"ax",%progbits
 1089              		.align	2
 1090              		.global	UART_ClearTxBuffer
 1091              		.code	16
 1092              		.thumb_func
 1093              		.type	UART_ClearTxBuffer, %function
 1094              	UART_ClearTxBuffer:
 1095              	.LFB24:
1322:Generated_Source\PSoC4/UART.c **** 
1323:Generated_Source\PSoC4/UART.c **** 
1324:Generated_Source\PSoC4/UART.c ****     /*******************************************************************************
1325:Generated_Source\PSoC4/UART.c ****     * Function Name: UART_ClearTxBuffer
1326:Generated_Source\PSoC4/UART.c ****     ********************************************************************************
1327:Generated_Source\PSoC4/UART.c ****     *
1328:Generated_Source\PSoC4/UART.c ****     * Summary:
1329:Generated_Source\PSoC4/UART.c ****     *  Clears all data from the TX buffer and hardware TX FIFO.
1330:Generated_Source\PSoC4/UART.c ****     *
1331:Generated_Source\PSoC4/UART.c ****     * Parameters:
1332:Generated_Source\PSoC4/UART.c ****     *  None.
1333:Generated_Source\PSoC4/UART.c ****     *
1334:Generated_Source\PSoC4/UART.c ****     * Return:
1335:Generated_Source\PSoC4/UART.c ****     *  None.
1336:Generated_Source\PSoC4/UART.c ****     *
1337:Generated_Source\PSoC4/UART.c ****     * Global Variables:
1338:Generated_Source\PSoC4/UART.c ****     *  UART_txBufferWrite - cleared to zero.
1339:Generated_Source\PSoC4/UART.c ****     *  UART_txBufferRead - cleared to zero.
1340:Generated_Source\PSoC4/UART.c ****     *
1341:Generated_Source\PSoC4/UART.c ****     * Reentrant:
1342:Generated_Source\PSoC4/UART.c ****     *  No.
1343:Generated_Source\PSoC4/UART.c ****     *
ARM GAS  C:\Users\tdoan1\AppData\Local\Temp\ccP2L39x.s 			page 44


1344:Generated_Source\PSoC4/UART.c ****     * Theory:
1345:Generated_Source\PSoC4/UART.c ****     *  Setting the pointers to zero makes the system believe there is no data to
1346:Generated_Source\PSoC4/UART.c ****     *  read and writing will resume at address 0 overwriting any data that may have
1347:Generated_Source\PSoC4/UART.c ****     *  remained in the RAM.
1348:Generated_Source\PSoC4/UART.c ****     *
1349:Generated_Source\PSoC4/UART.c ****     * Side Effects:
1350:Generated_Source\PSoC4/UART.c ****     *  Data waiting in the transmit buffer is not sent; a byte that is currently
1351:Generated_Source\PSoC4/UART.c ****     *  transmitting finishes transmitting.
1352:Generated_Source\PSoC4/UART.c ****     *
1353:Generated_Source\PSoC4/UART.c ****     *******************************************************************************/
1354:Generated_Source\PSoC4/UART.c ****     void UART_ClearTxBuffer(void) 
1355:Generated_Source\PSoC4/UART.c ****     {
 1096              		.loc 1 1355 0
 1097              		.cfi_startproc
 1098              		@ args = 0, pretend = 0, frame = 0
 1099              		@ frame_needed = 0, uses_anonymous_args = 0
 1100 0000 10B5     		push	{r4, lr}
 1101              		.cfi_def_cfa_offset 8
 1102              		.cfi_offset 4, -8
 1103              		.cfi_offset 14, -4
1356:Generated_Source\PSoC4/UART.c ****         uint8 enableInterrupts;
1357:Generated_Source\PSoC4/UART.c **** 
1358:Generated_Source\PSoC4/UART.c ****         enableInterrupts = CyEnterCriticalSection();
 1104              		.loc 1 1358 0
 1105 0002 FFF7FEFF 		bl	CyEnterCriticalSection
 1106              	.LVL79:
1359:Generated_Source\PSoC4/UART.c ****         /* Clear the HW FIFO */
1360:Generated_Source\PSoC4/UART.c ****         UART_TXDATA_AUX_CTL_REG |= (uint8)  UART_TX_FIFO_CLR;
 1107              		.loc 1 1360 0
 1108 0006 0B4A     		ldr	r2, .L95
 1109 0008 1178     		ldrb	r1, [r2]
 1110 000a 0123     		movs	r3, #1
 1111 000c 0B43     		orrs	r3, r1
 1112 000e DBB2     		uxtb	r3, r3
 1113 0010 1370     		strb	r3, [r2]
1361:Generated_Source\PSoC4/UART.c ****         UART_TXDATA_AUX_CTL_REG &= (uint8) ~UART_TX_FIFO_CLR;
 1114              		.loc 1 1361 0
 1115 0012 1378     		ldrb	r3, [r2]
 1116 0014 0121     		movs	r1, #1
 1117 0016 8B43     		bics	r3, r1
 1118 0018 1370     		strb	r3, [r2]
1362:Generated_Source\PSoC4/UART.c ****         CyExitCriticalSection(enableInterrupts);
 1119              		.loc 1 1362 0
 1120 001a FFF7FEFF 		bl	CyExitCriticalSection
 1121              	.LVL80:
1363:Generated_Source\PSoC4/UART.c **** 
1364:Generated_Source\PSoC4/UART.c ****     #if (UART_TX_INTERRUPT_ENABLED)
1365:Generated_Source\PSoC4/UART.c **** 
1366:Generated_Source\PSoC4/UART.c ****         /* Protect variables that could change on interrupt. */
1367:Generated_Source\PSoC4/UART.c ****         UART_DisableTxInt();
 1122              		.loc 1 1367 0
 1123 001e 0220     		movs	r0, #2
 1124 0020 FFF7FEFF 		bl	CyIntDisable
 1125              	.LVL81:
1368:Generated_Source\PSoC4/UART.c **** 
1369:Generated_Source\PSoC4/UART.c ****         UART_txBufferRead = 0u;
 1126              		.loc 1 1369 0
ARM GAS  C:\Users\tdoan1\AppData\Local\Temp\ccP2L39x.s 			page 45


 1127 0024 044B     		ldr	r3, .L95+4
 1128 0026 0022     		movs	r2, #0
 1129 0028 5A70     		strb	r2, [r3, #1]
1370:Generated_Source\PSoC4/UART.c ****         UART_txBufferWrite = 0u;
 1130              		.loc 1 1370 0
 1131 002a 9A70     		strb	r2, [r3, #2]
1371:Generated_Source\PSoC4/UART.c **** 
1372:Generated_Source\PSoC4/UART.c ****         /* Enable Tx interrupt. */
1373:Generated_Source\PSoC4/UART.c ****         UART_EnableTxInt();
 1132              		.loc 1 1373 0
 1133 002c 0220     		movs	r0, #2
 1134 002e FFF7FEFF 		bl	CyIntEnable
 1135              	.LVL82:
1374:Generated_Source\PSoC4/UART.c **** 
1375:Generated_Source\PSoC4/UART.c ****     #endif /* (UART_TX_INTERRUPT_ENABLED) */
1376:Generated_Source\PSoC4/UART.c ****     }
 1136              		.loc 1 1376 0
 1137              		@ sp needed
 1138 0032 10BD     		pop	{r4, pc}
 1139              	.L96:
 1140              		.align	2
 1141              	.L95:
 1142 0034 93000F40 		.word	1074725011
 1143 0038 00000000 		.word	.LANCHOR0
 1144              		.cfi_endproc
 1145              	.LFE24:
 1146              		.size	UART_ClearTxBuffer, .-UART_ClearTxBuffer
 1147              		.section	.text.UART_SendBreak,"ax",%progbits
 1148              		.align	2
 1149              		.global	UART_SendBreak
 1150              		.code	16
 1151              		.thumb_func
 1152              		.type	UART_SendBreak, %function
 1153              	UART_SendBreak:
 1154              	.LFB25:
1377:Generated_Source\PSoC4/UART.c **** 
1378:Generated_Source\PSoC4/UART.c **** 
1379:Generated_Source\PSoC4/UART.c ****     /*******************************************************************************
1380:Generated_Source\PSoC4/UART.c ****     * Function Name: UART_SendBreak
1381:Generated_Source\PSoC4/UART.c ****     ********************************************************************************
1382:Generated_Source\PSoC4/UART.c ****     *
1383:Generated_Source\PSoC4/UART.c ****     * Summary:
1384:Generated_Source\PSoC4/UART.c ****     *  Transmits a break signal on the bus.
1385:Generated_Source\PSoC4/UART.c ****     *
1386:Generated_Source\PSoC4/UART.c ****     * Parameters:
1387:Generated_Source\PSoC4/UART.c ****     *  uint8 retMode:  Send Break return mode. See the following table for options.
1388:Generated_Source\PSoC4/UART.c ****     *   UART_SEND_BREAK - Initialize registers for break, send the Break
1389:Generated_Source\PSoC4/UART.c ****     *       signal and return immediately.
1390:Generated_Source\PSoC4/UART.c ****     *   UART_WAIT_FOR_COMPLETE_REINIT - Wait until break transmission is
1391:Generated_Source\PSoC4/UART.c ****     *       complete, reinitialize registers to normal transmission mode then return
1392:Generated_Source\PSoC4/UART.c ****     *   UART_REINIT - Reinitialize registers to normal transmission mode
1393:Generated_Source\PSoC4/UART.c ****     *       then return.
1394:Generated_Source\PSoC4/UART.c ****     *   UART_SEND_WAIT_REINIT - Performs both options: 
1395:Generated_Source\PSoC4/UART.c ****     *      UART_SEND_BREAK and UART_WAIT_FOR_COMPLETE_REINIT.
1396:Generated_Source\PSoC4/UART.c ****     *      This option is recommended for most cases.
1397:Generated_Source\PSoC4/UART.c ****     *
1398:Generated_Source\PSoC4/UART.c ****     * Return:
ARM GAS  C:\Users\tdoan1\AppData\Local\Temp\ccP2L39x.s 			page 46


1399:Generated_Source\PSoC4/UART.c ****     *  None.
1400:Generated_Source\PSoC4/UART.c ****     *
1401:Generated_Source\PSoC4/UART.c ****     * Global Variables:
1402:Generated_Source\PSoC4/UART.c ****     *  UART_initVar - checked to identify that the component has been
1403:Generated_Source\PSoC4/UART.c ****     *     initialized.
1404:Generated_Source\PSoC4/UART.c ****     *  txPeriod - static variable, used for keeping TX period configuration.
1405:Generated_Source\PSoC4/UART.c ****     *
1406:Generated_Source\PSoC4/UART.c ****     * Reentrant:
1407:Generated_Source\PSoC4/UART.c ****     *  No.
1408:Generated_Source\PSoC4/UART.c ****     *
1409:Generated_Source\PSoC4/UART.c ****     * Theory:
1410:Generated_Source\PSoC4/UART.c ****     *  SendBreak function initializes registers to send 13-bit break signal. It is
1411:Generated_Source\PSoC4/UART.c ****     *  important to return the registers configuration to normal for continue 8-bit
1412:Generated_Source\PSoC4/UART.c ****     *  operation.
1413:Generated_Source\PSoC4/UART.c ****     *  There are 3 variants for this API usage:
1414:Generated_Source\PSoC4/UART.c ****     *  1) SendBreak(3) - function will send the Break signal and take care on the
1415:Generated_Source\PSoC4/UART.c ****     *     configuration returning. Function will block CPU until transmission
1416:Generated_Source\PSoC4/UART.c ****     *     complete.
1417:Generated_Source\PSoC4/UART.c ****     *  2) User may want to use blocking time if UART configured to the low speed
1418:Generated_Source\PSoC4/UART.c ****     *     operation
1419:Generated_Source\PSoC4/UART.c ****     *     Example for this case:
1420:Generated_Source\PSoC4/UART.c ****     *     SendBreak(0);     - initialize Break signal transmission
1421:Generated_Source\PSoC4/UART.c ****     *         Add your code here to use CPU time
1422:Generated_Source\PSoC4/UART.c ****     *     SendBreak(1);     - complete Break operation
1423:Generated_Source\PSoC4/UART.c ****     *  3) Same to 2) but user may want to initialize and use the interrupt to
1424:Generated_Source\PSoC4/UART.c ****     *     complete break operation.
1425:Generated_Source\PSoC4/UART.c ****     *     Example for this case:
1426:Generated_Source\PSoC4/UART.c ****     *     Initialize TX interrupt with "TX - On TX Complete" parameter
1427:Generated_Source\PSoC4/UART.c ****     *     SendBreak(0);     - initialize Break signal transmission
1428:Generated_Source\PSoC4/UART.c ****     *         Add your code here to use CPU time
1429:Generated_Source\PSoC4/UART.c ****     *     When interrupt appear with UART_TX_STS_COMPLETE status:
1430:Generated_Source\PSoC4/UART.c ****     *     SendBreak(2);     - complete Break operation
1431:Generated_Source\PSoC4/UART.c ****     *
1432:Generated_Source\PSoC4/UART.c ****     * Side Effects:
1433:Generated_Source\PSoC4/UART.c ****     *  The UART_SendBreak() function initializes registers to send a
1434:Generated_Source\PSoC4/UART.c ****     *  break signal.
1435:Generated_Source\PSoC4/UART.c ****     *  Break signal length depends on the break signal bits configuration.
1436:Generated_Source\PSoC4/UART.c ****     *  The register configuration should be reinitialized before normal 8-bit
1437:Generated_Source\PSoC4/UART.c ****     *  communication can continue.
1438:Generated_Source\PSoC4/UART.c ****     *
1439:Generated_Source\PSoC4/UART.c ****     *******************************************************************************/
1440:Generated_Source\PSoC4/UART.c ****     void UART_SendBreak(uint8 retMode) 
1441:Generated_Source\PSoC4/UART.c ****     {
 1155              		.loc 1 1441 0
 1156              		.cfi_startproc
 1157              		@ args = 0, pretend = 0, frame = 0
 1158              		@ frame_needed = 0, uses_anonymous_args = 0
 1159              		@ link register save eliminated.
 1160              	.LVL83:
1442:Generated_Source\PSoC4/UART.c **** 
1443:Generated_Source\PSoC4/UART.c ****         /* If not Initialized then skip this function*/
1444:Generated_Source\PSoC4/UART.c ****         if(UART_initVar != 0u)
 1161              		.loc 1 1444 0
 1162 0000 134B     		ldr	r3, .L104
 1163 0002 1B78     		ldrb	r3, [r3]
 1164 0004 002B     		cmp	r3, #0
 1165 0006 21D0     		beq	.L97
ARM GAS  C:\Users\tdoan1\AppData\Local\Temp\ccP2L39x.s 			page 47


 1166              	.LBB2:
1445:Generated_Source\PSoC4/UART.c ****         {
1446:Generated_Source\PSoC4/UART.c ****             /* Set the Counter to 13-bits and transmit a 00 byte */
1447:Generated_Source\PSoC4/UART.c ****             /* When that is done then reset the counter value back */
1448:Generated_Source\PSoC4/UART.c ****             uint8 tmpStat;
1449:Generated_Source\PSoC4/UART.c **** 
1450:Generated_Source\PSoC4/UART.c ****         #if(UART_HD_ENABLED) /* Half Duplex mode*/
1451:Generated_Source\PSoC4/UART.c **** 
1452:Generated_Source\PSoC4/UART.c ****             if( (retMode == UART_SEND_BREAK) ||
1453:Generated_Source\PSoC4/UART.c ****                 (retMode == UART_SEND_WAIT_REINIT ) )
1454:Generated_Source\PSoC4/UART.c ****             {
1455:Generated_Source\PSoC4/UART.c ****                 /* CTRL_HD_SEND_BREAK - sends break bits in HD mode */
1456:Generated_Source\PSoC4/UART.c ****                 UART_WriteControlRegister(UART_ReadControlRegister() |
1457:Generated_Source\PSoC4/UART.c ****                                                       UART_CTRL_HD_SEND_BREAK);
1458:Generated_Source\PSoC4/UART.c ****                 /* Send zeros */
1459:Generated_Source\PSoC4/UART.c ****                 UART_TXDATA_REG = 0u;
1460:Generated_Source\PSoC4/UART.c **** 
1461:Generated_Source\PSoC4/UART.c ****                 do /* Wait until transmit starts */
1462:Generated_Source\PSoC4/UART.c ****                 {
1463:Generated_Source\PSoC4/UART.c ****                     tmpStat = UART_TXSTATUS_REG;
1464:Generated_Source\PSoC4/UART.c ****                 }
1465:Generated_Source\PSoC4/UART.c ****                 while((tmpStat & UART_TX_STS_FIFO_EMPTY) != 0u);
1466:Generated_Source\PSoC4/UART.c ****             }
1467:Generated_Source\PSoC4/UART.c **** 
1468:Generated_Source\PSoC4/UART.c ****             if( (retMode == UART_WAIT_FOR_COMPLETE_REINIT) ||
1469:Generated_Source\PSoC4/UART.c ****                 (retMode == UART_SEND_WAIT_REINIT) )
1470:Generated_Source\PSoC4/UART.c ****             {
1471:Generated_Source\PSoC4/UART.c ****                 do /* Wait until transmit complete */
1472:Generated_Source\PSoC4/UART.c ****                 {
1473:Generated_Source\PSoC4/UART.c ****                     tmpStat = UART_TXSTATUS_REG;
1474:Generated_Source\PSoC4/UART.c ****                 }
1475:Generated_Source\PSoC4/UART.c ****                 while(((uint8)~tmpStat & UART_TX_STS_COMPLETE) != 0u);
1476:Generated_Source\PSoC4/UART.c ****             }
1477:Generated_Source\PSoC4/UART.c **** 
1478:Generated_Source\PSoC4/UART.c ****             if( (retMode == UART_WAIT_FOR_COMPLETE_REINIT) ||
1479:Generated_Source\PSoC4/UART.c ****                 (retMode == UART_REINIT) ||
1480:Generated_Source\PSoC4/UART.c ****                 (retMode == UART_SEND_WAIT_REINIT) )
1481:Generated_Source\PSoC4/UART.c ****             {
1482:Generated_Source\PSoC4/UART.c ****                 UART_WriteControlRegister(UART_ReadControlRegister() &
1483:Generated_Source\PSoC4/UART.c ****                                               (uint8)~UART_CTRL_HD_SEND_BREAK);
1484:Generated_Source\PSoC4/UART.c ****             }
1485:Generated_Source\PSoC4/UART.c **** 
1486:Generated_Source\PSoC4/UART.c ****         #else /* UART_HD_ENABLED Full Duplex mode */
1487:Generated_Source\PSoC4/UART.c **** 
1488:Generated_Source\PSoC4/UART.c ****             static uint8 txPeriod;
1489:Generated_Source\PSoC4/UART.c **** 
1490:Generated_Source\PSoC4/UART.c ****             if( (retMode == UART_SEND_BREAK) ||
 1167              		.loc 1 1490 0
 1168 0008 0028     		cmp	r0, #0
 1169 000a 01D0     		beq	.L99
 1170              		.loc 1 1490 0 is_stmt 0 discriminator 1
 1171 000c 0328     		cmp	r0, #3
 1172 000e 0CD1     		bne	.L100
 1173              	.L99:
1491:Generated_Source\PSoC4/UART.c ****                 (retMode == UART_SEND_WAIT_REINIT) )
1492:Generated_Source\PSoC4/UART.c ****             {
1493:Generated_Source\PSoC4/UART.c ****                 /* CTRL_HD_SEND_BREAK - skip to send parity bit at Break signal in Full Duplex mode
ARM GAS  C:\Users\tdoan1\AppData\Local\Temp\ccP2L39x.s 			page 48


1494:Generated_Source\PSoC4/UART.c ****                 #if( (UART_PARITY_TYPE != UART__B_UART__NONE_REVB) || \
1495:Generated_Source\PSoC4/UART.c ****                                     (UART_PARITY_TYPE_SW != 0u) )
1496:Generated_Source\PSoC4/UART.c ****                     UART_WriteControlRegister(UART_ReadControlRegister() |
1497:Generated_Source\PSoC4/UART.c ****                                                           UART_CTRL_HD_SEND_BREAK);
1498:Generated_Source\PSoC4/UART.c ****                 #endif /* End UART_PARITY_TYPE != UART__B_UART__NONE_REVB  */
1499:Generated_Source\PSoC4/UART.c **** 
1500:Generated_Source\PSoC4/UART.c ****                 #if(UART_TXCLKGEN_DP)
1501:Generated_Source\PSoC4/UART.c ****                     txPeriod = UART_TXBITCLKTX_COMPLETE_REG;
 1174              		.loc 1 1501 0 is_stmt 1
 1175 0010 104B     		ldr	r3, .L104+4
 1176 0012 1978     		ldrb	r1, [r3]
 1177 0014 0E4A     		ldr	r2, .L104
 1178 0016 D170     		strb	r1, [r2, #3]
1502:Generated_Source\PSoC4/UART.c ****                     UART_TXBITCLKTX_COMPLETE_REG = UART_TXBITCTR_BREAKBITS;
 1179              		.loc 1 1502 0
 1180 0018 CF22     		movs	r2, #207
 1181 001a 1A70     		strb	r2, [r3]
1503:Generated_Source\PSoC4/UART.c ****                 #else
1504:Generated_Source\PSoC4/UART.c ****                     txPeriod = UART_TXBITCTR_PERIOD_REG;
1505:Generated_Source\PSoC4/UART.c ****                     UART_TXBITCTR_PERIOD_REG = UART_TXBITCTR_BREAKBITS8X;
1506:Generated_Source\PSoC4/UART.c ****                 #endif /* End UART_TXCLKGEN_DP */
1507:Generated_Source\PSoC4/UART.c **** 
1508:Generated_Source\PSoC4/UART.c ****                 /* Send zeros */
1509:Generated_Source\PSoC4/UART.c ****                 UART_TXDATA_REG = 0u;
 1182              		.loc 1 1509 0
 1183 001c 0022     		movs	r2, #0
 1184 001e 0E4B     		ldr	r3, .L104+8
 1185 0020 1A70     		strb	r2, [r3]
 1186              	.L101:
1510:Generated_Source\PSoC4/UART.c **** 
1511:Generated_Source\PSoC4/UART.c ****                 do /* Wait until transmit starts */
1512:Generated_Source\PSoC4/UART.c ****                 {
1513:Generated_Source\PSoC4/UART.c ****                     tmpStat = UART_TXSTATUS_REG;
 1187              		.loc 1 1513 0 discriminator 1
 1188 0022 0E4B     		ldr	r3, .L104+12
 1189 0024 1B78     		ldrb	r3, [r3]
 1190              	.LVL84:
1514:Generated_Source\PSoC4/UART.c ****                 }
1515:Generated_Source\PSoC4/UART.c ****                 while((tmpStat & UART_TX_STS_FIFO_EMPTY) != 0u);
 1191              		.loc 1 1515 0 discriminator 1
 1192 0026 9B07     		lsls	r3, r3, #30
 1193 0028 FBD4     		bmi	.L101
 1194              	.LVL85:
 1195              	.L100:
1516:Generated_Source\PSoC4/UART.c ****             }
1517:Generated_Source\PSoC4/UART.c **** 
1518:Generated_Source\PSoC4/UART.c ****             if( (retMode == UART_WAIT_FOR_COMPLETE_REINIT) ||
 1196              		.loc 1 1518 0
 1197 002a 0128     		cmp	r0, #1
 1198 002c 01D0     		beq	.L102
 1199              		.loc 1 1518 0 is_stmt 0 discriminator 1
 1200 002e 0328     		cmp	r0, #3
 1201 0030 04D1     		bne	.L103
 1202              	.L102:
1519:Generated_Source\PSoC4/UART.c ****                 (retMode == UART_SEND_WAIT_REINIT) )
1520:Generated_Source\PSoC4/UART.c ****             {
1521:Generated_Source\PSoC4/UART.c ****                 do /* Wait until transmit complete */
ARM GAS  C:\Users\tdoan1\AppData\Local\Temp\ccP2L39x.s 			page 49


1522:Generated_Source\PSoC4/UART.c ****                 {
1523:Generated_Source\PSoC4/UART.c ****                     tmpStat = UART_TXSTATUS_REG;
 1203              		.loc 1 1523 0 is_stmt 1 discriminator 1
 1204 0032 0A4B     		ldr	r3, .L104+12
 1205 0034 1A78     		ldrb	r2, [r3]
 1206              	.LVL86:
1524:Generated_Source\PSoC4/UART.c ****                 }
1525:Generated_Source\PSoC4/UART.c ****                 while(((uint8)~tmpStat & UART_TX_STS_COMPLETE) != 0u);
 1207              		.loc 1 1525 0 discriminator 1
 1208 0036 0123     		movs	r3, #1
 1209 0038 9343     		bics	r3, r2
 1210 003a FAD1     		bne	.L102
 1211              	.LVL87:
 1212              	.L103:
1526:Generated_Source\PSoC4/UART.c ****             }
1527:Generated_Source\PSoC4/UART.c **** 
1528:Generated_Source\PSoC4/UART.c ****             if( (retMode == UART_WAIT_FOR_COMPLETE_REINIT) ||
1529:Generated_Source\PSoC4/UART.c ****                 (retMode == UART_REINIT) ||
 1213              		.loc 1 1529 0
 1214 003c 0138     		subs	r0, r0, #1
 1215              	.LVL88:
 1216 003e C0B2     		uxtb	r0, r0
1528:Generated_Source\PSoC4/UART.c ****                 (retMode == UART_REINIT) ||
 1217              		.loc 1 1528 0
 1218 0040 0228     		cmp	r0, #2
 1219 0042 03D8     		bhi	.L97
1530:Generated_Source\PSoC4/UART.c ****                 (retMode == UART_SEND_WAIT_REINIT) )
1531:Generated_Source\PSoC4/UART.c ****             {
1532:Generated_Source\PSoC4/UART.c **** 
1533:Generated_Source\PSoC4/UART.c ****             #if(UART_TXCLKGEN_DP)
1534:Generated_Source\PSoC4/UART.c ****                 UART_TXBITCLKTX_COMPLETE_REG = txPeriod;
 1220              		.loc 1 1534 0
 1221 0044 024B     		ldr	r3, .L104
 1222 0046 DA78     		ldrb	r2, [r3, #3]
 1223 0048 024B     		ldr	r3, .L104+4
 1224 004a 1A70     		strb	r2, [r3]
 1225              	.L97:
 1226              	.LBE2:
1535:Generated_Source\PSoC4/UART.c ****             #else
1536:Generated_Source\PSoC4/UART.c ****                 UART_TXBITCTR_PERIOD_REG = txPeriod;
1537:Generated_Source\PSoC4/UART.c ****             #endif /* End UART_TXCLKGEN_DP */
1538:Generated_Source\PSoC4/UART.c **** 
1539:Generated_Source\PSoC4/UART.c ****             #if( (UART_PARITY_TYPE != UART__B_UART__NONE_REVB) || \
1540:Generated_Source\PSoC4/UART.c ****                  (UART_PARITY_TYPE_SW != 0u) )
1541:Generated_Source\PSoC4/UART.c ****                 UART_WriteControlRegister(UART_ReadControlRegister() &
1542:Generated_Source\PSoC4/UART.c ****                                                       (uint8) ~UART_CTRL_HD_SEND_BREAK);
1543:Generated_Source\PSoC4/UART.c ****             #endif /* End UART_PARITY_TYPE != NONE */
1544:Generated_Source\PSoC4/UART.c ****             }
1545:Generated_Source\PSoC4/UART.c ****         #endif    /* End UART_HD_ENABLED */
1546:Generated_Source\PSoC4/UART.c ****         }
1547:Generated_Source\PSoC4/UART.c ****     }
 1227              		.loc 1 1547 0
 1228              		@ sp needed
 1229 004c 7047     		bx	lr
 1230              	.L105:
 1231 004e C046     		.align	2
 1232              	.L104:
ARM GAS  C:\Users\tdoan1\AppData\Local\Temp\ccP2L39x.s 			page 50


 1233 0050 00000000 		.word	.LANCHOR0
 1234 0054 32000F40 		.word	1074724914
 1235 0058 43000F40 		.word	1074724931
 1236 005c 63000F40 		.word	1074724963
 1237              		.cfi_endproc
 1238              	.LFE25:
 1239              		.size	UART_SendBreak, .-UART_SendBreak
 1240              		.section	.text.UART_SetTxAddressMode,"ax",%progbits
 1241              		.align	2
 1242              		.global	UART_SetTxAddressMode
 1243              		.code	16
 1244              		.thumb_func
 1245              		.type	UART_SetTxAddressMode, %function
 1246              	UART_SetTxAddressMode:
 1247              	.LFB26:
1548:Generated_Source\PSoC4/UART.c **** 
1549:Generated_Source\PSoC4/UART.c **** 
1550:Generated_Source\PSoC4/UART.c ****     /*******************************************************************************
1551:Generated_Source\PSoC4/UART.c ****     * Function Name: UART_SetTxAddressMode
1552:Generated_Source\PSoC4/UART.c ****     ********************************************************************************
1553:Generated_Source\PSoC4/UART.c ****     *
1554:Generated_Source\PSoC4/UART.c ****     * Summary:
1555:Generated_Source\PSoC4/UART.c ****     *  Configures the transmitter to signal the next bytes is address or data.
1556:Generated_Source\PSoC4/UART.c ****     *
1557:Generated_Source\PSoC4/UART.c ****     * Parameters:
1558:Generated_Source\PSoC4/UART.c ****     *  addressMode: 
1559:Generated_Source\PSoC4/UART.c ****     *       UART_SET_SPACE - Configure the transmitter to send the next
1560:Generated_Source\PSoC4/UART.c ****     *                                    byte as a data.
1561:Generated_Source\PSoC4/UART.c ****     *       UART_SET_MARK  - Configure the transmitter to send the next
1562:Generated_Source\PSoC4/UART.c ****     *                                    byte as an address.
1563:Generated_Source\PSoC4/UART.c ****     *
1564:Generated_Source\PSoC4/UART.c ****     * Return:
1565:Generated_Source\PSoC4/UART.c ****     *  None.
1566:Generated_Source\PSoC4/UART.c ****     *
1567:Generated_Source\PSoC4/UART.c ****     * Side Effects:
1568:Generated_Source\PSoC4/UART.c ****     *  This function sets and clears UART_CTRL_MARK bit in the Control
1569:Generated_Source\PSoC4/UART.c ****     *  register.
1570:Generated_Source\PSoC4/UART.c ****     *
1571:Generated_Source\PSoC4/UART.c ****     *******************************************************************************/
1572:Generated_Source\PSoC4/UART.c ****     void UART_SetTxAddressMode(uint8 addressMode) 
1573:Generated_Source\PSoC4/UART.c ****     {
 1248              		.loc 1 1573 0
 1249              		.cfi_startproc
 1250              		@ args = 0, pretend = 0, frame = 0
 1251              		@ frame_needed = 0, uses_anonymous_args = 0
 1252              		@ link register save eliminated.
 1253              	.LVL89:
1574:Generated_Source\PSoC4/UART.c ****         /* Mark/Space sending enable */
1575:Generated_Source\PSoC4/UART.c ****         if(addressMode != 0u)
1576:Generated_Source\PSoC4/UART.c ****         {
1577:Generated_Source\PSoC4/UART.c ****         #if( UART_CONTROL_REG_REMOVED == 0u )
1578:Generated_Source\PSoC4/UART.c ****             UART_WriteControlRegister(UART_ReadControlRegister() |
1579:Generated_Source\PSoC4/UART.c ****                                                   UART_CTRL_MARK);
1580:Generated_Source\PSoC4/UART.c ****         #endif /* End UART_CONTROL_REG_REMOVED == 0u */
1581:Generated_Source\PSoC4/UART.c ****         }
1582:Generated_Source\PSoC4/UART.c ****         else
1583:Generated_Source\PSoC4/UART.c ****         {
ARM GAS  C:\Users\tdoan1\AppData\Local\Temp\ccP2L39x.s 			page 51


1584:Generated_Source\PSoC4/UART.c ****         #if( UART_CONTROL_REG_REMOVED == 0u )
1585:Generated_Source\PSoC4/UART.c ****             UART_WriteControlRegister(UART_ReadControlRegister() &
1586:Generated_Source\PSoC4/UART.c ****                                                   (uint8) ~UART_CTRL_MARK);
1587:Generated_Source\PSoC4/UART.c ****         #endif /* End UART_CONTROL_REG_REMOVED == 0u */
1588:Generated_Source\PSoC4/UART.c ****         }
1589:Generated_Source\PSoC4/UART.c ****     }
 1254              		.loc 1 1589 0
 1255              		@ sp needed
 1256 0000 7047     		bx	lr
 1257              		.cfi_endproc
 1258              	.LFE26:
 1259              		.size	UART_SetTxAddressMode, .-UART_SetTxAddressMode
 1260              		.global	UART_txBufferWrite
 1261              		.global	UART_txBufferRead
 1262              		.comm	UART_txBuffer,40,4
 1263              		.global	UART_initVar
 1264 0002 C046     		.bss
 1265              		.set	.LANCHOR0,. + 0
 1266              		.type	UART_initVar, %object
 1267              		.size	UART_initVar, 1
 1268              	UART_initVar:
 1269 0000 00       		.space	1
 1270              		.type	UART_txBufferRead, %object
 1271              		.size	UART_txBufferRead, 1
 1272              	UART_txBufferRead:
 1273 0001 00       		.space	1
 1274              		.type	UART_txBufferWrite, %object
 1275              		.size	UART_txBufferWrite, 1
 1276              	UART_txBufferWrite:
 1277 0002 00       		.space	1
 1278              		.type	txPeriod.4992, %object
 1279              		.size	txPeriod.4992, 1
 1280              	txPeriod.4992:
 1281 0003 00       		.space	1
 1282              		.text
 1283              	.Letext0:
 1284              		.file 2 "Generated_Source\\PSoC4\\cytypes.h"
 1285              		.file 3 "Generated_Source\\PSoC4\\CyLib.h"
 1286              		.file 4 "Generated_Source\\PSoC4\\UART_IntClock.h"
 1287              		.section	.debug_info,"",%progbits
 1288              	.Ldebug_info0:
 1289 0000 8E070000 		.4byte	0x78e
 1290 0004 0400     		.2byte	0x4
 1291 0006 00000000 		.4byte	.Ldebug_abbrev0
 1292 000a 04       		.byte	0x4
 1293 000b 01       		.uleb128 0x1
 1294 000c 42000000 		.4byte	.LASF77
 1295 0010 0C       		.byte	0xc
 1296 0011 F7040000 		.4byte	.LASF78
 1297 0015 86020000 		.4byte	.LASF79
 1298 0019 00000000 		.4byte	.Ldebug_ranges0+0
 1299 001d 00000000 		.4byte	0
 1300 0021 00000000 		.4byte	.Ldebug_line0
 1301 0025 02       		.uleb128 0x2
 1302 0026 01       		.byte	0x1
 1303 0027 06       		.byte	0x6
 1304 0028 2A010000 		.4byte	.LASF0
ARM GAS  C:\Users\tdoan1\AppData\Local\Temp\ccP2L39x.s 			page 52


 1305 002c 02       		.uleb128 0x2
 1306 002d 01       		.byte	0x1
 1307 002e 08       		.byte	0x8
 1308 002f 10040000 		.4byte	.LASF1
 1309 0033 02       		.uleb128 0x2
 1310 0034 02       		.byte	0x2
 1311 0035 05       		.byte	0x5
 1312 0036 2F040000 		.4byte	.LASF2
 1313 003a 02       		.uleb128 0x2
 1314 003b 02       		.byte	0x2
 1315 003c 07       		.byte	0x7
 1316 003d 73020000 		.4byte	.LASF3
 1317 0041 02       		.uleb128 0x2
 1318 0042 04       		.byte	0x4
 1319 0043 05       		.byte	0x5
 1320 0044 3F010000 		.4byte	.LASF4
 1321 0048 02       		.uleb128 0x2
 1322 0049 04       		.byte	0x4
 1323 004a 07       		.byte	0x7
 1324 004b 16020000 		.4byte	.LASF5
 1325 004f 02       		.uleb128 0x2
 1326 0050 08       		.byte	0x8
 1327 0051 05       		.byte	0x5
 1328 0052 1C010000 		.4byte	.LASF6
 1329 0056 02       		.uleb128 0x2
 1330 0057 08       		.byte	0x8
 1331 0058 07       		.byte	0x7
 1332 0059 D0000000 		.4byte	.LASF7
 1333 005d 03       		.uleb128 0x3
 1334 005e 04       		.byte	0x4
 1335 005f 05       		.byte	0x5
 1336 0060 696E7400 		.ascii	"int\000"
 1337 0064 02       		.uleb128 0x2
 1338 0065 04       		.byte	0x4
 1339 0066 07       		.byte	0x7
 1340 0067 E9010000 		.4byte	.LASF8
 1341 006b 04       		.uleb128 0x4
 1342 006c 72010000 		.4byte	.LASF9
 1343 0070 02       		.byte	0x2
 1344 0071 E401     		.2byte	0x1e4
 1345 0073 2C000000 		.4byte	0x2c
 1346 0077 04       		.uleb128 0x4
 1347 0078 00000000 		.4byte	.LASF10
 1348 007c 02       		.byte	0x2
 1349 007d E501     		.2byte	0x1e5
 1350 007f 3A000000 		.4byte	0x3a
 1351 0083 02       		.uleb128 0x2
 1352 0084 04       		.byte	0x4
 1353 0085 04       		.byte	0x4
 1354 0086 DA030000 		.4byte	.LASF11
 1355 008a 02       		.uleb128 0x2
 1356 008b 08       		.byte	0x8
 1357 008c 04       		.byte	0x4
 1358 008d 91010000 		.4byte	.LASF12
 1359 0091 04       		.uleb128 0x4
 1360 0092 88040000 		.4byte	.LASF13
 1361 0096 02       		.byte	0x2
ARM GAS  C:\Users\tdoan1\AppData\Local\Temp\ccP2L39x.s 			page 53


 1362 0097 F501     		.2byte	0x1f5
 1363 0099 9D000000 		.4byte	0x9d
 1364 009d 02       		.uleb128 0x2
 1365 009e 01       		.byte	0x1
 1366 009f 08       		.byte	0x8
 1367 00a0 83040000 		.4byte	.LASF14
 1368 00a4 04       		.uleb128 0x4
 1369 00a5 F5030000 		.4byte	.LASF15
 1370 00a9 02       		.byte	0x2
 1371 00aa 8E02     		.2byte	0x28e
 1372 00ac B0000000 		.4byte	0xb0
 1373 00b0 05       		.uleb128 0x5
 1374 00b1 6B000000 		.4byte	0x6b
 1375 00b5 02       		.uleb128 0x2
 1376 00b6 08       		.byte	0x8
 1377 00b7 04       		.byte	0x4
 1378 00b8 73030000 		.4byte	.LASF16
 1379 00bc 02       		.uleb128 0x2
 1380 00bd 04       		.byte	0x4
 1381 00be 07       		.byte	0x7
 1382 00bf 58030000 		.4byte	.LASF17
 1383 00c3 06       		.uleb128 0x6
 1384 00c4 BC010000 		.4byte	.LASF18
 1385 00c8 01       		.byte	0x1
 1386 00c9 6A       		.byte	0x6a
 1387 00ca 00000000 		.4byte	.LFB1
 1388 00ce 4C000000 		.4byte	.LFE1-.LFB1
 1389 00d2 01       		.uleb128 0x1
 1390 00d3 9C       		.byte	0x9c
 1391 00d4 00010000 		.4byte	0x100
 1392 00d8 07       		.uleb128 0x7
 1393 00d9 16000000 		.4byte	.LVL0
 1394 00dd 23070000 		.4byte	0x723
 1395 00e1 EB000000 		.4byte	0xeb
 1396 00e5 08       		.uleb128 0x8
 1397 00e6 01       		.uleb128 0x1
 1398 00e7 50       		.byte	0x50
 1399 00e8 01       		.uleb128 0x1
 1400 00e9 32       		.byte	0x32
 1401 00ea 00       		.byte	0
 1402 00eb 09       		.uleb128 0x9
 1403 00ec 1E000000 		.4byte	.LVL1
 1404 00f0 2E070000 		.4byte	0x72e
 1405 00f4 08       		.uleb128 0x8
 1406 00f5 01       		.uleb128 0x1
 1407 00f6 50       		.byte	0x50
 1408 00f7 01       		.uleb128 0x1
 1409 00f8 32       		.byte	0x32
 1410 00f9 08       		.uleb128 0x8
 1411 00fa 01       		.uleb128 0x1
 1412 00fb 51       		.byte	0x51
 1413 00fc 01       		.uleb128 0x1
 1414 00fd 33       		.byte	0x33
 1415 00fe 00       		.byte	0
 1416 00ff 00       		.byte	0
 1417 0100 06       		.uleb128 0x6
 1418 0101 65040000 		.4byte	.LASF19
ARM GAS  C:\Users\tdoan1\AppData\Local\Temp\ccP2L39x.s 			page 54


 1419 0105 01       		.byte	0x1
 1420 0106 B7       		.byte	0xb7
 1421 0107 00000000 		.4byte	.LFB2
 1422 010b 50000000 		.4byte	.LFE2-.LFB2
 1423 010f 01       		.uleb128 0x1
 1424 0110 9C       		.byte	0x9c
 1425 0111 6D010000 		.4byte	0x16d
 1426 0115 0A       		.uleb128 0xa
 1427 0116 B3040000 		.4byte	.LASF22
 1428 011a 01       		.byte	0x1
 1429 011b B9       		.byte	0xb9
 1430 011c 6B000000 		.4byte	0x6b
 1431 0120 00000000 		.4byte	.LLST0
 1432 0124 0B       		.uleb128 0xb
 1433 0125 06000000 		.4byte	.LVL2
 1434 0129 39070000 		.4byte	0x739
 1435 012d 07       		.uleb128 0x7
 1436 012e 30000000 		.4byte	.LVL4
 1437 0132 44070000 		.4byte	0x744
 1438 0136 40010000 		.4byte	0x140
 1439 013a 08       		.uleb128 0x8
 1440 013b 01       		.uleb128 0x1
 1441 013c 50       		.byte	0x50
 1442 013d 01       		.uleb128 0x1
 1443 013e 32       		.byte	0x32
 1444 013f 00       		.byte	0
 1445 0140 07       		.uleb128 0x7
 1446 0141 36000000 		.4byte	.LVL5
 1447 0145 4F070000 		.4byte	0x74f
 1448 0149 53010000 		.4byte	0x153
 1449 014d 08       		.uleb128 0x8
 1450 014e 01       		.uleb128 0x1
 1451 014f 50       		.byte	0x50
 1452 0150 01       		.uleb128 0x1
 1453 0151 32       		.byte	0x32
 1454 0152 00       		.byte	0
 1455 0153 0B       		.uleb128 0xb
 1456 0154 3A000000 		.4byte	.LVL6
 1457 0158 5A070000 		.4byte	0x75a
 1458 015c 09       		.uleb128 0x9
 1459 015d 40000000 		.4byte	.LVL7
 1460 0161 65070000 		.4byte	0x765
 1461 0165 08       		.uleb128 0x8
 1462 0166 01       		.uleb128 0x1
 1463 0167 50       		.byte	0x50
 1464 0168 02       		.uleb128 0x2
 1465 0169 74       		.byte	0x74
 1466 016a 00       		.sleb128 0
 1467 016b 00       		.byte	0
 1468 016c 00       		.byte	0
 1469 016d 06       		.uleb128 0x6
 1470 016e E7000000 		.4byte	.LASF20
 1471 0172 01       		.byte	0x1
 1472 0173 4C       		.byte	0x4c
 1473 0174 00000000 		.4byte	.LFB0
 1474 0178 20000000 		.4byte	.LFE0-.LFB0
 1475 017c 01       		.uleb128 0x1
ARM GAS  C:\Users\tdoan1\AppData\Local\Temp\ccP2L39x.s 			page 55


 1476 017d 9C       		.byte	0x9c
 1477 017e 95010000 		.4byte	0x195
 1478 0182 0B       		.uleb128 0xb
 1479 0183 0E000000 		.4byte	.LVL9
 1480 0187 C3000000 		.4byte	0xc3
 1481 018b 0B       		.uleb128 0xb
 1482 018c 18000000 		.4byte	.LVL10
 1483 0190 00010000 		.4byte	0x100
 1484 0194 00       		.byte	0
 1485 0195 06       		.uleb128 0x6
 1486 0196 ED040000 		.4byte	.LASF21
 1487 019a 01       		.byte	0x1
 1488 019b F0       		.byte	0xf0
 1489 019c 00000000 		.4byte	.LFB3
 1490 01a0 44000000 		.4byte	.LFE3-.LFB3
 1491 01a4 01       		.uleb128 0x1
 1492 01a5 9C       		.byte	0x9c
 1493 01a6 EF010000 		.4byte	0x1ef
 1494 01aa 0A       		.uleb128 0xa
 1495 01ab B3040000 		.4byte	.LASF22
 1496 01af 01       		.byte	0x1
 1497 01b0 F2       		.byte	0xf2
 1498 01b1 6B000000 		.4byte	0x6b
 1499 01b5 13000000 		.4byte	.LLST1
 1500 01b9 0B       		.uleb128 0xb
 1501 01ba 06000000 		.4byte	.LVL11
 1502 01be 39070000 		.4byte	0x739
 1503 01c2 0B       		.uleb128 0xb
 1504 01c3 16000000 		.4byte	.LVL13
 1505 01c7 70070000 		.4byte	0x770
 1506 01cb 07       		.uleb128 0x7
 1507 01cc 2E000000 		.4byte	.LVL14
 1508 01d0 7B070000 		.4byte	0x77b
 1509 01d4 DE010000 		.4byte	0x1de
 1510 01d8 08       		.uleb128 0x8
 1511 01d9 01       		.uleb128 0x1
 1512 01da 50       		.byte	0x50
 1513 01db 01       		.uleb128 0x1
 1514 01dc 32       		.byte	0x32
 1515 01dd 00       		.byte	0
 1516 01de 09       		.uleb128 0x9
 1517 01df 34000000 		.4byte	.LVL15
 1518 01e3 65070000 		.4byte	0x765
 1519 01e7 08       		.uleb128 0x8
 1520 01e8 01       		.uleb128 0x1
 1521 01e9 50       		.byte	0x50
 1522 01ea 02       		.uleb128 0x2
 1523 01eb 74       		.byte	0x74
 1524 01ec 00       		.sleb128 0
 1525 01ed 00       		.byte	0
 1526 01ee 00       		.byte	0
 1527 01ef 0C       		.uleb128 0xc
 1528 01f0 78010000 		.4byte	.LASF45
 1529 01f4 01       		.byte	0x1
 1530 01f5 2701     		.2byte	0x127
 1531 01f7 6B000000 		.4byte	0x6b
 1532 01fb 00000000 		.4byte	.LFB4
ARM GAS  C:\Users\tdoan1\AppData\Local\Temp\ccP2L39x.s 			page 56


 1533 01ff 04000000 		.4byte	.LFE4-.LFB4
 1534 0203 01       		.uleb128 0x1
 1535 0204 9C       		.byte	0x9c
 1536 0205 0D       		.uleb128 0xd
 1537 0206 24050000 		.4byte	.LASF23
 1538 020a 01       		.byte	0x1
 1539 020b 3F01     		.2byte	0x13f
 1540 020d 00000000 		.4byte	.LFB5
 1541 0211 02000000 		.4byte	.LFE5-.LFB5
 1542 0215 01       		.uleb128 0x1
 1543 0216 9C       		.byte	0x9c
 1544 0217 2A020000 		.4byte	0x22a
 1545 021b 0E       		.uleb128 0xe
 1546 021c A4010000 		.4byte	.LASF25
 1547 0220 01       		.byte	0x1
 1548 0221 3F01     		.2byte	0x13f
 1549 0223 6B000000 		.4byte	0x6b
 1550 0227 01       		.uleb128 0x1
 1551 0228 50       		.byte	0x50
 1552 0229 00       		.byte	0
 1553 022a 0D       		.uleb128 0xd
 1554 022b 8E040000 		.4byte	.LASF24
 1555 022f 01       		.byte	0x1
 1556 0230 6701     		.2byte	0x167
 1557 0232 00000000 		.4byte	.LFB6
 1558 0236 0C000000 		.4byte	.LFE6-.LFB6
 1559 023a 01       		.uleb128 0x1
 1560 023b 9C       		.byte	0x9c
 1561 023c 4F020000 		.4byte	0x24f
 1562 0240 0E       		.uleb128 0xe
 1563 0241 0D030000 		.4byte	.LASF26
 1564 0245 01       		.byte	0x1
 1565 0246 6701     		.2byte	0x167
 1566 0248 6B000000 		.4byte	0x6b
 1567 024c 01       		.uleb128 0x1
 1568 024d 50       		.byte	0x50
 1569 024e 00       		.byte	0
 1570 024f 0F       		.uleb128 0xf
 1571 0250 62010000 		.4byte	.LASF28
 1572 0254 01       		.byte	0x1
 1573 0255 8801     		.2byte	0x188
 1574 0257 6B000000 		.4byte	0x6b
 1575 025b 00000000 		.4byte	.LFB7
 1576 025f 0C000000 		.4byte	.LFE7-.LFB7
 1577 0263 01       		.uleb128 0x1
 1578 0264 9C       		.byte	0x9c
 1579 0265 78020000 		.4byte	0x278
 1580 0269 10       		.uleb128 0x10
 1581 026a 5E040000 		.4byte	.LASF27
 1582 026e 01       		.byte	0x1
 1583 026f 8A01     		.2byte	0x18a
 1584 0271 6B000000 		.4byte	0x6b
 1585 0275 01       		.uleb128 0x1
 1586 0276 50       		.byte	0x50
 1587 0277 00       		.byte	0
 1588 0278 0F       		.uleb128 0xf
 1589 0279 71040000 		.4byte	.LASF29
ARM GAS  C:\Users\tdoan1\AppData\Local\Temp\ccP2L39x.s 			page 57


 1590 027d 01       		.byte	0x1
 1591 027e E501     		.2byte	0x1e5
 1592 0280 6B000000 		.4byte	0x6b
 1593 0284 00000000 		.4byte	.LFB8
 1594 0288 10000000 		.4byte	.LFE8-.LFB8
 1595 028c 01       		.uleb128 0x1
 1596 028d 9C       		.byte	0x9c
 1597 028e A1020000 		.4byte	0x2a1
 1598 0292 10       		.uleb128 0x10
 1599 0293 E6040000 		.4byte	.LASF30
 1600 0297 01       		.byte	0x1
 1601 0298 E701     		.2byte	0x1e7
 1602 029a 6B000000 		.4byte	0x6b
 1603 029e 01       		.uleb128 0x1
 1604 029f 50       		.byte	0x50
 1605 02a0 00       		.byte	0
 1606 02a1 0F       		.uleb128 0xf
 1607 02a2 A6040000 		.4byte	.LASF31
 1608 02a6 01       		.byte	0x1
 1609 02a7 1402     		.2byte	0x214
 1610 02a9 6B000000 		.4byte	0x6b
 1611 02ad 00000000 		.4byte	.LFB9
 1612 02b1 28000000 		.4byte	.LFE9-.LFB9
 1613 02b5 01       		.uleb128 0x1
 1614 02b6 9C       		.byte	0x9c
 1615 02b7 DA020000 		.4byte	0x2da
 1616 02bb 11       		.uleb128 0x11
 1617 02bc 5E040000 		.4byte	.LASF27
 1618 02c0 01       		.byte	0x1
 1619 02c1 1602     		.2byte	0x216
 1620 02c3 6B000000 		.4byte	0x6b
 1621 02c7 26000000 		.4byte	.LLST2
 1622 02cb 10       		.uleb128 0x10
 1623 02cc AD030000 		.4byte	.LASF32
 1624 02d0 01       		.byte	0x1
 1625 02d1 1702     		.2byte	0x217
 1626 02d3 6B000000 		.4byte	0x6b
 1627 02d7 01       		.uleb128 0x1
 1628 02d8 53       		.byte	0x53
 1629 02d9 00       		.byte	0
 1630 02da 0F       		.uleb128 0xf
 1631 02db DC010000 		.4byte	.LASF33
 1632 02df 01       		.byte	0x1
 1633 02e0 7A02     		.2byte	0x27a
 1634 02e2 77000000 		.4byte	0x77
 1635 02e6 00000000 		.4byte	.LFB10
 1636 02ea 12000000 		.4byte	.LFE10-.LFB10
 1637 02ee 01       		.uleb128 0x1
 1638 02ef 9C       		.byte	0x9c
 1639 02f0 07030000 		.4byte	0x307
 1640 02f4 0B       		.uleb128 0xb
 1641 02f5 06000000 		.4byte	.LVL27
 1642 02f9 78020000 		.4byte	0x278
 1643 02fd 0B       		.uleb128 0xb
 1644 02fe 0C000000 		.4byte	.LVL28
 1645 0302 4F020000 		.4byte	0x24f
 1646 0306 00       		.byte	0
ARM GAS  C:\Users\tdoan1\AppData\Local\Temp\ccP2L39x.s 			page 58


 1647 0307 0F       		.uleb128 0xf
 1648 0308 D1040000 		.4byte	.LASF34
 1649 030c 01       		.byte	0x1
 1650 030d AB02     		.2byte	0x2ab
 1651 030f 6B000000 		.4byte	0x6b
 1652 0313 00000000 		.4byte	.LFB11
 1653 0317 14000000 		.4byte	.LFE11-.LFB11
 1654 031b 01       		.uleb128 0x1
 1655 031c 9C       		.byte	0x9c
 1656 031d 30030000 		.4byte	0x330
 1657 0321 10       		.uleb128 0x10
 1658 0322 6E020000 		.4byte	.LASF35
 1659 0326 01       		.byte	0x1
 1660 0327 AE02     		.2byte	0x2ae
 1661 0329 6B000000 		.4byte	0x6b
 1662 032d 01       		.uleb128 0x1
 1663 032e 50       		.byte	0x50
 1664 032f 00       		.byte	0
 1665 0330 0D       		.uleb128 0xd
 1666 0331 3E050000 		.4byte	.LASF36
 1667 0335 01       		.byte	0x1
 1668 0336 F502     		.2byte	0x2f5
 1669 0338 00000000 		.4byte	.LFB12
 1670 033c 24000000 		.4byte	.LFE12-.LFB12
 1671 0340 01       		.uleb128 0x1
 1672 0341 9C       		.byte	0x9c
 1673 0342 69030000 		.4byte	0x369
 1674 0346 11       		.uleb128 0x11
 1675 0347 B3040000 		.4byte	.LASF22
 1676 034b 01       		.byte	0x1
 1677 034c F702     		.2byte	0x2f7
 1678 034e 6B000000 		.4byte	0x6b
 1679 0352 5C000000 		.4byte	.LLST3
 1680 0356 0B       		.uleb128 0xb
 1681 0357 06000000 		.4byte	.LVL30
 1682 035b 39070000 		.4byte	0x739
 1683 035f 0B       		.uleb128 0xb
 1684 0360 1E000000 		.4byte	.LVL31
 1685 0364 65070000 		.4byte	0x765
 1686 0368 00       		.byte	0
 1687 0369 0D       		.uleb128 0xd
 1688 036a FA030000 		.4byte	.LASF37
 1689 036e 01       		.byte	0x1
 1690 036f 2D03     		.2byte	0x32d
 1691 0371 00000000 		.4byte	.LFB13
 1692 0375 02000000 		.4byte	.LFE13-.LFB13
 1693 0379 01       		.uleb128 0x1
 1694 037a 9C       		.byte	0x9c
 1695 037b 8E030000 		.4byte	0x38e
 1696 037f 0E       		.uleb128 0xe
 1697 0380 98010000 		.4byte	.LASF38
 1698 0384 01       		.byte	0x1
 1699 0385 2D03     		.2byte	0x32d
 1700 0387 6B000000 		.4byte	0x6b
 1701 038b 01       		.uleb128 0x1
 1702 038c 50       		.byte	0x50
 1703 038d 00       		.byte	0
ARM GAS  C:\Users\tdoan1\AppData\Local\Temp\ccP2L39x.s 			page 59


 1704 038e 0D       		.uleb128 0xd
 1705 038f 87030000 		.4byte	.LASF39
 1706 0393 01       		.byte	0x1
 1707 0394 5903     		.2byte	0x359
 1708 0396 00000000 		.4byte	.LFB14
 1709 039a 0C000000 		.4byte	.LFE14-.LFB14
 1710 039e 01       		.uleb128 0x1
 1711 039f 9C       		.byte	0x9c
 1712 03a0 B3030000 		.4byte	0x3b3
 1713 03a4 0E       		.uleb128 0xe
 1714 03a5 7F030000 		.4byte	.LASF40
 1715 03a9 01       		.byte	0x1
 1716 03aa 5903     		.2byte	0x359
 1717 03ac 6B000000 		.4byte	0x6b
 1718 03b0 01       		.uleb128 0x1
 1719 03b1 50       		.byte	0x50
 1720 03b2 00       		.byte	0
 1721 03b3 0D       		.uleb128 0xd
 1722 03b4 9A030000 		.4byte	.LASF41
 1723 03b8 01       		.byte	0x1
 1724 03b9 6D03     		.2byte	0x36d
 1725 03bb 00000000 		.4byte	.LFB15
 1726 03bf 0C000000 		.4byte	.LFE15-.LFB15
 1727 03c3 01       		.uleb128 0x1
 1728 03c4 9C       		.byte	0x9c
 1729 03c5 D8030000 		.4byte	0x3d8
 1730 03c9 0E       		.uleb128 0xe
 1731 03ca 7F030000 		.4byte	.LASF40
 1732 03ce 01       		.byte	0x1
 1733 03cf 6D03     		.2byte	0x36d
 1734 03d1 6B000000 		.4byte	0x6b
 1735 03d5 01       		.uleb128 0x1
 1736 03d6 50       		.byte	0x50
 1737 03d7 00       		.byte	0
 1738 03d8 0D       		.uleb128 0xd
 1739 03d9 F2000000 		.4byte	.LASF42
 1740 03dd 01       		.byte	0x1
 1741 03de 8C03     		.2byte	0x38c
 1742 03e0 00000000 		.4byte	.LFB16
 1743 03e4 0C000000 		.4byte	.LFE16-.LFB16
 1744 03e8 01       		.uleb128 0x1
 1745 03e9 9C       		.byte	0x9c
 1746 03ea FD030000 		.4byte	0x3fd
 1747 03ee 0E       		.uleb128 0xe
 1748 03ef 0D030000 		.4byte	.LASF26
 1749 03f3 01       		.byte	0x1
 1750 03f4 8C03     		.2byte	0x38c
 1751 03f6 6B000000 		.4byte	0x6b
 1752 03fa 01       		.uleb128 0x1
 1753 03fb 50       		.byte	0x50
 1754 03fc 00       		.byte	0
 1755 03fd 0D       		.uleb128 0xd
 1756 03fe 1E040000 		.4byte	.LASF43
 1757 0402 01       		.byte	0x1
 1758 0403 AE03     		.2byte	0x3ae
 1759 0405 00000000 		.4byte	.LFB17
 1760 0409 5C000000 		.4byte	.LFE17-.LFB17
ARM GAS  C:\Users\tdoan1\AppData\Local\Temp\ccP2L39x.s 			page 60


 1761 040d 01       		.uleb128 0x1
 1762 040e 9C       		.byte	0x9c
 1763 040f 46040000 		.4byte	0x446
 1764 0413 12       		.uleb128 0x12
 1765 0414 1D000000 		.4byte	.LASF44
 1766 0418 01       		.byte	0x1
 1767 0419 AE03     		.2byte	0x3ae
 1768 041b 6B000000 		.4byte	0x6b
 1769 041f 6F000000 		.4byte	.LLST4
 1770 0423 07       		.uleb128 0x7
 1771 0424 12000000 		.4byte	.LVL38
 1772 0428 7B070000 		.4byte	0x77b
 1773 042c 36040000 		.4byte	0x436
 1774 0430 08       		.uleb128 0x8
 1775 0431 01       		.uleb128 0x1
 1776 0432 50       		.byte	0x50
 1777 0433 01       		.uleb128 0x1
 1778 0434 32       		.byte	0x32
 1779 0435 00       		.byte	0
 1780 0436 09       		.uleb128 0x9
 1781 0437 48000000 		.4byte	.LVL39
 1782 043b 4F070000 		.4byte	0x74f
 1783 043f 08       		.uleb128 0x8
 1784 0440 01       		.uleb128 0x1
 1785 0441 50       		.byte	0x50
 1786 0442 01       		.uleb128 0x1
 1787 0443 32       		.byte	0x32
 1788 0444 00       		.byte	0
 1789 0445 00       		.byte	0
 1790 0446 0C       		.uleb128 0xc
 1791 0447 2A030000 		.4byte	.LASF46
 1792 044b 01       		.byte	0x1
 1793 044c EB03     		.2byte	0x3eb
 1794 044e 6B000000 		.4byte	0x6b
 1795 0452 00000000 		.4byte	.LFB18
 1796 0456 0C000000 		.4byte	.LFE18-.LFB18
 1797 045a 01       		.uleb128 0x1
 1798 045b 9C       		.byte	0x9c
 1799 045c 0D       		.uleb128 0xd
 1800 045d 55010000 		.4byte	.LASF47
 1801 0461 01       		.byte	0x1
 1802 0462 1104     		.2byte	0x411
 1803 0464 00000000 		.4byte	.LFB19
 1804 0468 6C000000 		.4byte	.LFE19-.LFB19
 1805 046c 01       		.uleb128 0x1
 1806 046d 9C       		.byte	0x9c
 1807 046e B2040000 		.4byte	0x4b2
 1808 0472 12       		.uleb128 0x12
 1809 0473 1D000000 		.4byte	.LASF44
 1810 0477 01       		.byte	0x1
 1811 0478 1104     		.2byte	0x411
 1812 047a 6B000000 		.4byte	0x6b
 1813 047e 90000000 		.4byte	.LLST5
 1814 0482 11       		.uleb128 0x11
 1815 0483 28020000 		.4byte	.LASF48
 1816 0487 01       		.byte	0x1
 1817 0488 1804     		.2byte	0x418
ARM GAS  C:\Users\tdoan1\AppData\Local\Temp\ccP2L39x.s 			page 61


 1818 048a 6B000000 		.4byte	0x6b
 1819 048e C3000000 		.4byte	.LLST6
 1820 0492 11       		.uleb128 0x11
 1821 0493 AC010000 		.4byte	.LASF49
 1822 0497 01       		.byte	0x1
 1823 0498 1904     		.2byte	0x419
 1824 049a 6B000000 		.4byte	0x6b
 1825 049e D6000000 		.4byte	.LLST7
 1826 04a2 09       		.uleb128 0x9
 1827 04a3 58000000 		.4byte	.LVL46
 1828 04a7 86070000 		.4byte	0x786
 1829 04ab 08       		.uleb128 0x8
 1830 04ac 01       		.uleb128 0x1
 1831 04ad 50       		.byte	0x50
 1832 04ae 01       		.uleb128 0x1
 1833 04af 32       		.byte	0x32
 1834 04b0 00       		.byte	0
 1835 04b1 00       		.byte	0
 1836 04b2 0D       		.uleb128 0xd
 1837 04b3 15050000 		.4byte	.LASF50
 1838 04b7 01       		.byte	0x1
 1839 04b8 7904     		.2byte	0x479
 1840 04ba 00000000 		.4byte	.LFB20
 1841 04be 28000000 		.4byte	.LFE20-.LFB20
 1842 04c2 01       		.uleb128 0x1
 1843 04c3 9C       		.byte	0x9c
 1844 04c4 F2040000 		.4byte	0x4f2
 1845 04c8 12       		.uleb128 0x12
 1846 04c9 3B000000 		.4byte	.LASF51
 1847 04cd 01       		.byte	0x1
 1848 04ce 7904     		.2byte	0x479
 1849 04d0 F2040000 		.4byte	0x4f2
 1850 04d4 E9000000 		.4byte	.LLST8
 1851 04d8 11       		.uleb128 0x11
 1852 04d9 04030000 		.4byte	.LASF52
 1853 04dd 01       		.byte	0x1
 1854 04de 7B04     		.2byte	0x47b
 1855 04e0 77000000 		.4byte	0x77
 1856 04e4 2B010000 		.4byte	.LLST9
 1857 04e8 0B       		.uleb128 0xb
 1858 04e9 12000000 		.4byte	.LVL50
 1859 04ed 5C040000 		.4byte	0x45c
 1860 04f1 00       		.byte	0
 1861 04f2 13       		.uleb128 0x13
 1862 04f3 04       		.byte	0x4
 1863 04f4 F8040000 		.4byte	0x4f8
 1864 04f8 14       		.uleb128 0x14
 1865 04f9 91000000 		.4byte	0x91
 1866 04fd 0D       		.uleb128 0xd
 1867 04fe 39020000 		.4byte	.LASF53
 1868 0502 01       		.byte	0x1
 1869 0503 A704     		.2byte	0x4a7
 1870 0505 00000000 		.4byte	.LFB21
 1871 0509 28000000 		.4byte	.LFE21-.LFB21
 1872 050d 01       		.uleb128 0x1
 1873 050e 9C       		.byte	0x9c
 1874 050f 4D050000 		.4byte	0x54d
ARM GAS  C:\Users\tdoan1\AppData\Local\Temp\ccP2L39x.s 			page 62


 1875 0513 12       		.uleb128 0x12
 1876 0514 3B000000 		.4byte	.LASF51
 1877 0518 01       		.byte	0x1
 1878 0519 A704     		.2byte	0x4a7
 1879 051b 4D050000 		.4byte	0x54d
 1880 051f 6C010000 		.4byte	.LLST10
 1881 0523 12       		.uleb128 0x12
 1882 0524 54040000 		.4byte	.LASF54
 1883 0528 01       		.byte	0x1
 1884 0529 A704     		.2byte	0x4a7
 1885 052b 6B000000 		.4byte	0x6b
 1886 052f AE010000 		.4byte	.LLST11
 1887 0533 11       		.uleb128 0x11
 1888 0534 04030000 		.4byte	.LASF52
 1889 0538 01       		.byte	0x1
 1890 0539 AA04     		.2byte	0x4aa
 1891 053b 6B000000 		.4byte	0x6b
 1892 053f E8010000 		.4byte	.LLST12
 1893 0543 0B       		.uleb128 0xb
 1894 0544 16000000 		.4byte	.LVL60
 1895 0548 5C040000 		.4byte	0x45c
 1896 054c 00       		.byte	0
 1897 054d 13       		.uleb128 0x13
 1898 054e 04       		.byte	0x4
 1899 054f 53050000 		.4byte	0x553
 1900 0553 14       		.uleb128 0x14
 1901 0554 6B000000 		.4byte	0x6b
 1902 0558 0D       		.uleb128 0xd
 1903 0559 09020000 		.4byte	.LASF55
 1904 055d 01       		.byte	0x1
 1905 055e CE04     		.2byte	0x4ce
 1906 0560 00000000 		.4byte	.LFB22
 1907 0564 20000000 		.4byte	.LFE22-.LFB22
 1908 0568 01       		.uleb128 0x1
 1909 0569 9C       		.byte	0x9c
 1910 056a AA050000 		.4byte	0x5aa
 1911 056e 12       		.uleb128 0x12
 1912 056f 1D000000 		.4byte	.LASF44
 1913 0573 01       		.byte	0x1
 1914 0574 CE04     		.2byte	0x4ce
 1915 0576 6B000000 		.4byte	0x6b
 1916 057a 29020000 		.4byte	.LLST13
 1917 057e 0B       		.uleb128 0xb
 1918 057f 0E000000 		.4byte	.LVL68
 1919 0583 5C040000 		.4byte	0x45c
 1920 0587 07       		.uleb128 0x7
 1921 0588 14000000 		.4byte	.LVL69
 1922 058c 5C040000 		.4byte	0x45c
 1923 0590 9A050000 		.4byte	0x59a
 1924 0594 08       		.uleb128 0x8
 1925 0595 01       		.uleb128 0x1
 1926 0596 50       		.byte	0x50
 1927 0597 01       		.uleb128 0x1
 1928 0598 3D       		.byte	0x3d
 1929 0599 00       		.byte	0
 1930 059a 09       		.uleb128 0x9
 1931 059b 1A000000 		.4byte	.LVL70
ARM GAS  C:\Users\tdoan1\AppData\Local\Temp\ccP2L39x.s 			page 63


 1932 059f 5C040000 		.4byte	0x45c
 1933 05a3 08       		.uleb128 0x8
 1934 05a4 01       		.uleb128 0x1
 1935 05a5 50       		.byte	0x50
 1936 05a6 01       		.uleb128 0x1
 1937 05a7 3A       		.byte	0x3a
 1938 05a8 00       		.byte	0
 1939 05a9 00       		.byte	0
 1940 05aa 0F       		.uleb128 0xf
 1941 05ab E0030000 		.4byte	.LASF56
 1942 05af 01       		.byte	0x1
 1943 05b0 F904     		.2byte	0x4f9
 1944 05b2 6B000000 		.4byte	0x6b
 1945 05b6 00000000 		.4byte	.LFB23
 1946 05ba 44000000 		.4byte	.LFE23-.LFB23
 1947 05be 01       		.uleb128 0x1
 1948 05bf 9C       		.byte	0x9c
 1949 05c0 F7050000 		.4byte	0x5f7
 1950 05c4 11       		.uleb128 0x11
 1951 05c5 6E020000 		.4byte	.LASF35
 1952 05c9 01       		.byte	0x1
 1953 05ca FC04     		.2byte	0x4fc
 1954 05cc 6B000000 		.4byte	0x6b
 1955 05d0 4A020000 		.4byte	.LLST14
 1956 05d4 07       		.uleb128 0x7
 1957 05d5 08000000 		.4byte	.LVL71
 1958 05d9 7B070000 		.4byte	0x77b
 1959 05dd E7050000 		.4byte	0x5e7
 1960 05e1 08       		.uleb128 0x8
 1961 05e2 01       		.uleb128 0x1
 1962 05e3 50       		.byte	0x50
 1963 05e4 01       		.uleb128 0x1
 1964 05e5 32       		.byte	0x32
 1965 05e6 00       		.byte	0
 1966 05e7 09       		.uleb128 0x9
 1967 05e8 3C000000 		.4byte	.LVL77
 1968 05ec 4F070000 		.4byte	0x74f
 1969 05f0 08       		.uleb128 0x8
 1970 05f1 01       		.uleb128 0x1
 1971 05f2 50       		.byte	0x50
 1972 05f3 01       		.uleb128 0x1
 1973 05f4 32       		.byte	0x32
 1974 05f5 00       		.byte	0
 1975 05f6 00       		.byte	0
 1976 05f7 0D       		.uleb128 0xd
 1977 05f8 F6010000 		.4byte	.LASF57
 1978 05fc 01       		.byte	0x1
 1979 05fd 4A05     		.2byte	0x54a
 1980 05ff 00000000 		.4byte	.LFB24
 1981 0603 3C000000 		.4byte	.LFE24-.LFB24
 1982 0607 01       		.uleb128 0x1
 1983 0608 9C       		.byte	0x9c
 1984 0609 52060000 		.4byte	0x652
 1985 060d 11       		.uleb128 0x11
 1986 060e B3040000 		.4byte	.LASF22
 1987 0612 01       		.byte	0x1
 1988 0613 4C05     		.2byte	0x54c
ARM GAS  C:\Users\tdoan1\AppData\Local\Temp\ccP2L39x.s 			page 64


 1989 0615 6B000000 		.4byte	0x6b
 1990 0619 73020000 		.4byte	.LLST15
 1991 061d 0B       		.uleb128 0xb
 1992 061e 06000000 		.4byte	.LVL79
 1993 0622 39070000 		.4byte	0x739
 1994 0626 0B       		.uleb128 0xb
 1995 0627 1E000000 		.4byte	.LVL80
 1996 062b 65070000 		.4byte	0x765
 1997 062f 07       		.uleb128 0x7
 1998 0630 24000000 		.4byte	.LVL81
 1999 0634 7B070000 		.4byte	0x77b
 2000 0638 42060000 		.4byte	0x642
 2001 063c 08       		.uleb128 0x8
 2002 063d 01       		.uleb128 0x1
 2003 063e 50       		.byte	0x50
 2004 063f 01       		.uleb128 0x1
 2005 0640 32       		.byte	0x32
 2006 0641 00       		.byte	0
 2007 0642 09       		.uleb128 0x9
 2008 0643 32000000 		.4byte	.LVL82
 2009 0647 4F070000 		.4byte	0x74f
 2010 064b 08       		.uleb128 0x8
 2011 064c 01       		.uleb128 0x1
 2012 064d 50       		.byte	0x50
 2013 064e 01       		.uleb128 0x1
 2014 064f 32       		.byte	0x32
 2015 0650 00       		.byte	0
 2016 0651 00       		.byte	0
 2017 0652 0D       		.uleb128 0xd
 2018 0653 45040000 		.4byte	.LASF58
 2019 0657 01       		.byte	0x1
 2020 0658 A005     		.2byte	0x5a0
 2021 065a 00000000 		.4byte	.LFB25
 2022 065e 60000000 		.4byte	.LFE25-.LFB25
 2023 0662 01       		.uleb128 0x1
 2024 0663 9C       		.byte	0x9c
 2025 0664 A5060000 		.4byte	0x6a5
 2026 0668 12       		.uleb128 0x12
 2027 0669 D4010000 		.4byte	.LASF59
 2028 066d 01       		.byte	0x1
 2029 066e A005     		.2byte	0x5a0
 2030 0670 6B000000 		.4byte	0x6b
 2031 0674 86020000 		.4byte	.LLST16
 2032 0678 15       		.uleb128 0x15
 2033 0679 08000000 		.4byte	.LBB2
 2034 067d 44000000 		.4byte	.LBE2-.LBB2
 2035 0681 11       		.uleb128 0x11
 2036 0682 50030000 		.4byte	.LASF60
 2037 0686 01       		.byte	0x1
 2038 0687 A805     		.2byte	0x5a8
 2039 0689 6B000000 		.4byte	0x6b
 2040 068d A7020000 		.4byte	.LLST17
 2041 0691 10       		.uleb128 0x10
 2042 0692 36010000 		.4byte	.LASF61
 2043 0696 01       		.byte	0x1
 2044 0697 D005     		.2byte	0x5d0
 2045 0699 6B000000 		.4byte	0x6b
ARM GAS  C:\Users\tdoan1\AppData\Local\Temp\ccP2L39x.s 			page 65


 2046 069d 05       		.uleb128 0x5
 2047 069e 03       		.byte	0x3
 2048 069f 03000000 		.4byte	txPeriod.4992
 2049 06a3 00       		.byte	0
 2050 06a4 00       		.byte	0
 2051 06a5 0D       		.uleb128 0xd
 2052 06a6 14030000 		.4byte	.LASF62
 2053 06aa 01       		.byte	0x1
 2054 06ab 2406     		.2byte	0x624
 2055 06ad 00000000 		.4byte	.LFB26
 2056 06b1 02000000 		.4byte	.LFE26-.LFB26
 2057 06b5 01       		.uleb128 0x1
 2058 06b6 9C       		.byte	0x9c
 2059 06b7 CA060000 		.4byte	0x6ca
 2060 06bb 0E       		.uleb128 0xe
 2061 06bc 98010000 		.4byte	.LASF38
 2062 06c0 01       		.byte	0x1
 2063 06c1 2406     		.2byte	0x624
 2064 06c3 6B000000 		.4byte	0x6b
 2065 06c7 01       		.uleb128 0x1
 2066 06c8 50       		.byte	0x50
 2067 06c9 00       		.byte	0
 2068 06ca 16       		.uleb128 0x16
 2069 06cb C4040000 		.4byte	.LASF63
 2070 06cf 01       		.byte	0x1
 2071 06d0 1B       		.byte	0x1b
 2072 06d1 6B000000 		.4byte	0x6b
 2073 06d5 05       		.uleb128 0x5
 2074 06d6 03       		.byte	0x3
 2075 06d7 00000000 		.4byte	UART_initVar
 2076 06db 17       		.uleb128 0x17
 2077 06dc B0000000 		.4byte	0xb0
 2078 06e0 EB060000 		.4byte	0x6eb
 2079 06e4 18       		.uleb128 0x18
 2080 06e5 BC000000 		.4byte	0xbc
 2081 06e9 27       		.byte	0x27
 2082 06ea 00       		.byte	0
 2083 06eb 16       		.uleb128 0x16
 2084 06ec C6010000 		.4byte	.LASF64
 2085 06f0 01       		.byte	0x1
 2086 06f1 1E       		.byte	0x1e
 2087 06f2 FC060000 		.4byte	0x6fc
 2088 06f6 05       		.uleb128 0x5
 2089 06f7 03       		.byte	0x3
 2090 06f8 00000000 		.4byte	UART_txBuffer
 2091 06fc 05       		.uleb128 0x5
 2092 06fd DB060000 		.4byte	0x6db
 2093 0701 16       		.uleb128 0x16
 2094 0702 0A010000 		.4byte	.LASF65
 2095 0706 01       		.byte	0x1
 2096 0707 1F       		.byte	0x1f
 2097 0708 B0000000 		.4byte	0xb0
 2098 070c 05       		.uleb128 0x5
 2099 070d 03       		.byte	0x3
 2100 070e 00000000 		.4byte	UART_txBufferRead
 2101 0712 16       		.uleb128 0x16
 2102 0713 28000000 		.4byte	.LASF66
ARM GAS  C:\Users\tdoan1\AppData\Local\Temp\ccP2L39x.s 			page 66


 2103 0717 01       		.byte	0x1
 2104 0718 20       		.byte	0x20
 2105 0719 6B000000 		.4byte	0x6b
 2106 071d 05       		.uleb128 0x5
 2107 071e 03       		.byte	0x3
 2108 071f 00000000 		.4byte	UART_txBufferWrite
 2109 0723 19       		.uleb128 0x19
 2110 0724 F5020000 		.4byte	.LASF67
 2111 0728 F5020000 		.4byte	.LASF67
 2112 072c 03       		.byte	0x3
 2113 072d BD       		.byte	0xbd
 2114 072e 19       		.uleb128 0x19
 2115 072f C9030000 		.4byte	.LASF68
 2116 0733 C9030000 		.4byte	.LASF68
 2117 0737 03       		.byte	0x3
 2118 0738 C0       		.byte	0xc0
 2119 0739 19       		.uleb128 0x19
 2120 073a 47020000 		.4byte	.LASF69
 2121 073e 47020000 		.4byte	.LASF69
 2122 0742 03       		.byte	0x3
 2123 0743 E5       		.byte	0xe5
 2124 0744 19       		.uleb128 0x19
 2125 0745 61030000 		.4byte	.LASF70
 2126 0749 61030000 		.4byte	.LASF70
 2127 074d 03       		.byte	0x3
 2128 074e C8       		.byte	0xc8
 2129 074f 19       		.uleb128 0x19
 2130 0750 39040000 		.4byte	.LASF71
 2131 0754 39040000 		.4byte	.LASF71
 2132 0758 03       		.byte	0x3
 2133 0759 C3       		.byte	0xc3
 2134 075a 19       		.uleb128 0x19
 2135 075b 3C030000 		.4byte	.LASF72
 2136 075f 3C030000 		.4byte	.LASF72
 2137 0763 04       		.byte	0x4
 2138 0764 23       		.byte	0x23
 2139 0765 19       		.uleb128 0x19
 2140 0766 07000000 		.4byte	.LASF73
 2141 076a 07000000 		.4byte	.LASF73
 2142 076e 03       		.byte	0x3
 2143 076f E6       		.byte	0xe6
 2144 0770 19       		.uleb128 0x19
 2145 0771 B6030000 		.4byte	.LASF74
 2146 0775 B6030000 		.4byte	.LASF74
 2147 0779 04       		.byte	0x4
 2148 077a 27       		.byte	0x27
 2149 077b 19       		.uleb128 0x19
 2150 077c 48010000 		.4byte	.LASF75
 2151 0780 48010000 		.4byte	.LASF75
 2152 0784 03       		.byte	0x3
 2153 0785 C5       		.byte	0xc5
 2154 0786 19       		.uleb128 0x19
 2155 0787 5E020000 		.4byte	.LASF76
 2156 078b 5E020000 		.4byte	.LASF76
 2157 078f 03       		.byte	0x3
 2158 0790 C7       		.byte	0xc7
 2159 0791 00       		.byte	0
ARM GAS  C:\Users\tdoan1\AppData\Local\Temp\ccP2L39x.s 			page 67


 2160              		.section	.debug_abbrev,"",%progbits
 2161              	.Ldebug_abbrev0:
 2162 0000 01       		.uleb128 0x1
 2163 0001 11       		.uleb128 0x11
 2164 0002 01       		.byte	0x1
 2165 0003 25       		.uleb128 0x25
 2166 0004 0E       		.uleb128 0xe
 2167 0005 13       		.uleb128 0x13
 2168 0006 0B       		.uleb128 0xb
 2169 0007 03       		.uleb128 0x3
 2170 0008 0E       		.uleb128 0xe
 2171 0009 1B       		.uleb128 0x1b
 2172 000a 0E       		.uleb128 0xe
 2173 000b 55       		.uleb128 0x55
 2174 000c 17       		.uleb128 0x17
 2175 000d 11       		.uleb128 0x11
 2176 000e 01       		.uleb128 0x1
 2177 000f 10       		.uleb128 0x10
 2178 0010 17       		.uleb128 0x17
 2179 0011 00       		.byte	0
 2180 0012 00       		.byte	0
 2181 0013 02       		.uleb128 0x2
 2182 0014 24       		.uleb128 0x24
 2183 0015 00       		.byte	0
 2184 0016 0B       		.uleb128 0xb
 2185 0017 0B       		.uleb128 0xb
 2186 0018 3E       		.uleb128 0x3e
 2187 0019 0B       		.uleb128 0xb
 2188 001a 03       		.uleb128 0x3
 2189 001b 0E       		.uleb128 0xe
 2190 001c 00       		.byte	0
 2191 001d 00       		.byte	0
 2192 001e 03       		.uleb128 0x3
 2193 001f 24       		.uleb128 0x24
 2194 0020 00       		.byte	0
 2195 0021 0B       		.uleb128 0xb
 2196 0022 0B       		.uleb128 0xb
 2197 0023 3E       		.uleb128 0x3e
 2198 0024 0B       		.uleb128 0xb
 2199 0025 03       		.uleb128 0x3
 2200 0026 08       		.uleb128 0x8
 2201 0027 00       		.byte	0
 2202 0028 00       		.byte	0
 2203 0029 04       		.uleb128 0x4
 2204 002a 16       		.uleb128 0x16
 2205 002b 00       		.byte	0
 2206 002c 03       		.uleb128 0x3
 2207 002d 0E       		.uleb128 0xe
 2208 002e 3A       		.uleb128 0x3a
 2209 002f 0B       		.uleb128 0xb
 2210 0030 3B       		.uleb128 0x3b
 2211 0031 05       		.uleb128 0x5
 2212 0032 49       		.uleb128 0x49
 2213 0033 13       		.uleb128 0x13
 2214 0034 00       		.byte	0
 2215 0035 00       		.byte	0
 2216 0036 05       		.uleb128 0x5
ARM GAS  C:\Users\tdoan1\AppData\Local\Temp\ccP2L39x.s 			page 68


 2217 0037 35       		.uleb128 0x35
 2218 0038 00       		.byte	0
 2219 0039 49       		.uleb128 0x49
 2220 003a 13       		.uleb128 0x13
 2221 003b 00       		.byte	0
 2222 003c 00       		.byte	0
 2223 003d 06       		.uleb128 0x6
 2224 003e 2E       		.uleb128 0x2e
 2225 003f 01       		.byte	0x1
 2226 0040 3F       		.uleb128 0x3f
 2227 0041 19       		.uleb128 0x19
 2228 0042 03       		.uleb128 0x3
 2229 0043 0E       		.uleb128 0xe
 2230 0044 3A       		.uleb128 0x3a
 2231 0045 0B       		.uleb128 0xb
 2232 0046 3B       		.uleb128 0x3b
 2233 0047 0B       		.uleb128 0xb
 2234 0048 27       		.uleb128 0x27
 2235 0049 19       		.uleb128 0x19
 2236 004a 11       		.uleb128 0x11
 2237 004b 01       		.uleb128 0x1
 2238 004c 12       		.uleb128 0x12
 2239 004d 06       		.uleb128 0x6
 2240 004e 40       		.uleb128 0x40
 2241 004f 18       		.uleb128 0x18
 2242 0050 9742     		.uleb128 0x2117
 2243 0052 19       		.uleb128 0x19
 2244 0053 01       		.uleb128 0x1
 2245 0054 13       		.uleb128 0x13
 2246 0055 00       		.byte	0
 2247 0056 00       		.byte	0
 2248 0057 07       		.uleb128 0x7
 2249 0058 898201   		.uleb128 0x4109
 2250 005b 01       		.byte	0x1
 2251 005c 11       		.uleb128 0x11
 2252 005d 01       		.uleb128 0x1
 2253 005e 31       		.uleb128 0x31
 2254 005f 13       		.uleb128 0x13
 2255 0060 01       		.uleb128 0x1
 2256 0061 13       		.uleb128 0x13
 2257 0062 00       		.byte	0
 2258 0063 00       		.byte	0
 2259 0064 08       		.uleb128 0x8
 2260 0065 8A8201   		.uleb128 0x410a
 2261 0068 00       		.byte	0
 2262 0069 02       		.uleb128 0x2
 2263 006a 18       		.uleb128 0x18
 2264 006b 9142     		.uleb128 0x2111
 2265 006d 18       		.uleb128 0x18
 2266 006e 00       		.byte	0
 2267 006f 00       		.byte	0
 2268 0070 09       		.uleb128 0x9
 2269 0071 898201   		.uleb128 0x4109
 2270 0074 01       		.byte	0x1
 2271 0075 11       		.uleb128 0x11
 2272 0076 01       		.uleb128 0x1
 2273 0077 31       		.uleb128 0x31
ARM GAS  C:\Users\tdoan1\AppData\Local\Temp\ccP2L39x.s 			page 69


 2274 0078 13       		.uleb128 0x13
 2275 0079 00       		.byte	0
 2276 007a 00       		.byte	0
 2277 007b 0A       		.uleb128 0xa
 2278 007c 34       		.uleb128 0x34
 2279 007d 00       		.byte	0
 2280 007e 03       		.uleb128 0x3
 2281 007f 0E       		.uleb128 0xe
 2282 0080 3A       		.uleb128 0x3a
 2283 0081 0B       		.uleb128 0xb
 2284 0082 3B       		.uleb128 0x3b
 2285 0083 0B       		.uleb128 0xb
 2286 0084 49       		.uleb128 0x49
 2287 0085 13       		.uleb128 0x13
 2288 0086 02       		.uleb128 0x2
 2289 0087 17       		.uleb128 0x17
 2290 0088 00       		.byte	0
 2291 0089 00       		.byte	0
 2292 008a 0B       		.uleb128 0xb
 2293 008b 898201   		.uleb128 0x4109
 2294 008e 00       		.byte	0
 2295 008f 11       		.uleb128 0x11
 2296 0090 01       		.uleb128 0x1
 2297 0091 31       		.uleb128 0x31
 2298 0092 13       		.uleb128 0x13
 2299 0093 00       		.byte	0
 2300 0094 00       		.byte	0
 2301 0095 0C       		.uleb128 0xc
 2302 0096 2E       		.uleb128 0x2e
 2303 0097 00       		.byte	0
 2304 0098 3F       		.uleb128 0x3f
 2305 0099 19       		.uleb128 0x19
 2306 009a 03       		.uleb128 0x3
 2307 009b 0E       		.uleb128 0xe
 2308 009c 3A       		.uleb128 0x3a
 2309 009d 0B       		.uleb128 0xb
 2310 009e 3B       		.uleb128 0x3b
 2311 009f 05       		.uleb128 0x5
 2312 00a0 27       		.uleb128 0x27
 2313 00a1 19       		.uleb128 0x19
 2314 00a2 49       		.uleb128 0x49
 2315 00a3 13       		.uleb128 0x13
 2316 00a4 11       		.uleb128 0x11
 2317 00a5 01       		.uleb128 0x1
 2318 00a6 12       		.uleb128 0x12
 2319 00a7 06       		.uleb128 0x6
 2320 00a8 40       		.uleb128 0x40
 2321 00a9 18       		.uleb128 0x18
 2322 00aa 9742     		.uleb128 0x2117
 2323 00ac 19       		.uleb128 0x19
 2324 00ad 00       		.byte	0
 2325 00ae 00       		.byte	0
 2326 00af 0D       		.uleb128 0xd
 2327 00b0 2E       		.uleb128 0x2e
 2328 00b1 01       		.byte	0x1
 2329 00b2 3F       		.uleb128 0x3f
 2330 00b3 19       		.uleb128 0x19
ARM GAS  C:\Users\tdoan1\AppData\Local\Temp\ccP2L39x.s 			page 70


 2331 00b4 03       		.uleb128 0x3
 2332 00b5 0E       		.uleb128 0xe
 2333 00b6 3A       		.uleb128 0x3a
 2334 00b7 0B       		.uleb128 0xb
 2335 00b8 3B       		.uleb128 0x3b
 2336 00b9 05       		.uleb128 0x5
 2337 00ba 27       		.uleb128 0x27
 2338 00bb 19       		.uleb128 0x19
 2339 00bc 11       		.uleb128 0x11
 2340 00bd 01       		.uleb128 0x1
 2341 00be 12       		.uleb128 0x12
 2342 00bf 06       		.uleb128 0x6
 2343 00c0 40       		.uleb128 0x40
 2344 00c1 18       		.uleb128 0x18
 2345 00c2 9742     		.uleb128 0x2117
 2346 00c4 19       		.uleb128 0x19
 2347 00c5 01       		.uleb128 0x1
 2348 00c6 13       		.uleb128 0x13
 2349 00c7 00       		.byte	0
 2350 00c8 00       		.byte	0
 2351 00c9 0E       		.uleb128 0xe
 2352 00ca 05       		.uleb128 0x5
 2353 00cb 00       		.byte	0
 2354 00cc 03       		.uleb128 0x3
 2355 00cd 0E       		.uleb128 0xe
 2356 00ce 3A       		.uleb128 0x3a
 2357 00cf 0B       		.uleb128 0xb
 2358 00d0 3B       		.uleb128 0x3b
 2359 00d1 05       		.uleb128 0x5
 2360 00d2 49       		.uleb128 0x49
 2361 00d3 13       		.uleb128 0x13
 2362 00d4 02       		.uleb128 0x2
 2363 00d5 18       		.uleb128 0x18
 2364 00d6 00       		.byte	0
 2365 00d7 00       		.byte	0
 2366 00d8 0F       		.uleb128 0xf
 2367 00d9 2E       		.uleb128 0x2e
 2368 00da 01       		.byte	0x1
 2369 00db 3F       		.uleb128 0x3f
 2370 00dc 19       		.uleb128 0x19
 2371 00dd 03       		.uleb128 0x3
 2372 00de 0E       		.uleb128 0xe
 2373 00df 3A       		.uleb128 0x3a
 2374 00e0 0B       		.uleb128 0xb
 2375 00e1 3B       		.uleb128 0x3b
 2376 00e2 05       		.uleb128 0x5
 2377 00e3 27       		.uleb128 0x27
 2378 00e4 19       		.uleb128 0x19
 2379 00e5 49       		.uleb128 0x49
 2380 00e6 13       		.uleb128 0x13
 2381 00e7 11       		.uleb128 0x11
 2382 00e8 01       		.uleb128 0x1
 2383 00e9 12       		.uleb128 0x12
 2384 00ea 06       		.uleb128 0x6
 2385 00eb 40       		.uleb128 0x40
 2386 00ec 18       		.uleb128 0x18
 2387 00ed 9742     		.uleb128 0x2117
ARM GAS  C:\Users\tdoan1\AppData\Local\Temp\ccP2L39x.s 			page 71


 2388 00ef 19       		.uleb128 0x19
 2389 00f0 01       		.uleb128 0x1
 2390 00f1 13       		.uleb128 0x13
 2391 00f2 00       		.byte	0
 2392 00f3 00       		.byte	0
 2393 00f4 10       		.uleb128 0x10
 2394 00f5 34       		.uleb128 0x34
 2395 00f6 00       		.byte	0
 2396 00f7 03       		.uleb128 0x3
 2397 00f8 0E       		.uleb128 0xe
 2398 00f9 3A       		.uleb128 0x3a
 2399 00fa 0B       		.uleb128 0xb
 2400 00fb 3B       		.uleb128 0x3b
 2401 00fc 05       		.uleb128 0x5
 2402 00fd 49       		.uleb128 0x49
 2403 00fe 13       		.uleb128 0x13
 2404 00ff 02       		.uleb128 0x2
 2405 0100 18       		.uleb128 0x18
 2406 0101 00       		.byte	0
 2407 0102 00       		.byte	0
 2408 0103 11       		.uleb128 0x11
 2409 0104 34       		.uleb128 0x34
 2410 0105 00       		.byte	0
 2411 0106 03       		.uleb128 0x3
 2412 0107 0E       		.uleb128 0xe
 2413 0108 3A       		.uleb128 0x3a
 2414 0109 0B       		.uleb128 0xb
 2415 010a 3B       		.uleb128 0x3b
 2416 010b 05       		.uleb128 0x5
 2417 010c 49       		.uleb128 0x49
 2418 010d 13       		.uleb128 0x13
 2419 010e 02       		.uleb128 0x2
 2420 010f 17       		.uleb128 0x17
 2421 0110 00       		.byte	0
 2422 0111 00       		.byte	0
 2423 0112 12       		.uleb128 0x12
 2424 0113 05       		.uleb128 0x5
 2425 0114 00       		.byte	0
 2426 0115 03       		.uleb128 0x3
 2427 0116 0E       		.uleb128 0xe
 2428 0117 3A       		.uleb128 0x3a
 2429 0118 0B       		.uleb128 0xb
 2430 0119 3B       		.uleb128 0x3b
 2431 011a 05       		.uleb128 0x5
 2432 011b 49       		.uleb128 0x49
 2433 011c 13       		.uleb128 0x13
 2434 011d 02       		.uleb128 0x2
 2435 011e 17       		.uleb128 0x17
 2436 011f 00       		.byte	0
 2437 0120 00       		.byte	0
 2438 0121 13       		.uleb128 0x13
 2439 0122 0F       		.uleb128 0xf
 2440 0123 00       		.byte	0
 2441 0124 0B       		.uleb128 0xb
 2442 0125 0B       		.uleb128 0xb
 2443 0126 49       		.uleb128 0x49
 2444 0127 13       		.uleb128 0x13
ARM GAS  C:\Users\tdoan1\AppData\Local\Temp\ccP2L39x.s 			page 72


 2445 0128 00       		.byte	0
 2446 0129 00       		.byte	0
 2447 012a 14       		.uleb128 0x14
 2448 012b 26       		.uleb128 0x26
 2449 012c 00       		.byte	0
 2450 012d 49       		.uleb128 0x49
 2451 012e 13       		.uleb128 0x13
 2452 012f 00       		.byte	0
 2453 0130 00       		.byte	0
 2454 0131 15       		.uleb128 0x15
 2455 0132 0B       		.uleb128 0xb
 2456 0133 01       		.byte	0x1
 2457 0134 11       		.uleb128 0x11
 2458 0135 01       		.uleb128 0x1
 2459 0136 12       		.uleb128 0x12
 2460 0137 06       		.uleb128 0x6
 2461 0138 00       		.byte	0
 2462 0139 00       		.byte	0
 2463 013a 16       		.uleb128 0x16
 2464 013b 34       		.uleb128 0x34
 2465 013c 00       		.byte	0
 2466 013d 03       		.uleb128 0x3
 2467 013e 0E       		.uleb128 0xe
 2468 013f 3A       		.uleb128 0x3a
 2469 0140 0B       		.uleb128 0xb
 2470 0141 3B       		.uleb128 0x3b
 2471 0142 0B       		.uleb128 0xb
 2472 0143 49       		.uleb128 0x49
 2473 0144 13       		.uleb128 0x13
 2474 0145 3F       		.uleb128 0x3f
 2475 0146 19       		.uleb128 0x19
 2476 0147 02       		.uleb128 0x2
 2477 0148 18       		.uleb128 0x18
 2478 0149 00       		.byte	0
 2479 014a 00       		.byte	0
 2480 014b 17       		.uleb128 0x17
 2481 014c 01       		.uleb128 0x1
 2482 014d 01       		.byte	0x1
 2483 014e 49       		.uleb128 0x49
 2484 014f 13       		.uleb128 0x13
 2485 0150 01       		.uleb128 0x1
 2486 0151 13       		.uleb128 0x13
 2487 0152 00       		.byte	0
 2488 0153 00       		.byte	0
 2489 0154 18       		.uleb128 0x18
 2490 0155 21       		.uleb128 0x21
 2491 0156 00       		.byte	0
 2492 0157 49       		.uleb128 0x49
 2493 0158 13       		.uleb128 0x13
 2494 0159 2F       		.uleb128 0x2f
 2495 015a 0B       		.uleb128 0xb
 2496 015b 00       		.byte	0
 2497 015c 00       		.byte	0
 2498 015d 19       		.uleb128 0x19
 2499 015e 2E       		.uleb128 0x2e
 2500 015f 00       		.byte	0
 2501 0160 3F       		.uleb128 0x3f
ARM GAS  C:\Users\tdoan1\AppData\Local\Temp\ccP2L39x.s 			page 73


 2502 0161 19       		.uleb128 0x19
 2503 0162 3C       		.uleb128 0x3c
 2504 0163 19       		.uleb128 0x19
 2505 0164 6E       		.uleb128 0x6e
 2506 0165 0E       		.uleb128 0xe
 2507 0166 03       		.uleb128 0x3
 2508 0167 0E       		.uleb128 0xe
 2509 0168 3A       		.uleb128 0x3a
 2510 0169 0B       		.uleb128 0xb
 2511 016a 3B       		.uleb128 0x3b
 2512 016b 0B       		.uleb128 0xb
 2513 016c 00       		.byte	0
 2514 016d 00       		.byte	0
 2515 016e 00       		.byte	0
 2516              		.section	.debug_loc,"",%progbits
 2517              	.Ldebug_loc0:
 2518              	.LLST0:
 2519 0000 08000000 		.4byte	.LVL3
 2520 0004 40000000 		.4byte	.LVL8
 2521 0008 0100     		.2byte	0x1
 2522 000a 54       		.byte	0x54
 2523 000b 00000000 		.4byte	0
 2524 000f 00000000 		.4byte	0
 2525              	.LLST1:
 2526 0013 08000000 		.4byte	.LVL12
 2527 0017 34000000 		.4byte	.LVL16
 2528 001b 0100     		.2byte	0x1
 2529 001d 54       		.byte	0x54
 2530 001e 00000000 		.4byte	0
 2531 0022 00000000 		.4byte	0
 2532              	.LLST2:
 2533 0026 00000000 		.4byte	.LVL21
 2534 002a 10000000 		.4byte	.LVL23
 2535 002e 0200     		.2byte	0x2
 2536 0030 30       		.byte	0x30
 2537 0031 9F       		.byte	0x9f
 2538 0032 10000000 		.4byte	.LVL23
 2539 0036 18000000 		.4byte	.LVL24
 2540 003a 0100     		.2byte	0x1
 2541 003c 50       		.byte	0x50
 2542 003d 18000000 		.4byte	.LVL24
 2543 0041 1C000000 		.4byte	.LVL25
 2544 0045 0200     		.2byte	0x2
 2545 0047 30       		.byte	0x30
 2546 0048 9F       		.byte	0x9f
 2547 0049 1C000000 		.4byte	.LVL25
 2548 004d 28000000 		.4byte	.LFE9
 2549 0051 0100     		.2byte	0x1
 2550 0053 50       		.byte	0x50
 2551 0054 00000000 		.4byte	0
 2552 0058 00000000 		.4byte	0
 2553              	.LLST3:
 2554 005c 06000000 		.4byte	.LVL30
 2555 0060 1D000000 		.4byte	.LVL31-1
 2556 0064 0100     		.2byte	0x1
 2557 0066 50       		.byte	0x50
 2558 0067 00000000 		.4byte	0
ARM GAS  C:\Users\tdoan1\AppData\Local\Temp\ccP2L39x.s 			page 74


 2559 006b 00000000 		.4byte	0
 2560              	.LLST4:
 2561 006f 00000000 		.4byte	.LVL36
 2562 0073 0E000000 		.4byte	.LVL37
 2563 0077 0100     		.2byte	0x1
 2564 0079 50       		.byte	0x50
 2565 007a 0E000000 		.4byte	.LVL37
 2566 007e 5C000000 		.4byte	.LFE17
 2567 0082 0400     		.2byte	0x4
 2568 0084 F3       		.byte	0xf3
 2569 0085 01       		.uleb128 0x1
 2570 0086 50       		.byte	0x50
 2571 0087 9F       		.byte	0x9f
 2572 0088 00000000 		.4byte	0
 2573 008c 00000000 		.4byte	0
 2574              	.LLST5:
 2575 0090 00000000 		.4byte	.LVL40
 2576 0094 54000000 		.4byte	.LVL45
 2577 0098 0100     		.2byte	0x1
 2578 009a 50       		.byte	0x50
 2579 009b 54000000 		.4byte	.LVL45
 2580 009f 57000000 		.4byte	.LVL46-1
 2581 00a3 0800     		.2byte	0x8
 2582 00a5 71       		.byte	0x71
 2583 00a6 00       		.sleb128 0
 2584 00a7 03       		.byte	0x3
 2585 00a8 FFFFFFFF 		.4byte	UART_txBuffer-1
 2586 00ac 22       		.byte	0x22
 2587 00ad 57000000 		.4byte	.LVL46-1
 2588 00b1 6C000000 		.4byte	.LFE19
 2589 00b5 0400     		.2byte	0x4
 2590 00b7 F3       		.byte	0xf3
 2591 00b8 01       		.uleb128 0x1
 2592 00b9 50       		.byte	0x50
 2593 00ba 9F       		.byte	0x9f
 2594 00bb 00000000 		.4byte	0
 2595 00bf 00000000 		.4byte	0
 2596              	.LLST6:
 2597 00c3 06000000 		.4byte	.LVL41
 2598 00c7 57000000 		.4byte	.LVL46-1
 2599 00cb 0100     		.2byte	0x1
 2600 00cd 51       		.byte	0x51
 2601 00ce 00000000 		.4byte	0
 2602 00d2 00000000 		.4byte	0
 2603              	.LLST7:
 2604 00d6 0A000000 		.4byte	.LVL42
 2605 00da 57000000 		.4byte	.LVL46-1
 2606 00de 0100     		.2byte	0x1
 2607 00e0 52       		.byte	0x52
 2608 00e1 00000000 		.4byte	0
 2609 00e5 00000000 		.4byte	0
 2610              	.LLST8:
 2611 00e9 00000000 		.4byte	.LVL47
 2612 00ed 0E000000 		.4byte	.LVL49
 2613 00f1 0100     		.2byte	0x1
 2614 00f3 50       		.byte	0x50
 2615 00f4 0E000000 		.4byte	.LVL49
ARM GAS  C:\Users\tdoan1\AppData\Local\Temp\ccP2L39x.s 			page 75


 2616 00f8 18000000 		.4byte	.LVL53
 2617 00fc 0100     		.2byte	0x1
 2618 00fe 55       		.byte	0x55
 2619 00ff 18000000 		.4byte	.LVL53
 2620 0103 1A000000 		.4byte	.LVL54
 2621 0107 0100     		.2byte	0x1
 2622 0109 50       		.byte	0x50
 2623 010a 1A000000 		.4byte	.LVL54
 2624 010e 20000000 		.4byte	.LVL56
 2625 0112 0100     		.2byte	0x1
 2626 0114 55       		.byte	0x55
 2627 0115 20000000 		.4byte	.LVL56
 2628 0119 28000000 		.4byte	.LFE20
 2629 011d 0400     		.2byte	0x4
 2630 011f F3       		.byte	0xf3
 2631 0120 01       		.uleb128 0x1
 2632 0121 50       		.byte	0x50
 2633 0122 9F       		.byte	0x9f
 2634 0123 00000000 		.4byte	0
 2635 0127 00000000 		.4byte	0
 2636              	.LLST9:
 2637 012b 04000000 		.4byte	.LVL48
 2638 012f 0E000000 		.4byte	.LVL49
 2639 0133 0200     		.2byte	0x2
 2640 0135 30       		.byte	0x30
 2641 0136 9F       		.byte	0x9f
 2642 0137 0E000000 		.4byte	.LVL49
 2643 013b 14000000 		.4byte	.LVL51
 2644 013f 0100     		.2byte	0x1
 2645 0141 54       		.byte	0x54
 2646 0142 16000000 		.4byte	.LVL52
 2647 0146 18000000 		.4byte	.LVL53
 2648 014a 0100     		.2byte	0x1
 2649 014c 54       		.byte	0x54
 2650 014d 18000000 		.4byte	.LVL53
 2651 0151 1A000000 		.4byte	.LVL54
 2652 0155 0200     		.2byte	0x2
 2653 0157 30       		.byte	0x30
 2654 0158 9F       		.byte	0x9f
 2655 0159 1A000000 		.4byte	.LVL54
 2656 015d 20000000 		.4byte	.LVL55
 2657 0161 0100     		.2byte	0x1
 2658 0163 54       		.byte	0x54
 2659 0164 00000000 		.4byte	0
 2660 0168 00000000 		.4byte	0
 2661              	.LLST10:
 2662 016c 00000000 		.4byte	.LVL57
 2663 0170 10000000 		.4byte	.LVL59
 2664 0174 0100     		.2byte	0x1
 2665 0176 50       		.byte	0x50
 2666 0177 10000000 		.4byte	.LVL59
 2667 017b 1C000000 		.4byte	.LVL63
 2668 017f 0100     		.2byte	0x1
 2669 0181 56       		.byte	0x56
 2670 0182 1C000000 		.4byte	.LVL63
 2671 0186 1E000000 		.4byte	.LVL64
 2672 018a 0100     		.2byte	0x1
ARM GAS  C:\Users\tdoan1\AppData\Local\Temp\ccP2L39x.s 			page 76


 2673 018c 50       		.byte	0x50
 2674 018d 1E000000 		.4byte	.LVL64
 2675 0191 22000000 		.4byte	.LVL66
 2676 0195 0100     		.2byte	0x1
 2677 0197 56       		.byte	0x56
 2678 0198 22000000 		.4byte	.LVL66
 2679 019c 28000000 		.4byte	.LFE21
 2680 01a0 0400     		.2byte	0x4
 2681 01a2 F3       		.byte	0xf3
 2682 01a3 01       		.uleb128 0x1
 2683 01a4 50       		.byte	0x50
 2684 01a5 9F       		.byte	0x9f
 2685 01a6 00000000 		.4byte	0
 2686 01aa 00000000 		.4byte	0
 2687              	.LLST11:
 2688 01ae 00000000 		.4byte	.LVL57
 2689 01b2 10000000 		.4byte	.LVL59
 2690 01b6 0100     		.2byte	0x1
 2691 01b8 51       		.byte	0x51
 2692 01b9 10000000 		.4byte	.LVL59
 2693 01bd 1C000000 		.4byte	.LVL63
 2694 01c1 0400     		.2byte	0x4
 2695 01c3 F3       		.byte	0xf3
 2696 01c4 01       		.uleb128 0x1
 2697 01c5 51       		.byte	0x51
 2698 01c6 9F       		.byte	0x9f
 2699 01c7 1C000000 		.4byte	.LVL63
 2700 01cb 1E000000 		.4byte	.LVL64
 2701 01cf 0100     		.2byte	0x1
 2702 01d1 51       		.byte	0x51
 2703 01d2 1E000000 		.4byte	.LVL64
 2704 01d6 28000000 		.4byte	.LFE21
 2705 01da 0400     		.2byte	0x4
 2706 01dc F3       		.byte	0xf3
 2707 01dd 01       		.uleb128 0x1
 2708 01de 51       		.byte	0x51
 2709 01df 9F       		.byte	0x9f
 2710 01e0 00000000 		.4byte	0
 2711 01e4 00000000 		.4byte	0
 2712              	.LLST12:
 2713 01e8 06000000 		.4byte	.LVL58
 2714 01ec 10000000 		.4byte	.LVL59
 2715 01f0 0200     		.2byte	0x2
 2716 01f2 30       		.byte	0x30
 2717 01f3 9F       		.byte	0x9f
 2718 01f4 10000000 		.4byte	.LVL59
 2719 01f8 18000000 		.4byte	.LVL61
 2720 01fc 0100     		.2byte	0x1
 2721 01fe 54       		.byte	0x54
 2722 01ff 1A000000 		.4byte	.LVL62
 2723 0203 1C000000 		.4byte	.LVL63
 2724 0207 0100     		.2byte	0x1
 2725 0209 54       		.byte	0x54
 2726 020a 1C000000 		.4byte	.LVL63
 2727 020e 1E000000 		.4byte	.LVL64
 2728 0212 0200     		.2byte	0x2
 2729 0214 30       		.byte	0x30
ARM GAS  C:\Users\tdoan1\AppData\Local\Temp\ccP2L39x.s 			page 77


 2730 0215 9F       		.byte	0x9f
 2731 0216 1E000000 		.4byte	.LVL64
 2732 021a 22000000 		.4byte	.LVL65
 2733 021e 0100     		.2byte	0x1
 2734 0220 54       		.byte	0x54
 2735 0221 00000000 		.4byte	0
 2736 0225 00000000 		.4byte	0
 2737              	.LLST13:
 2738 0229 00000000 		.4byte	.LVL67
 2739 022d 0D000000 		.4byte	.LVL68-1
 2740 0231 0100     		.2byte	0x1
 2741 0233 50       		.byte	0x50
 2742 0234 0D000000 		.4byte	.LVL68-1
 2743 0238 20000000 		.4byte	.LFE22
 2744 023c 0400     		.2byte	0x4
 2745 023e F3       		.byte	0xf3
 2746 023f 01       		.uleb128 0x1
 2747 0240 50       		.byte	0x50
 2748 0241 9F       		.byte	0x9f
 2749 0242 00000000 		.4byte	0
 2750 0246 00000000 		.4byte	0
 2751              	.LLST14:
 2752 024a 26000000 		.4byte	.LVL72
 2753 024e 28000000 		.4byte	.LVL73
 2754 0252 0100     		.2byte	0x1
 2755 0254 54       		.byte	0x54
 2756 0255 32000000 		.4byte	.LVL74
 2757 0259 34000000 		.4byte	.LVL75
 2758 025d 0100     		.2byte	0x1
 2759 025f 54       		.byte	0x54
 2760 0260 36000000 		.4byte	.LVL76
 2761 0264 3E000000 		.4byte	.LVL78
 2762 0268 0100     		.2byte	0x1
 2763 026a 54       		.byte	0x54
 2764 026b 00000000 		.4byte	0
 2765 026f 00000000 		.4byte	0
 2766              	.LLST15:
 2767 0273 06000000 		.4byte	.LVL79
 2768 0277 1D000000 		.4byte	.LVL80-1
 2769 027b 0100     		.2byte	0x1
 2770 027d 50       		.byte	0x50
 2771 027e 00000000 		.4byte	0
 2772 0282 00000000 		.4byte	0
 2773              	.LLST16:
 2774 0286 00000000 		.4byte	.LVL83
 2775 028a 3E000000 		.4byte	.LVL88
 2776 028e 0100     		.2byte	0x1
 2777 0290 50       		.byte	0x50
 2778 0291 3E000000 		.4byte	.LVL88
 2779 0295 60000000 		.4byte	.LFE25
 2780 0299 0400     		.2byte	0x4
 2781 029b F3       		.byte	0xf3
 2782 029c 01       		.uleb128 0x1
 2783 029d 50       		.byte	0x50
 2784 029e 9F       		.byte	0x9f
 2785 029f 00000000 		.4byte	0
 2786 02a3 00000000 		.4byte	0
ARM GAS  C:\Users\tdoan1\AppData\Local\Temp\ccP2L39x.s 			page 78


 2787              	.LLST17:
 2788 02a7 26000000 		.4byte	.LVL84
 2789 02ab 2A000000 		.4byte	.LVL85
 2790 02af 0100     		.2byte	0x1
 2791 02b1 53       		.byte	0x53
 2792 02b2 36000000 		.4byte	.LVL86
 2793 02b6 3C000000 		.4byte	.LVL87
 2794 02ba 0100     		.2byte	0x1
 2795 02bc 52       		.byte	0x52
 2796 02bd 00000000 		.4byte	0
 2797 02c1 00000000 		.4byte	0
 2798              		.section	.debug_aranges,"",%progbits
 2799 0000 EC000000 		.4byte	0xec
 2800 0004 0200     		.2byte	0x2
 2801 0006 00000000 		.4byte	.Ldebug_info0
 2802 000a 04       		.byte	0x4
 2803 000b 00       		.byte	0
 2804 000c 0000     		.2byte	0
 2805 000e 0000     		.2byte	0
 2806 0010 00000000 		.4byte	.LFB1
 2807 0014 4C000000 		.4byte	.LFE1-.LFB1
 2808 0018 00000000 		.4byte	.LFB2
 2809 001c 50000000 		.4byte	.LFE2-.LFB2
 2810 0020 00000000 		.4byte	.LFB0
 2811 0024 20000000 		.4byte	.LFE0-.LFB0
 2812 0028 00000000 		.4byte	.LFB3
 2813 002c 44000000 		.4byte	.LFE3-.LFB3
 2814 0030 00000000 		.4byte	.LFB4
 2815 0034 04000000 		.4byte	.LFE4-.LFB4
 2816 0038 00000000 		.4byte	.LFB5
 2817 003c 02000000 		.4byte	.LFE5-.LFB5
 2818 0040 00000000 		.4byte	.LFB6
 2819 0044 0C000000 		.4byte	.LFE6-.LFB6
 2820 0048 00000000 		.4byte	.LFB7
 2821 004c 0C000000 		.4byte	.LFE7-.LFB7
 2822 0050 00000000 		.4byte	.LFB8
 2823 0054 10000000 		.4byte	.LFE8-.LFB8
 2824 0058 00000000 		.4byte	.LFB9
 2825 005c 28000000 		.4byte	.LFE9-.LFB9
 2826 0060 00000000 		.4byte	.LFB10
 2827 0064 12000000 		.4byte	.LFE10-.LFB10
 2828 0068 00000000 		.4byte	.LFB11
 2829 006c 14000000 		.4byte	.LFE11-.LFB11
 2830 0070 00000000 		.4byte	.LFB12
 2831 0074 24000000 		.4byte	.LFE12-.LFB12
 2832 0078 00000000 		.4byte	.LFB13
 2833 007c 02000000 		.4byte	.LFE13-.LFB13
 2834 0080 00000000 		.4byte	.LFB14
 2835 0084 0C000000 		.4byte	.LFE14-.LFB14
 2836 0088 00000000 		.4byte	.LFB15
 2837 008c 0C000000 		.4byte	.LFE15-.LFB15
 2838 0090 00000000 		.4byte	.LFB16
 2839 0094 0C000000 		.4byte	.LFE16-.LFB16
 2840 0098 00000000 		.4byte	.LFB17
 2841 009c 5C000000 		.4byte	.LFE17-.LFB17
 2842 00a0 00000000 		.4byte	.LFB18
 2843 00a4 0C000000 		.4byte	.LFE18-.LFB18
ARM GAS  C:\Users\tdoan1\AppData\Local\Temp\ccP2L39x.s 			page 79


 2844 00a8 00000000 		.4byte	.LFB19
 2845 00ac 6C000000 		.4byte	.LFE19-.LFB19
 2846 00b0 00000000 		.4byte	.LFB20
 2847 00b4 28000000 		.4byte	.LFE20-.LFB20
 2848 00b8 00000000 		.4byte	.LFB21
 2849 00bc 28000000 		.4byte	.LFE21-.LFB21
 2850 00c0 00000000 		.4byte	.LFB22
 2851 00c4 20000000 		.4byte	.LFE22-.LFB22
 2852 00c8 00000000 		.4byte	.LFB23
 2853 00cc 44000000 		.4byte	.LFE23-.LFB23
 2854 00d0 00000000 		.4byte	.LFB24
 2855 00d4 3C000000 		.4byte	.LFE24-.LFB24
 2856 00d8 00000000 		.4byte	.LFB25
 2857 00dc 60000000 		.4byte	.LFE25-.LFB25
 2858 00e0 00000000 		.4byte	.LFB26
 2859 00e4 02000000 		.4byte	.LFE26-.LFB26
 2860 00e8 00000000 		.4byte	0
 2861 00ec 00000000 		.4byte	0
 2862              		.section	.debug_ranges,"",%progbits
 2863              	.Ldebug_ranges0:
 2864 0000 00000000 		.4byte	.LFB1
 2865 0004 4C000000 		.4byte	.LFE1
 2866 0008 00000000 		.4byte	.LFB2
 2867 000c 50000000 		.4byte	.LFE2
 2868 0010 00000000 		.4byte	.LFB0
 2869 0014 20000000 		.4byte	.LFE0
 2870 0018 00000000 		.4byte	.LFB3
 2871 001c 44000000 		.4byte	.LFE3
 2872 0020 00000000 		.4byte	.LFB4
 2873 0024 04000000 		.4byte	.LFE4
 2874 0028 00000000 		.4byte	.LFB5
 2875 002c 02000000 		.4byte	.LFE5
 2876 0030 00000000 		.4byte	.LFB6
 2877 0034 0C000000 		.4byte	.LFE6
 2878 0038 00000000 		.4byte	.LFB7
 2879 003c 0C000000 		.4byte	.LFE7
 2880 0040 00000000 		.4byte	.LFB8
 2881 0044 10000000 		.4byte	.LFE8
 2882 0048 00000000 		.4byte	.LFB9
 2883 004c 28000000 		.4byte	.LFE9
 2884 0050 00000000 		.4byte	.LFB10
 2885 0054 12000000 		.4byte	.LFE10
 2886 0058 00000000 		.4byte	.LFB11
 2887 005c 14000000 		.4byte	.LFE11
 2888 0060 00000000 		.4byte	.LFB12
 2889 0064 24000000 		.4byte	.LFE12
 2890 0068 00000000 		.4byte	.LFB13
 2891 006c 02000000 		.4byte	.LFE13
 2892 0070 00000000 		.4byte	.LFB14
 2893 0074 0C000000 		.4byte	.LFE14
 2894 0078 00000000 		.4byte	.LFB15
 2895 007c 0C000000 		.4byte	.LFE15
 2896 0080 00000000 		.4byte	.LFB16
 2897 0084 0C000000 		.4byte	.LFE16
 2898 0088 00000000 		.4byte	.LFB17
 2899 008c 5C000000 		.4byte	.LFE17
 2900 0090 00000000 		.4byte	.LFB18
ARM GAS  C:\Users\tdoan1\AppData\Local\Temp\ccP2L39x.s 			page 80


 2901 0094 0C000000 		.4byte	.LFE18
 2902 0098 00000000 		.4byte	.LFB19
 2903 009c 6C000000 		.4byte	.LFE19
 2904 00a0 00000000 		.4byte	.LFB20
 2905 00a4 28000000 		.4byte	.LFE20
 2906 00a8 00000000 		.4byte	.LFB21
 2907 00ac 28000000 		.4byte	.LFE21
 2908 00b0 00000000 		.4byte	.LFB22
 2909 00b4 20000000 		.4byte	.LFE22
 2910 00b8 00000000 		.4byte	.LFB23
 2911 00bc 44000000 		.4byte	.LFE23
 2912 00c0 00000000 		.4byte	.LFB24
 2913 00c4 3C000000 		.4byte	.LFE24
 2914 00c8 00000000 		.4byte	.LFB25
 2915 00cc 60000000 		.4byte	.LFE25
 2916 00d0 00000000 		.4byte	.LFB26
 2917 00d4 02000000 		.4byte	.LFE26
 2918 00d8 00000000 		.4byte	0
 2919 00dc 00000000 		.4byte	0
 2920              		.section	.debug_line,"",%progbits
 2921              	.Ldebug_line0:
 2922 0000 16030000 		.section	.debug_str,"MS",%progbits,1
 2922      02005F00 
 2922      00000201 
 2922      FB0E0D00 
 2922      01010101 
 2923              	.LASF10:
 2924 0000 75696E74 		.ascii	"uint16\000"
 2924      313600
 2925              	.LASF73:
 2926 0007 43794578 		.ascii	"CyExitCriticalSection\000"
 2926      69744372 
 2926      69746963 
 2926      616C5365 
 2926      6374696F 
 2927              	.LASF44:
 2928 001d 74784461 		.ascii	"txDataByte\000"
 2928      74614279 
 2928      746500
 2929              	.LASF66:
 2930 0028 55415254 		.ascii	"UART_txBufferWrite\000"
 2930      5F747842 
 2930      75666665 
 2930      72577269 
 2930      746500
 2931              	.LASF51:
 2932 003b 73747269 		.ascii	"string\000"
 2932      6E6700
 2933              	.LASF77:
 2934 0042 474E5520 		.ascii	"GNU C11 5.4.1 20160609 (release) [ARM/embedded-5-br"
 2934      43313120 
 2934      352E342E 
 2934      31203230 
 2934      31363036 
 2935 0075 616E6368 		.ascii	"anch revision 237715] -mcpu=cortex-m0 -mthumb -g -O"
 2935      20726576 
 2935      6973696F 
ARM GAS  C:\Users\tdoan1\AppData\Local\Temp\ccP2L39x.s 			page 81


 2935      6E203233 
 2935      37373135 
 2936 00a8 67202D66 		.ascii	"g -ffunction-sections -ffat-lto-objects\000"
 2936      66756E63 
 2936      74696F6E 
 2936      2D736563 
 2936      74696F6E 
 2937              	.LASF7:
 2938 00d0 6C6F6E67 		.ascii	"long long unsigned int\000"
 2938      206C6F6E 
 2938      6720756E 
 2938      7369676E 
 2938      65642069 
 2939              	.LASF20:
 2940 00e7 55415254 		.ascii	"UART_Start\000"
 2940      5F537461 
 2940      727400
 2941              	.LASF42:
 2942 00f2 55415254 		.ascii	"UART_SetTxInterruptMode\000"
 2942      5F536574 
 2942      5478496E 
 2942      74657272 
 2942      7570744D 
 2943              	.LASF65:
 2944 010a 55415254 		.ascii	"UART_txBufferRead\000"
 2944      5F747842 
 2944      75666665 
 2944      72526561 
 2944      6400
 2945              	.LASF6:
 2946 011c 6C6F6E67 		.ascii	"long long int\000"
 2946      206C6F6E 
 2946      6720696E 
 2946      7400
 2947              	.LASF0:
 2948 012a 7369676E 		.ascii	"signed char\000"
 2948      65642063 
 2948      68617200 
 2949              	.LASF61:
 2950 0136 74785065 		.ascii	"txPeriod\000"
 2950      72696F64 
 2950      00
 2951              	.LASF4:
 2952 013f 6C6F6E67 		.ascii	"long int\000"
 2952      20696E74 
 2952      00
 2953              	.LASF75:
 2954 0148 4379496E 		.ascii	"CyIntDisable\000"
 2954      74446973 
 2954      61626C65 
 2954      00
 2955              	.LASF47:
 2956 0155 55415254 		.ascii	"UART_PutChar\000"
 2956      5F507574 
 2956      43686172 
 2956      00
 2957              	.LASF28:
ARM GAS  C:\Users\tdoan1\AppData\Local\Temp\ccP2L39x.s 			page 82


 2958 0162 55415254 		.ascii	"UART_ReadRxData\000"
 2958      5F526561 
 2958      64527844 
 2958      61746100 
 2959              	.LASF9:
 2960 0172 75696E74 		.ascii	"uint8\000"
 2960      3800
 2961              	.LASF45:
 2962 0178 55415254 		.ascii	"UART_ReadControlRegister\000"
 2962      5F526561 
 2962      64436F6E 
 2962      74726F6C 
 2962      52656769 
 2963              	.LASF12:
 2964 0191 646F7562 		.ascii	"double\000"
 2964      6C6500
 2965              	.LASF38:
 2966 0198 61646472 		.ascii	"addressMode\000"
 2966      6573734D 
 2966      6F646500 
 2967              	.LASF25:
 2968 01a4 636F6E74 		.ascii	"control\000"
 2968      726F6C00 
 2969              	.LASF49:
 2970 01ac 6C6F6354 		.ascii	"locTxBufferRead\000"
 2970      78427566 
 2970      66657252 
 2970      65616400 
 2971              	.LASF18:
 2972 01bc 55415254 		.ascii	"UART_Init\000"
 2972      5F496E69 
 2972      7400
 2973              	.LASF64:
 2974 01c6 55415254 		.ascii	"UART_txBuffer\000"
 2974      5F747842 
 2974      75666665 
 2974      7200
 2975              	.LASF59:
 2976 01d4 7265744D 		.ascii	"retMode\000"
 2976      6F646500 
 2977              	.LASF33:
 2978 01dc 55415254 		.ascii	"UART_GetByte\000"
 2978      5F476574 
 2978      42797465 
 2978      00
 2979              	.LASF8:
 2980 01e9 756E7369 		.ascii	"unsigned int\000"
 2980      676E6564 
 2980      20696E74 
 2980      00
 2981              	.LASF57:
 2982 01f6 55415254 		.ascii	"UART_ClearTxBuffer\000"
 2982      5F436C65 
 2982      61725478 
 2982      42756666 
 2982      657200
 2983              	.LASF55:
ARM GAS  C:\Users\tdoan1\AppData\Local\Temp\ccP2L39x.s 			page 83


 2984 0209 55415254 		.ascii	"UART_PutCRLF\000"
 2984      5F507574 
 2984      43524C46 
 2984      00
 2985              	.LASF5:
 2986 0216 6C6F6E67 		.ascii	"long unsigned int\000"
 2986      20756E73 
 2986      69676E65 
 2986      6420696E 
 2986      7400
 2987              	.LASF48:
 2988 0228 6C6F6354 		.ascii	"locTxBufferWrite\000"
 2988      78427566 
 2988      66657257 
 2988      72697465 
 2988      00
 2989              	.LASF53:
 2990 0239 55415254 		.ascii	"UART_PutArray\000"
 2990      5F507574 
 2990      41727261 
 2990      7900
 2991              	.LASF69:
 2992 0247 4379456E 		.ascii	"CyEnterCriticalSection\000"
 2992      74657243 
 2992      72697469 
 2992      63616C53 
 2992      65637469 
 2993              	.LASF76:
 2994 025e 4379496E 		.ascii	"CyIntSetPending\000"
 2994      74536574 
 2994      50656E64 
 2994      696E6700 
 2995              	.LASF35:
 2996 026e 73697A65 		.ascii	"size\000"
 2996      00
 2997              	.LASF3:
 2998 0273 73686F72 		.ascii	"short unsigned int\000"
 2998      7420756E 
 2998      7369676E 
 2998      65642069 
 2998      6E7400
 2999              	.LASF79:
 3000 0286 5C5C6D79 		.ascii	"\\\\myhome01.spu.edu\\users\\tdoan1\\Documents\\PSo"
 3000      686F6D65 
 3000      30312E73 
 3000      70752E65 
 3000      64755C75 
 3001 02b3 43204372 		.ascii	"C Creator\\PSoC 4 Wi-Fi Module tEst\\PSoC 4 Wi-Fi M"
 3001      6561746F 
 3001      725C5053 
 3001      6F432034 
 3001      2057692D 
 3002 02e4 6F64756C 		.ascii	"odule Test.cydsn\000"
 3002      65205465 
 3002      73742E63 
 3002      7964736E 
 3002      00
ARM GAS  C:\Users\tdoan1\AppData\Local\Temp\ccP2L39x.s 			page 84


 3003              	.LASF67:
 3004 02f5 4379496E 		.ascii	"CyIntSetVector\000"
 3004      74536574 
 3004      56656374 
 3004      6F7200
 3005              	.LASF52:
 3006 0304 62756649 		.ascii	"bufIndex\000"
 3006      6E646578 
 3006      00
 3007              	.LASF26:
 3008 030d 696E7453 		.ascii	"intSrc\000"
 3008      726300
 3009              	.LASF62:
 3010 0314 55415254 		.ascii	"UART_SetTxAddressMode\000"
 3010      5F536574 
 3010      54784164 
 3010      64726573 
 3010      734D6F64 
 3011              	.LASF46:
 3012 032a 55415254 		.ascii	"UART_ReadTxStatus\000"
 3012      5F526561 
 3012      64547853 
 3012      74617475 
 3012      7300
 3013              	.LASF72:
 3014 033c 55415254 		.ascii	"UART_IntClock_Start\000"
 3014      5F496E74 
 3014      436C6F63 
 3014      6B5F5374 
 3014      61727400 
 3015              	.LASF60:
 3016 0350 746D7053 		.ascii	"tmpStat\000"
 3016      74617400 
 3017              	.LASF17:
 3018 0358 73697A65 		.ascii	"sizetype\000"
 3018      74797065 
 3018      00
 3019              	.LASF70:
 3020 0361 4379496E 		.ascii	"CyIntClearPending\000"
 3020      74436C65 
 3020      61725065 
 3020      6E64696E 
 3020      6700
 3021              	.LASF16:
 3022 0373 6C6F6E67 		.ascii	"long double\000"
 3022      20646F75 
 3022      626C6500 
 3023              	.LASF40:
 3024 037f 61646472 		.ascii	"address\000"
 3024      65737300 
 3025              	.LASF39:
 3026 0387 55415254 		.ascii	"UART_SetRxAddress1\000"
 3026      5F536574 
 3026      52784164 
 3026      64726573 
 3026      733100
 3027              	.LASF41:
ARM GAS  C:\Users\tdoan1\AppData\Local\Temp\ccP2L39x.s 			page 85


 3028 039a 55415254 		.ascii	"UART_SetRxAddress2\000"
 3028      5F536574 
 3028      52784164 
 3028      64726573 
 3028      733200
 3029              	.LASF32:
 3030 03ad 72785374 		.ascii	"rxStatus\000"
 3030      61747573 
 3030      00
 3031              	.LASF74:
 3032 03b6 55415254 		.ascii	"UART_IntClock_Stop\000"
 3032      5F496E74 
 3032      436C6F63 
 3032      6B5F5374 
 3032      6F7000
 3033              	.LASF68:
 3034 03c9 4379496E 		.ascii	"CyIntSetPriority\000"
 3034      74536574 
 3034      5072696F 
 3034      72697479 
 3034      00
 3035              	.LASF11:
 3036 03da 666C6F61 		.ascii	"float\000"
 3036      7400
 3037              	.LASF56:
 3038 03e0 55415254 		.ascii	"UART_GetTxBufferSize\000"
 3038      5F476574 
 3038      54784275 
 3038      66666572 
 3038      53697A65 
 3039              	.LASF15:
 3040 03f5 72656738 		.ascii	"reg8\000"
 3040      00
 3041              	.LASF37:
 3042 03fa 55415254 		.ascii	"UART_SetRxAddressMode\000"
 3042      5F536574 
 3042      52784164 
 3042      64726573 
 3042      734D6F64 
 3043              	.LASF1:
 3044 0410 756E7369 		.ascii	"unsigned char\000"
 3044      676E6564 
 3044      20636861 
 3044      7200
 3045              	.LASF43:
 3046 041e 55415254 		.ascii	"UART_WriteTxData\000"
 3046      5F577269 
 3046      74655478 
 3046      44617461 
 3046      00
 3047              	.LASF2:
 3048 042f 73686F72 		.ascii	"short int\000"
 3048      7420696E 
 3048      7400
 3049              	.LASF71:
 3050 0439 4379496E 		.ascii	"CyIntEnable\000"
 3050      74456E61 
ARM GAS  C:\Users\tdoan1\AppData\Local\Temp\ccP2L39x.s 			page 86


 3050      626C6500 
 3051              	.LASF58:
 3052 0445 55415254 		.ascii	"UART_SendBreak\000"
 3052      5F53656E 
 3052      64427265 
 3052      616B00
 3053              	.LASF54:
 3054 0454 62797465 		.ascii	"byteCount\000"
 3054      436F756E 
 3054      7400
 3055              	.LASF27:
 3056 045e 72784461 		.ascii	"rxData\000"
 3056      746100
 3057              	.LASF19:
 3058 0465 55415254 		.ascii	"UART_Enable\000"
 3058      5F456E61 
 3058      626C6500 
 3059              	.LASF29:
 3060 0471 55415254 		.ascii	"UART_ReadRxStatus\000"
 3060      5F526561 
 3060      64527853 
 3060      74617475 
 3060      7300
 3061              	.LASF14:
 3062 0483 63686172 		.ascii	"char\000"
 3062      00
 3063              	.LASF13:
 3064 0488 63686172 		.ascii	"char8\000"
 3064      3800
 3065              	.LASF24:
 3066 048e 55415254 		.ascii	"UART_SetRxInterruptMode\000"
 3066      5F536574 
 3066      5278496E 
 3066      74657272 
 3066      7570744D 
 3067              	.LASF31:
 3068 04a6 55415254 		.ascii	"UART_GetChar\000"
 3068      5F476574 
 3068      43686172 
 3068      00
 3069              	.LASF22:
 3070 04b3 656E6162 		.ascii	"enableInterrupts\000"
 3070      6C65496E 
 3070      74657272 
 3070      75707473 
 3070      00
 3071              	.LASF63:
 3072 04c4 55415254 		.ascii	"UART_initVar\000"
 3072      5F696E69 
 3072      74566172 
 3072      00
 3073              	.LASF34:
 3074 04d1 55415254 		.ascii	"UART_GetRxBufferSize\000"
 3074      5F476574 
 3074      52784275 
 3074      66666572 
 3074      53697A65 
ARM GAS  C:\Users\tdoan1\AppData\Local\Temp\ccP2L39x.s 			page 87


 3075              	.LASF30:
 3076 04e6 73746174 		.ascii	"status\000"
 3076      757300
 3077              	.LASF21:
 3078 04ed 55415254 		.ascii	"UART_Stop\000"
 3078      5F53746F 
 3078      7000
 3079              	.LASF78:
 3080 04f7 47656E65 		.ascii	"Generated_Source\\PSoC4\\UART.c\000"
 3080      72617465 
 3080      645F536F 
 3080      75726365 
 3080      5C50536F 
 3081              	.LASF50:
 3082 0515 55415254 		.ascii	"UART_PutString\000"
 3082      5F507574 
 3082      53747269 
 3082      6E6700
 3083              	.LASF23:
 3084 0524 55415254 		.ascii	"UART_WriteControlRegister\000"
 3084      5F577269 
 3084      7465436F 
 3084      6E74726F 
 3084      6C526567 
 3085              	.LASF36:
 3086 053e 55415254 		.ascii	"UART_ClearRxBuffer\000"
 3086      5F436C65 
 3086      61725278 
 3086      42756666 
 3086      657200
 3087              		.ident	"GCC: (GNU Tools for ARM Embedded Processors) 5.4.1 20160609 (release) [ARM/embedded-5-bran
