ARM GAS  C:\Users\tdoan1\AppData\Local\Temp\ccyQOqtc.s 			page 1


   1              		.syntax unified
   2              		.cpu cortex-m0
   3              		.fpu softvfp
   4              		.eabi_attribute 20, 1
   5              		.eabi_attribute 21, 1
   6              		.eabi_attribute 23, 3
   7              		.eabi_attribute 24, 1
   8              		.eabi_attribute 25, 1
   9              		.eabi_attribute 26, 1
  10              		.eabi_attribute 30, 1
  11              		.eabi_attribute 34, 0
  12              		.eabi_attribute 18, 4
  13              		.thumb
  14              		.syntax unified
  15              		.file	"UART_1_UART.c"
  16              		.text
  17              	.Ltext0:
  18              		.cfi_sections	.debug_frame
  19              		.section	.text.UART_1_UartInit,"ax",%progbits
  20              		.align	2
  21              		.global	UART_1_UartInit
  22              		.code	16
  23              		.thumb_func
  24              		.type	UART_1_UartInit, %function
  25              	UART_1_UartInit:
  26              	.LFB0:
  27              		.file 1 "Generated_Source\\PSoC4\\UART_1_UART.c"
   1:Generated_Source\PSoC4/UART_1_UART.c **** /***************************************************************************//**
   2:Generated_Source\PSoC4/UART_1_UART.c **** * \file UART_1_UART.c
   3:Generated_Source\PSoC4/UART_1_UART.c **** * \version 3.20
   4:Generated_Source\PSoC4/UART_1_UART.c **** *
   5:Generated_Source\PSoC4/UART_1_UART.c **** * \brief
   6:Generated_Source\PSoC4/UART_1_UART.c **** *  This file provides the source code to the API for the SCB Component in
   7:Generated_Source\PSoC4/UART_1_UART.c **** *  UART mode.
   8:Generated_Source\PSoC4/UART_1_UART.c **** *
   9:Generated_Source\PSoC4/UART_1_UART.c **** * Note:
  10:Generated_Source\PSoC4/UART_1_UART.c **** *
  11:Generated_Source\PSoC4/UART_1_UART.c **** *******************************************************************************
  12:Generated_Source\PSoC4/UART_1_UART.c **** * \copyright
  13:Generated_Source\PSoC4/UART_1_UART.c **** * Copyright 2013-2016, Cypress Semiconductor Corporation.  All rights reserved.
  14:Generated_Source\PSoC4/UART_1_UART.c **** * You may use this file only in accordance with the license, terms, conditions,
  15:Generated_Source\PSoC4/UART_1_UART.c **** * disclaimers, and limitations in the end user license agreement accompanying
  16:Generated_Source\PSoC4/UART_1_UART.c **** * the software package with which this file was provided.
  17:Generated_Source\PSoC4/UART_1_UART.c **** *******************************************************************************/
  18:Generated_Source\PSoC4/UART_1_UART.c **** 
  19:Generated_Source\PSoC4/UART_1_UART.c **** #include "UART_1_PVT.h"
  20:Generated_Source\PSoC4/UART_1_UART.c **** #include "UART_1_SPI_UART_PVT.h"
  21:Generated_Source\PSoC4/UART_1_UART.c **** #include "cyapicallbacks.h"
  22:Generated_Source\PSoC4/UART_1_UART.c **** 
  23:Generated_Source\PSoC4/UART_1_UART.c **** #if (UART_1_UART_WAKE_ENABLE_CONST && UART_1_UART_RX_WAKEUP_IRQ)
  24:Generated_Source\PSoC4/UART_1_UART.c ****     /**
  25:Generated_Source\PSoC4/UART_1_UART.c ****     * \addtogroup group_globals
  26:Generated_Source\PSoC4/UART_1_UART.c ****     * \{
  27:Generated_Source\PSoC4/UART_1_UART.c ****     */
  28:Generated_Source\PSoC4/UART_1_UART.c ****     /** This global variable determines whether to enable Skip Start
  29:Generated_Source\PSoC4/UART_1_UART.c ****     * functionality when UART_1_Sleep() function is called:
  30:Generated_Source\PSoC4/UART_1_UART.c ****     * 0 – disable, other values – enable. Default value is 1.
ARM GAS  C:\Users\tdoan1\AppData\Local\Temp\ccyQOqtc.s 			page 2


  31:Generated_Source\PSoC4/UART_1_UART.c ****     * It is only available when Enable wakeup from Deep Sleep Mode is enabled.
  32:Generated_Source\PSoC4/UART_1_UART.c ****     */
  33:Generated_Source\PSoC4/UART_1_UART.c ****     uint8 UART_1_skipStart = 1u;
  34:Generated_Source\PSoC4/UART_1_UART.c ****     /** \} globals */
  35:Generated_Source\PSoC4/UART_1_UART.c **** #endif /* (UART_1_UART_WAKE_ENABLE_CONST && UART_1_UART_RX_WAKEUP_IRQ) */
  36:Generated_Source\PSoC4/UART_1_UART.c **** 
  37:Generated_Source\PSoC4/UART_1_UART.c **** #if(UART_1_SCB_MODE_UNCONFIG_CONST_CFG)
  38:Generated_Source\PSoC4/UART_1_UART.c **** 
  39:Generated_Source\PSoC4/UART_1_UART.c ****     /***************************************
  40:Generated_Source\PSoC4/UART_1_UART.c ****     *  Configuration Structure Initialization
  41:Generated_Source\PSoC4/UART_1_UART.c ****     ***************************************/
  42:Generated_Source\PSoC4/UART_1_UART.c **** 
  43:Generated_Source\PSoC4/UART_1_UART.c ****     const UART_1_UART_INIT_STRUCT UART_1_configUart =
  44:Generated_Source\PSoC4/UART_1_UART.c ****     {
  45:Generated_Source\PSoC4/UART_1_UART.c ****         UART_1_UART_SUB_MODE,
  46:Generated_Source\PSoC4/UART_1_UART.c ****         UART_1_UART_DIRECTION,
  47:Generated_Source\PSoC4/UART_1_UART.c ****         UART_1_UART_DATA_BITS_NUM,
  48:Generated_Source\PSoC4/UART_1_UART.c ****         UART_1_UART_PARITY_TYPE,
  49:Generated_Source\PSoC4/UART_1_UART.c ****         UART_1_UART_STOP_BITS_NUM,
  50:Generated_Source\PSoC4/UART_1_UART.c ****         UART_1_UART_OVS_FACTOR,
  51:Generated_Source\PSoC4/UART_1_UART.c ****         UART_1_UART_IRDA_LOW_POWER,
  52:Generated_Source\PSoC4/UART_1_UART.c ****         UART_1_UART_MEDIAN_FILTER_ENABLE,
  53:Generated_Source\PSoC4/UART_1_UART.c ****         UART_1_UART_RETRY_ON_NACK,
  54:Generated_Source\PSoC4/UART_1_UART.c ****         UART_1_UART_IRDA_POLARITY,
  55:Generated_Source\PSoC4/UART_1_UART.c ****         UART_1_UART_DROP_ON_PARITY_ERR,
  56:Generated_Source\PSoC4/UART_1_UART.c ****         UART_1_UART_DROP_ON_FRAME_ERR,
  57:Generated_Source\PSoC4/UART_1_UART.c ****         UART_1_UART_WAKE_ENABLE,
  58:Generated_Source\PSoC4/UART_1_UART.c ****         0u,
  59:Generated_Source\PSoC4/UART_1_UART.c ****         NULL,
  60:Generated_Source\PSoC4/UART_1_UART.c ****         0u,
  61:Generated_Source\PSoC4/UART_1_UART.c ****         NULL,
  62:Generated_Source\PSoC4/UART_1_UART.c ****         UART_1_UART_MP_MODE_ENABLE,
  63:Generated_Source\PSoC4/UART_1_UART.c ****         UART_1_UART_MP_ACCEPT_ADDRESS,
  64:Generated_Source\PSoC4/UART_1_UART.c ****         UART_1_UART_MP_RX_ADDRESS,
  65:Generated_Source\PSoC4/UART_1_UART.c ****         UART_1_UART_MP_RX_ADDRESS_MASK,
  66:Generated_Source\PSoC4/UART_1_UART.c ****         (uint32) UART_1_SCB_IRQ_INTERNAL,
  67:Generated_Source\PSoC4/UART_1_UART.c ****         UART_1_UART_INTR_RX_MASK,
  68:Generated_Source\PSoC4/UART_1_UART.c ****         UART_1_UART_RX_TRIGGER_LEVEL,
  69:Generated_Source\PSoC4/UART_1_UART.c ****         UART_1_UART_INTR_TX_MASK,
  70:Generated_Source\PSoC4/UART_1_UART.c ****         UART_1_UART_TX_TRIGGER_LEVEL,
  71:Generated_Source\PSoC4/UART_1_UART.c ****         (uint8) UART_1_UART_BYTE_MODE_ENABLE,
  72:Generated_Source\PSoC4/UART_1_UART.c ****         (uint8) UART_1_UART_CTS_ENABLE,
  73:Generated_Source\PSoC4/UART_1_UART.c ****         (uint8) UART_1_UART_CTS_POLARITY,
  74:Generated_Source\PSoC4/UART_1_UART.c ****         (uint8) UART_1_UART_RTS_POLARITY,
  75:Generated_Source\PSoC4/UART_1_UART.c ****         (uint8) UART_1_UART_RTS_FIFO_LEVEL
  76:Generated_Source\PSoC4/UART_1_UART.c ****     };
  77:Generated_Source\PSoC4/UART_1_UART.c **** 
  78:Generated_Source\PSoC4/UART_1_UART.c **** 
  79:Generated_Source\PSoC4/UART_1_UART.c ****     /*******************************************************************************
  80:Generated_Source\PSoC4/UART_1_UART.c ****     * Function Name: UART_1_UartInit
  81:Generated_Source\PSoC4/UART_1_UART.c ****     ****************************************************************************//**
  82:Generated_Source\PSoC4/UART_1_UART.c ****     *
  83:Generated_Source\PSoC4/UART_1_UART.c ****     *  Configures the UART_1 for UART operation.
  84:Generated_Source\PSoC4/UART_1_UART.c ****     *
  85:Generated_Source\PSoC4/UART_1_UART.c ****     *  This function is intended specifically to be used when the UART_1
  86:Generated_Source\PSoC4/UART_1_UART.c ****     *  configuration is set to “Unconfigured UART_1” in the customizer.
  87:Generated_Source\PSoC4/UART_1_UART.c ****     *  After initializing the UART_1 in UART mode using this function,
ARM GAS  C:\Users\tdoan1\AppData\Local\Temp\ccyQOqtc.s 			page 3


  88:Generated_Source\PSoC4/UART_1_UART.c ****     *  the component can be enabled using the UART_1_Start() or
  89:Generated_Source\PSoC4/UART_1_UART.c ****     * UART_1_Enable() function.
  90:Generated_Source\PSoC4/UART_1_UART.c ****     *  This function uses a pointer to a structure that provides the configuration
  91:Generated_Source\PSoC4/UART_1_UART.c ****     *  settings. This structure contains the same information that would otherwise
  92:Generated_Source\PSoC4/UART_1_UART.c ****     *  be provided by the customizer settings.
  93:Generated_Source\PSoC4/UART_1_UART.c ****     *
  94:Generated_Source\PSoC4/UART_1_UART.c ****     *  \param config: pointer to a structure that contains the following list of
  95:Generated_Source\PSoC4/UART_1_UART.c ****     *   fields. These fields match the selections available in the customizer.
  96:Generated_Source\PSoC4/UART_1_UART.c ****     *   Refer to the customizer for further description of the settings.
  97:Generated_Source\PSoC4/UART_1_UART.c ****     *
  98:Generated_Source\PSoC4/UART_1_UART.c ****     *******************************************************************************/
  99:Generated_Source\PSoC4/UART_1_UART.c ****     void UART_1_UartInit(const UART_1_UART_INIT_STRUCT *config)
 100:Generated_Source\PSoC4/UART_1_UART.c ****     {
 101:Generated_Source\PSoC4/UART_1_UART.c ****         uint32 pinsConfig;
 102:Generated_Source\PSoC4/UART_1_UART.c **** 
 103:Generated_Source\PSoC4/UART_1_UART.c ****         if (NULL == config)
 104:Generated_Source\PSoC4/UART_1_UART.c ****         {
 105:Generated_Source\PSoC4/UART_1_UART.c ****             CYASSERT(0u != 0u); /* Halt execution due to bad function parameter */
 106:Generated_Source\PSoC4/UART_1_UART.c ****         }
 107:Generated_Source\PSoC4/UART_1_UART.c ****         else
 108:Generated_Source\PSoC4/UART_1_UART.c ****         {
 109:Generated_Source\PSoC4/UART_1_UART.c ****             /* Get direction to configure UART pins: TX, RX or TX+RX */
 110:Generated_Source\PSoC4/UART_1_UART.c ****             pinsConfig  = config->direction;
 111:Generated_Source\PSoC4/UART_1_UART.c **** 
 112:Generated_Source\PSoC4/UART_1_UART.c ****         #if !(UART_1_CY_SCBIP_V0 || UART_1_CY_SCBIP_V1)
 113:Generated_Source\PSoC4/UART_1_UART.c ****             /* Add RTS and CTS pins to configure */
 114:Generated_Source\PSoC4/UART_1_UART.c ****             pinsConfig |= (0u != config->rtsRxFifoLevel) ? (UART_1_UART_RTS_PIN_ENABLE) : (0u);
 115:Generated_Source\PSoC4/UART_1_UART.c ****             pinsConfig |= (0u != config->enableCts)      ? (UART_1_UART_CTS_PIN_ENABLE) : (0u);
 116:Generated_Source\PSoC4/UART_1_UART.c ****         #endif /* !(UART_1_CY_SCBIP_V0 || UART_1_CY_SCBIP_V1) */
 117:Generated_Source\PSoC4/UART_1_UART.c **** 
 118:Generated_Source\PSoC4/UART_1_UART.c ****             /* Configure pins */
 119:Generated_Source\PSoC4/UART_1_UART.c ****             UART_1_SetPins(UART_1_SCB_MODE_UART, config->mode, pinsConfig);
 120:Generated_Source\PSoC4/UART_1_UART.c **** 
 121:Generated_Source\PSoC4/UART_1_UART.c ****             /* Store internal configuration */
 122:Generated_Source\PSoC4/UART_1_UART.c ****             UART_1_scbMode       = (uint8) UART_1_SCB_MODE_UART;
 123:Generated_Source\PSoC4/UART_1_UART.c ****             UART_1_scbEnableWake = (uint8) config->enableWake;
 124:Generated_Source\PSoC4/UART_1_UART.c ****             UART_1_scbEnableIntr = (uint8) config->enableInterrupt;
 125:Generated_Source\PSoC4/UART_1_UART.c **** 
 126:Generated_Source\PSoC4/UART_1_UART.c ****             /* Set RX direction internal variables */
 127:Generated_Source\PSoC4/UART_1_UART.c ****             UART_1_rxBuffer      =         config->rxBuffer;
 128:Generated_Source\PSoC4/UART_1_UART.c ****             UART_1_rxDataBits    = (uint8) config->dataBits;
 129:Generated_Source\PSoC4/UART_1_UART.c ****             UART_1_rxBufferSize  = (uint8) config->rxBufferSize;
 130:Generated_Source\PSoC4/UART_1_UART.c **** 
 131:Generated_Source\PSoC4/UART_1_UART.c ****             /* Set TX direction internal variables */
 132:Generated_Source\PSoC4/UART_1_UART.c ****             UART_1_txBuffer      =         config->txBuffer;
 133:Generated_Source\PSoC4/UART_1_UART.c ****             UART_1_txDataBits    = (uint8) config->dataBits;
 134:Generated_Source\PSoC4/UART_1_UART.c ****             UART_1_txBufferSize  = (uint8) config->txBufferSize;
 135:Generated_Source\PSoC4/UART_1_UART.c **** 
 136:Generated_Source\PSoC4/UART_1_UART.c ****             /* Configure UART interface */
 137:Generated_Source\PSoC4/UART_1_UART.c ****             if(UART_1_UART_MODE_IRDA == config->mode)
 138:Generated_Source\PSoC4/UART_1_UART.c ****             {
 139:Generated_Source\PSoC4/UART_1_UART.c ****                 /* OVS settings: IrDA */
 140:Generated_Source\PSoC4/UART_1_UART.c ****                 UART_1_CTRL_REG  = ((0u != config->enableIrdaLowPower) ?
 141:Generated_Source\PSoC4/UART_1_UART.c ****                                                 (UART_1_UART_GET_CTRL_OVS_IRDA_LP(config->oversampl
 142:Generated_Source\PSoC4/UART_1_UART.c ****                                                 (UART_1_CTRL_OVS_IRDA_OVS16));
 143:Generated_Source\PSoC4/UART_1_UART.c ****             }
 144:Generated_Source\PSoC4/UART_1_UART.c ****             else
ARM GAS  C:\Users\tdoan1\AppData\Local\Temp\ccyQOqtc.s 			page 4


 145:Generated_Source\PSoC4/UART_1_UART.c ****             {
 146:Generated_Source\PSoC4/UART_1_UART.c ****                 /* OVS settings: UART and SmartCard */
 147:Generated_Source\PSoC4/UART_1_UART.c ****                 UART_1_CTRL_REG  = UART_1_GET_CTRL_OVS(config->oversample);
 148:Generated_Source\PSoC4/UART_1_UART.c ****             }
 149:Generated_Source\PSoC4/UART_1_UART.c **** 
 150:Generated_Source\PSoC4/UART_1_UART.c ****             UART_1_CTRL_REG     |= UART_1_GET_CTRL_BYTE_MODE  (config->enableByteMode)      |
 151:Generated_Source\PSoC4/UART_1_UART.c ****                                              UART_1_GET_CTRL_ADDR_ACCEPT(config->multiprocAcceptAdd
 152:Generated_Source\PSoC4/UART_1_UART.c ****                                              UART_1_CTRL_UART;
 153:Generated_Source\PSoC4/UART_1_UART.c **** 
 154:Generated_Source\PSoC4/UART_1_UART.c ****             /* Configure sub-mode: UART, SmartCard or IrDA */
 155:Generated_Source\PSoC4/UART_1_UART.c ****             UART_1_UART_CTRL_REG = UART_1_GET_UART_CTRL_MODE(config->mode);
 156:Generated_Source\PSoC4/UART_1_UART.c **** 
 157:Generated_Source\PSoC4/UART_1_UART.c ****             /* Configure RX direction */
 158:Generated_Source\PSoC4/UART_1_UART.c ****             UART_1_UART_RX_CTRL_REG = UART_1_GET_UART_RX_CTRL_MODE(config->stopBits)              |
 159:Generated_Source\PSoC4/UART_1_UART.c ****                                         UART_1_GET_UART_RX_CTRL_POLARITY(config->enableInvertedRx) 
 160:Generated_Source\PSoC4/UART_1_UART.c ****                                         UART_1_GET_UART_RX_CTRL_MP_MODE(config->enableMultiproc)   
 161:Generated_Source\PSoC4/UART_1_UART.c ****                                         UART_1_GET_UART_RX_CTRL_DROP_ON_PARITY_ERR(config->dropOnPa
 162:Generated_Source\PSoC4/UART_1_UART.c ****                                         UART_1_GET_UART_RX_CTRL_DROP_ON_FRAME_ERR(config->dropOnFra
 163:Generated_Source\PSoC4/UART_1_UART.c **** 
 164:Generated_Source\PSoC4/UART_1_UART.c ****             if(UART_1_UART_PARITY_NONE != config->parity)
 165:Generated_Source\PSoC4/UART_1_UART.c ****             {
 166:Generated_Source\PSoC4/UART_1_UART.c ****                UART_1_UART_RX_CTRL_REG |= UART_1_GET_UART_RX_CTRL_PARITY(config->parity) |
 167:Generated_Source\PSoC4/UART_1_UART.c ****                                                     UART_1_UART_RX_CTRL_PARITY_ENABLED;
 168:Generated_Source\PSoC4/UART_1_UART.c ****             }
 169:Generated_Source\PSoC4/UART_1_UART.c **** 
 170:Generated_Source\PSoC4/UART_1_UART.c ****             UART_1_RX_CTRL_REG      = UART_1_GET_RX_CTRL_DATA_WIDTH(config->dataBits)       |
 171:Generated_Source\PSoC4/UART_1_UART.c ****                                                 UART_1_GET_RX_CTRL_MEDIAN(config->enableMedianFilte
 172:Generated_Source\PSoC4/UART_1_UART.c ****                                                 UART_1_GET_UART_RX_CTRL_ENABLED(config->direction);
 173:Generated_Source\PSoC4/UART_1_UART.c **** 
 174:Generated_Source\PSoC4/UART_1_UART.c ****             UART_1_RX_FIFO_CTRL_REG = UART_1_GET_RX_FIFO_CTRL_TRIGGER_LEVEL(config->rxTriggerLevel)
 175:Generated_Source\PSoC4/UART_1_UART.c **** 
 176:Generated_Source\PSoC4/UART_1_UART.c ****             /* Configure MP address */
 177:Generated_Source\PSoC4/UART_1_UART.c ****             UART_1_RX_MATCH_REG     = UART_1_GET_RX_MATCH_ADDR(config->multiprocAddr) |
 178:Generated_Source\PSoC4/UART_1_UART.c ****                                                 UART_1_GET_RX_MATCH_MASK(config->multiprocAddrMask)
 179:Generated_Source\PSoC4/UART_1_UART.c **** 
 180:Generated_Source\PSoC4/UART_1_UART.c ****             /* Configure RX direction */
 181:Generated_Source\PSoC4/UART_1_UART.c ****             UART_1_UART_TX_CTRL_REG = UART_1_GET_UART_TX_CTRL_MODE(config->stopBits) |
 182:Generated_Source\PSoC4/UART_1_UART.c ****                                                 UART_1_GET_UART_TX_CTRL_RETRY_NACK(config->enableRe
 183:Generated_Source\PSoC4/UART_1_UART.c **** 
 184:Generated_Source\PSoC4/UART_1_UART.c ****             if(UART_1_UART_PARITY_NONE != config->parity)
 185:Generated_Source\PSoC4/UART_1_UART.c ****             {
 186:Generated_Source\PSoC4/UART_1_UART.c ****                UART_1_UART_TX_CTRL_REG |= UART_1_GET_UART_TX_CTRL_PARITY(config->parity) |
 187:Generated_Source\PSoC4/UART_1_UART.c ****                                                     UART_1_UART_TX_CTRL_PARITY_ENABLED;
 188:Generated_Source\PSoC4/UART_1_UART.c ****             }
 189:Generated_Source\PSoC4/UART_1_UART.c **** 
 190:Generated_Source\PSoC4/UART_1_UART.c ****             UART_1_TX_CTRL_REG      = UART_1_GET_TX_CTRL_DATA_WIDTH(config->dataBits)    |
 191:Generated_Source\PSoC4/UART_1_UART.c ****                                                 UART_1_GET_UART_TX_CTRL_ENABLED(config->direction);
 192:Generated_Source\PSoC4/UART_1_UART.c **** 
 193:Generated_Source\PSoC4/UART_1_UART.c ****             UART_1_TX_FIFO_CTRL_REG = UART_1_GET_TX_FIFO_CTRL_TRIGGER_LEVEL(config->txTriggerLevel)
 194:Generated_Source\PSoC4/UART_1_UART.c **** 
 195:Generated_Source\PSoC4/UART_1_UART.c ****         #if !(UART_1_CY_SCBIP_V0 || UART_1_CY_SCBIP_V1)
 196:Generated_Source\PSoC4/UART_1_UART.c ****             UART_1_UART_FLOW_CTRL_REG = UART_1_GET_UART_FLOW_CTRL_CTS_ENABLE(config->enableCts) | \
 197:Generated_Source\PSoC4/UART_1_UART.c ****                                             UART_1_GET_UART_FLOW_CTRL_CTS_POLARITY (config->ctsPola
 198:Generated_Source\PSoC4/UART_1_UART.c ****                                             UART_1_GET_UART_FLOW_CTRL_RTS_POLARITY (config->rtsPola
 199:Generated_Source\PSoC4/UART_1_UART.c ****                                             UART_1_GET_UART_FLOW_CTRL_TRIGGER_LEVEL(config->rtsRxFi
 200:Generated_Source\PSoC4/UART_1_UART.c ****         #endif /* !(UART_1_CY_SCBIP_V0 || UART_1_CY_SCBIP_V1) */
 201:Generated_Source\PSoC4/UART_1_UART.c **** 
ARM GAS  C:\Users\tdoan1\AppData\Local\Temp\ccyQOqtc.s 			page 5


 202:Generated_Source\PSoC4/UART_1_UART.c ****             /* Configure interrupt with UART handler but do not enable it */
 203:Generated_Source\PSoC4/UART_1_UART.c ****             CyIntDisable    (UART_1_ISR_NUMBER);
 204:Generated_Source\PSoC4/UART_1_UART.c ****             CyIntSetPriority(UART_1_ISR_NUMBER, UART_1_ISR_PRIORITY);
 205:Generated_Source\PSoC4/UART_1_UART.c ****             (void) CyIntSetVector(UART_1_ISR_NUMBER, &UART_1_SPI_UART_ISR);
 206:Generated_Source\PSoC4/UART_1_UART.c **** 
 207:Generated_Source\PSoC4/UART_1_UART.c ****             /* Configure WAKE interrupt */
 208:Generated_Source\PSoC4/UART_1_UART.c ****         #if(UART_1_UART_RX_WAKEUP_IRQ)
 209:Generated_Source\PSoC4/UART_1_UART.c ****             CyIntDisable    (UART_1_RX_WAKE_ISR_NUMBER);
 210:Generated_Source\PSoC4/UART_1_UART.c ****             CyIntSetPriority(UART_1_RX_WAKE_ISR_NUMBER, UART_1_RX_WAKE_ISR_PRIORITY);
 211:Generated_Source\PSoC4/UART_1_UART.c ****             (void) CyIntSetVector(UART_1_RX_WAKE_ISR_NUMBER, &UART_1_UART_WAKEUP_ISR);
 212:Generated_Source\PSoC4/UART_1_UART.c ****         #endif /* (UART_1_UART_RX_WAKEUP_IRQ) */
 213:Generated_Source\PSoC4/UART_1_UART.c **** 
 214:Generated_Source\PSoC4/UART_1_UART.c ****             /* Configure interrupt sources */
 215:Generated_Source\PSoC4/UART_1_UART.c ****             UART_1_INTR_I2C_EC_MASK_REG = UART_1_NO_INTR_SOURCES;
 216:Generated_Source\PSoC4/UART_1_UART.c ****             UART_1_INTR_SPI_EC_MASK_REG = UART_1_NO_INTR_SOURCES;
 217:Generated_Source\PSoC4/UART_1_UART.c ****             UART_1_INTR_SLAVE_MASK_REG  = UART_1_NO_INTR_SOURCES;
 218:Generated_Source\PSoC4/UART_1_UART.c ****             UART_1_INTR_MASTER_MASK_REG = UART_1_NO_INTR_SOURCES;
 219:Generated_Source\PSoC4/UART_1_UART.c ****             UART_1_INTR_RX_MASK_REG     = config->rxInterruptMask;
 220:Generated_Source\PSoC4/UART_1_UART.c ****             UART_1_INTR_TX_MASK_REG     = config->txInterruptMask;
 221:Generated_Source\PSoC4/UART_1_UART.c ****         
 222:Generated_Source\PSoC4/UART_1_UART.c ****             /* Configure TX interrupt sources to restore. */
 223:Generated_Source\PSoC4/UART_1_UART.c ****             UART_1_IntrTxMask = LO16(UART_1_INTR_TX_MASK_REG);
 224:Generated_Source\PSoC4/UART_1_UART.c **** 
 225:Generated_Source\PSoC4/UART_1_UART.c ****             /* Clear RX buffer indexes */
 226:Generated_Source\PSoC4/UART_1_UART.c ****             UART_1_rxBufferHead     = 0u;
 227:Generated_Source\PSoC4/UART_1_UART.c ****             UART_1_rxBufferTail     = 0u;
 228:Generated_Source\PSoC4/UART_1_UART.c ****             UART_1_rxBufferOverflow = 0u;
 229:Generated_Source\PSoC4/UART_1_UART.c **** 
 230:Generated_Source\PSoC4/UART_1_UART.c ****             /* Clear TX buffer indexes */
 231:Generated_Source\PSoC4/UART_1_UART.c ****             UART_1_txBufferHead = 0u;
 232:Generated_Source\PSoC4/UART_1_UART.c ****             UART_1_txBufferTail = 0u;
 233:Generated_Source\PSoC4/UART_1_UART.c ****         }
 234:Generated_Source\PSoC4/UART_1_UART.c ****     }
 235:Generated_Source\PSoC4/UART_1_UART.c **** 
 236:Generated_Source\PSoC4/UART_1_UART.c **** #else
 237:Generated_Source\PSoC4/UART_1_UART.c **** 
 238:Generated_Source\PSoC4/UART_1_UART.c ****     /*******************************************************************************
 239:Generated_Source\PSoC4/UART_1_UART.c ****     * Function Name: UART_1_UartInit
 240:Generated_Source\PSoC4/UART_1_UART.c ****     ****************************************************************************//**
 241:Generated_Source\PSoC4/UART_1_UART.c ****     *
 242:Generated_Source\PSoC4/UART_1_UART.c ****     *  Configures the SCB for the UART operation.
 243:Generated_Source\PSoC4/UART_1_UART.c ****     *
 244:Generated_Source\PSoC4/UART_1_UART.c ****     *******************************************************************************/
 245:Generated_Source\PSoC4/UART_1_UART.c ****     void UART_1_UartInit(void)
 246:Generated_Source\PSoC4/UART_1_UART.c ****     {
  28              		.loc 1 246 0
  29              		.cfi_startproc
  30              		@ args = 0, pretend = 0, frame = 0
  31              		@ frame_needed = 0, uses_anonymous_args = 0
  32 0000 10B5     		push	{r4, lr}
  33              		.cfi_def_cfa_offset 8
  34              		.cfi_offset 4, -8
  35              		.cfi_offset 14, -4
 247:Generated_Source\PSoC4/UART_1_UART.c ****         /* Configure UART interface */
 248:Generated_Source\PSoC4/UART_1_UART.c ****         UART_1_CTRL_REG = UART_1_UART_DEFAULT_CTRL;
  36              		.loc 1 248 0
  37 0002 1E4A     		ldr	r2, .L2
ARM GAS  C:\Users\tdoan1\AppData\Local\Temp\ccyQOqtc.s 			page 6


  38 0004 1E4B     		ldr	r3, .L2+4
  39 0006 1A60     		str	r2, [r3]
 249:Generated_Source\PSoC4/UART_1_UART.c **** 
 250:Generated_Source\PSoC4/UART_1_UART.c ****         /* Configure sub-mode: UART, SmartCard or IrDA */
 251:Generated_Source\PSoC4/UART_1_UART.c ****         UART_1_UART_CTRL_REG = UART_1_UART_DEFAULT_UART_CTRL;
  40              		.loc 1 251 0
  41 0008 0024     		movs	r4, #0
  42 000a 1E4B     		ldr	r3, .L2+8
  43 000c 1C60     		str	r4, [r3]
 252:Generated_Source\PSoC4/UART_1_UART.c **** 
 253:Generated_Source\PSoC4/UART_1_UART.c ****         /* Configure RX direction */
 254:Generated_Source\PSoC4/UART_1_UART.c ****         UART_1_UART_RX_CTRL_REG = UART_1_UART_DEFAULT_UART_RX_CTRL;
  44              		.loc 1 254 0
  45 000e 0122     		movs	r2, #1
  46 0010 1D4B     		ldr	r3, .L2+12
  47 0012 1A60     		str	r2, [r3]
 255:Generated_Source\PSoC4/UART_1_UART.c ****         UART_1_RX_CTRL_REG      = UART_1_UART_DEFAULT_RX_CTRL;
  48              		.loc 1 255 0
  49 0014 1D4B     		ldr	r3, .L2+16
  50 0016 1E49     		ldr	r1, .L2+20
  51 0018 0B60     		str	r3, [r1]
 256:Generated_Source\PSoC4/UART_1_UART.c ****         UART_1_RX_FIFO_CTRL_REG = UART_1_UART_DEFAULT_RX_FIFO_CTRL;
  52              		.loc 1 256 0
  53 001a 0720     		movs	r0, #7
  54 001c 1D49     		ldr	r1, .L2+24
  55 001e 0860     		str	r0, [r1]
 257:Generated_Source\PSoC4/UART_1_UART.c ****         UART_1_RX_MATCH_REG     = UART_1_UART_DEFAULT_RX_MATCH_REG;
  56              		.loc 1 257 0
  57 0020 1D49     		ldr	r1, .L2+28
  58 0022 0C60     		str	r4, [r1]
 258:Generated_Source\PSoC4/UART_1_UART.c **** 
 259:Generated_Source\PSoC4/UART_1_UART.c ****         /* Configure TX direction */
 260:Generated_Source\PSoC4/UART_1_UART.c ****         UART_1_UART_TX_CTRL_REG = UART_1_UART_DEFAULT_UART_TX_CTRL;
  59              		.loc 1 260 0
  60 0024 1D49     		ldr	r1, .L2+32
  61 0026 0A60     		str	r2, [r1]
 261:Generated_Source\PSoC4/UART_1_UART.c ****         UART_1_TX_CTRL_REG      = UART_1_UART_DEFAULT_TX_CTRL;
  62              		.loc 1 261 0
  63 0028 1D4A     		ldr	r2, .L2+36
  64 002a 1360     		str	r3, [r2]
 262:Generated_Source\PSoC4/UART_1_UART.c ****         UART_1_TX_FIFO_CTRL_REG = UART_1_UART_DEFAULT_TX_FIFO_CTRL;
  65              		.loc 1 262 0
  66 002c 1D4B     		ldr	r3, .L2+40
  67 002e 1C60     		str	r4, [r3]
 263:Generated_Source\PSoC4/UART_1_UART.c **** 
 264:Generated_Source\PSoC4/UART_1_UART.c ****     #if !(UART_1_CY_SCBIP_V0 || UART_1_CY_SCBIP_V1)
 265:Generated_Source\PSoC4/UART_1_UART.c ****         UART_1_UART_FLOW_CTRL_REG = UART_1_UART_DEFAULT_FLOW_CTRL;
 266:Generated_Source\PSoC4/UART_1_UART.c ****     #endif /* !(UART_1_CY_SCBIP_V0 || UART_1_CY_SCBIP_V1) */
 267:Generated_Source\PSoC4/UART_1_UART.c **** 
 268:Generated_Source\PSoC4/UART_1_UART.c ****         /* Configure interrupt with UART handler but do not enable it */
 269:Generated_Source\PSoC4/UART_1_UART.c ****     #if(UART_1_SCB_IRQ_INTERNAL)
 270:Generated_Source\PSoC4/UART_1_UART.c ****         CyIntDisable    (UART_1_ISR_NUMBER);
  68              		.loc 1 270 0
  69 0030 0430     		adds	r0, r0, #4
  70 0032 FFF7FEFF 		bl	CyIntDisable
  71              	.LVL0:
 271:Generated_Source\PSoC4/UART_1_UART.c ****         CyIntSetPriority(UART_1_ISR_NUMBER, UART_1_ISR_PRIORITY);
ARM GAS  C:\Users\tdoan1\AppData\Local\Temp\ccyQOqtc.s 			page 7


  72              		.loc 1 271 0
  73 0036 0321     		movs	r1, #3
  74 0038 0B20     		movs	r0, #11
  75 003a FFF7FEFF 		bl	CyIntSetPriority
  76              	.LVL1:
 272:Generated_Source\PSoC4/UART_1_UART.c ****         (void) CyIntSetVector(UART_1_ISR_NUMBER, &UART_1_SPI_UART_ISR);
  77              		.loc 1 272 0
  78 003e 1A49     		ldr	r1, .L2+44
  79 0040 0B20     		movs	r0, #11
  80 0042 FFF7FEFF 		bl	CyIntSetVector
  81              	.LVL2:
 273:Generated_Source\PSoC4/UART_1_UART.c ****     #endif /* (UART_1_SCB_IRQ_INTERNAL) */
 274:Generated_Source\PSoC4/UART_1_UART.c **** 
 275:Generated_Source\PSoC4/UART_1_UART.c ****         /* Configure WAKE interrupt */
 276:Generated_Source\PSoC4/UART_1_UART.c ****     #if(UART_1_UART_RX_WAKEUP_IRQ)
 277:Generated_Source\PSoC4/UART_1_UART.c ****         CyIntDisable    (UART_1_RX_WAKE_ISR_NUMBER);
 278:Generated_Source\PSoC4/UART_1_UART.c ****         CyIntSetPriority(UART_1_RX_WAKE_ISR_NUMBER, UART_1_RX_WAKE_ISR_PRIORITY);
 279:Generated_Source\PSoC4/UART_1_UART.c ****         (void) CyIntSetVector(UART_1_RX_WAKE_ISR_NUMBER, &UART_1_UART_WAKEUP_ISR);
 280:Generated_Source\PSoC4/UART_1_UART.c ****     #endif /* (UART_1_UART_RX_WAKEUP_IRQ) */
 281:Generated_Source\PSoC4/UART_1_UART.c **** 
 282:Generated_Source\PSoC4/UART_1_UART.c ****         /* Configure interrupt sources */
 283:Generated_Source\PSoC4/UART_1_UART.c ****         UART_1_INTR_I2C_EC_MASK_REG = UART_1_UART_DEFAULT_INTR_I2C_EC_MASK;
  82              		.loc 1 283 0
  83 0046 194B     		ldr	r3, .L2+48
  84 0048 1C60     		str	r4, [r3]
 284:Generated_Source\PSoC4/UART_1_UART.c ****         UART_1_INTR_SPI_EC_MASK_REG = UART_1_UART_DEFAULT_INTR_SPI_EC_MASK;
  85              		.loc 1 284 0
  86 004a 194B     		ldr	r3, .L2+52
  87 004c 1C60     		str	r4, [r3]
 285:Generated_Source\PSoC4/UART_1_UART.c ****         UART_1_INTR_SLAVE_MASK_REG  = UART_1_UART_DEFAULT_INTR_SLAVE_MASK;
  88              		.loc 1 285 0
  89 004e 194B     		ldr	r3, .L2+56
  90 0050 1C60     		str	r4, [r3]
 286:Generated_Source\PSoC4/UART_1_UART.c ****         UART_1_INTR_MASTER_MASK_REG = UART_1_UART_DEFAULT_INTR_MASTER_MASK;
  91              		.loc 1 286 0
  92 0052 194B     		ldr	r3, .L2+60
  93 0054 1C60     		str	r4, [r3]
 287:Generated_Source\PSoC4/UART_1_UART.c ****         UART_1_INTR_RX_MASK_REG     = UART_1_UART_DEFAULT_INTR_RX_MASK;
  94              		.loc 1 287 0
  95 0056 0422     		movs	r2, #4
  96 0058 184B     		ldr	r3, .L2+64
  97 005a 1A60     		str	r2, [r3]
 288:Generated_Source\PSoC4/UART_1_UART.c ****         UART_1_INTR_TX_MASK_REG     = UART_1_UART_DEFAULT_INTR_TX_MASK;
  98              		.loc 1 288 0
  99 005c 184B     		ldr	r3, .L2+68
 100 005e 1C60     		str	r4, [r3]
 289:Generated_Source\PSoC4/UART_1_UART.c ****     
 290:Generated_Source\PSoC4/UART_1_UART.c ****         /* Configure TX interrupt sources to restore. */
 291:Generated_Source\PSoC4/UART_1_UART.c ****         UART_1_IntrTxMask = LO16(UART_1_INTR_TX_MASK_REG);
 101              		.loc 1 291 0
 102 0060 1A68     		ldr	r2, [r3]
 103 0062 184B     		ldr	r3, .L2+72
 104 0064 1A80     		strh	r2, [r3]
 292:Generated_Source\PSoC4/UART_1_UART.c **** 
 293:Generated_Source\PSoC4/UART_1_UART.c ****     #if(UART_1_INTERNAL_RX_SW_BUFFER_CONST)
 294:Generated_Source\PSoC4/UART_1_UART.c ****         UART_1_rxBufferHead     = 0u;
 105              		.loc 1 294 0
ARM GAS  C:\Users\tdoan1\AppData\Local\Temp\ccyQOqtc.s 			page 8


 106 0066 184B     		ldr	r3, .L2+76
 107 0068 1C60     		str	r4, [r3]
 295:Generated_Source\PSoC4/UART_1_UART.c ****         UART_1_rxBufferTail     = 0u;
 108              		.loc 1 295 0
 109 006a 184B     		ldr	r3, .L2+80
 110 006c 1C60     		str	r4, [r3]
 296:Generated_Source\PSoC4/UART_1_UART.c ****         UART_1_rxBufferOverflow = 0u;
 111              		.loc 1 296 0
 112 006e 184B     		ldr	r3, .L2+84
 113 0070 1C70     		strb	r4, [r3]
 297:Generated_Source\PSoC4/UART_1_UART.c ****     #endif /* (UART_1_INTERNAL_RX_SW_BUFFER_CONST) */
 298:Generated_Source\PSoC4/UART_1_UART.c **** 
 299:Generated_Source\PSoC4/UART_1_UART.c ****     #if(UART_1_INTERNAL_TX_SW_BUFFER_CONST)
 300:Generated_Source\PSoC4/UART_1_UART.c ****         UART_1_txBufferHead = 0u;
 114              		.loc 1 300 0
 115 0072 184B     		ldr	r3, .L2+88
 116 0074 1C60     		str	r4, [r3]
 301:Generated_Source\PSoC4/UART_1_UART.c ****         UART_1_txBufferTail = 0u;
 117              		.loc 1 301 0
 118 0076 184B     		ldr	r3, .L2+92
 119 0078 1C60     		str	r4, [r3]
 302:Generated_Source\PSoC4/UART_1_UART.c ****     #endif /* (UART_1_INTERNAL_TX_SW_BUFFER_CONST) */
 303:Generated_Source\PSoC4/UART_1_UART.c ****     }
 120              		.loc 1 303 0
 121              		@ sp needed
 122 007a 10BD     		pop	{r4, pc}
 123              	.L3:
 124              		.align	2
 125              	.L2:
 126 007c 0B000002 		.word	33554443
 127 0080 00000740 		.word	1074200576
 128 0084 40000740 		.word	1074200640
 129 0088 48000740 		.word	1074200648
 130 008c 07000080 		.word	-2147483641
 131 0090 00030740 		.word	1074201344
 132 0094 04030740 		.word	1074201348
 133 0098 10030740 		.word	1074201360
 134 009c 44000740 		.word	1074200644
 135 00a0 00020740 		.word	1074201088
 136 00a4 04020740 		.word	1074201092
 137 00a8 00000000 		.word	UART_1_SPI_UART_ISR
 138 00ac 880E0740 		.word	1074204296
 139 00b0 C80E0740 		.word	1074204360
 140 00b4 480F0740 		.word	1074204488
 141 00b8 080F0740 		.word	1074204424
 142 00bc C80F0740 		.word	1074204616
 143 00c0 880F0740 		.word	1074204552
 144 00c4 00000000 		.word	UART_1_IntrTxMask
 145 00c8 00000000 		.word	UART_1_rxBufferHead
 146 00cc 00000000 		.word	UART_1_rxBufferTail
 147 00d0 00000000 		.word	UART_1_rxBufferOverflow
 148 00d4 00000000 		.word	UART_1_txBufferHead
 149 00d8 00000000 		.word	UART_1_txBufferTail
 150              		.cfi_endproc
 151              	.LFE0:
 152              		.size	UART_1_UartInit, .-UART_1_UartInit
 153              		.section	.text.UART_1_UartPostEnable,"ax",%progbits
ARM GAS  C:\Users\tdoan1\AppData\Local\Temp\ccyQOqtc.s 			page 9


 154              		.align	2
 155              		.global	UART_1_UartPostEnable
 156              		.code	16
 157              		.thumb_func
 158              		.type	UART_1_UartPostEnable, %function
 159              	UART_1_UartPostEnable:
 160              	.LFB1:
 304:Generated_Source\PSoC4/UART_1_UART.c **** #endif /* (UART_1_SCB_MODE_UNCONFIG_CONST_CFG) */
 305:Generated_Source\PSoC4/UART_1_UART.c **** 
 306:Generated_Source\PSoC4/UART_1_UART.c **** 
 307:Generated_Source\PSoC4/UART_1_UART.c **** /*******************************************************************************
 308:Generated_Source\PSoC4/UART_1_UART.c **** * Function Name: UART_1_UartPostEnable
 309:Generated_Source\PSoC4/UART_1_UART.c **** ****************************************************************************//**
 310:Generated_Source\PSoC4/UART_1_UART.c **** *
 311:Generated_Source\PSoC4/UART_1_UART.c **** *  Restores HSIOM settings for the UART output pins (TX and/or RTS) to be
 312:Generated_Source\PSoC4/UART_1_UART.c **** *  controlled by the SCB UART.
 313:Generated_Source\PSoC4/UART_1_UART.c **** *
 314:Generated_Source\PSoC4/UART_1_UART.c **** *******************************************************************************/
 315:Generated_Source\PSoC4/UART_1_UART.c **** void UART_1_UartPostEnable(void)
 316:Generated_Source\PSoC4/UART_1_UART.c **** {
 161              		.loc 1 316 0
 162              		.cfi_startproc
 163              		@ args = 0, pretend = 0, frame = 0
 164              		@ frame_needed = 0, uses_anonymous_args = 0
 165              		@ link register save eliminated.
 317:Generated_Source\PSoC4/UART_1_UART.c **** #if (UART_1_SCB_MODE_UNCONFIG_CONST_CFG)
 318:Generated_Source\PSoC4/UART_1_UART.c ****     #if (UART_1_TX_SDA_MISO_PIN)
 319:Generated_Source\PSoC4/UART_1_UART.c ****         if (UART_1_CHECK_TX_SDA_MISO_PIN_USED)
 320:Generated_Source\PSoC4/UART_1_UART.c ****         {
 321:Generated_Source\PSoC4/UART_1_UART.c ****             /* Set SCB UART to drive the output pin */
 322:Generated_Source\PSoC4/UART_1_UART.c ****             UART_1_SET_HSIOM_SEL(UART_1_TX_SDA_MISO_HSIOM_REG, UART_1_TX_SDA_MISO_HSIOM_MASK,
 323:Generated_Source\PSoC4/UART_1_UART.c ****                                            UART_1_TX_SDA_MISO_HSIOM_POS, UART_1_TX_SDA_MISO_HSIOM_S
 324:Generated_Source\PSoC4/UART_1_UART.c ****         }
 325:Generated_Source\PSoC4/UART_1_UART.c ****     #endif /* (UART_1_TX_SDA_MISO_PIN_PIN) */
 326:Generated_Source\PSoC4/UART_1_UART.c **** 
 327:Generated_Source\PSoC4/UART_1_UART.c ****     #if !(UART_1_CY_SCBIP_V0 || UART_1_CY_SCBIP_V1)
 328:Generated_Source\PSoC4/UART_1_UART.c ****         #if (UART_1_SS0_PIN)
 329:Generated_Source\PSoC4/UART_1_UART.c ****             if (UART_1_CHECK_SS0_PIN_USED)
 330:Generated_Source\PSoC4/UART_1_UART.c ****             {
 331:Generated_Source\PSoC4/UART_1_UART.c ****                 /* Set SCB UART to drive the output pin */
 332:Generated_Source\PSoC4/UART_1_UART.c ****                 UART_1_SET_HSIOM_SEL(UART_1_SS0_HSIOM_REG, UART_1_SS0_HSIOM_MASK,
 333:Generated_Source\PSoC4/UART_1_UART.c ****                                                UART_1_SS0_HSIOM_POS, UART_1_SS0_HSIOM_SEL_UART);
 334:Generated_Source\PSoC4/UART_1_UART.c ****             }
 335:Generated_Source\PSoC4/UART_1_UART.c ****         #endif /* (UART_1_SS0_PIN) */
 336:Generated_Source\PSoC4/UART_1_UART.c ****     #endif /* !(UART_1_CY_SCBIP_V0 || UART_1_CY_SCBIP_V1) */
 337:Generated_Source\PSoC4/UART_1_UART.c **** 
 338:Generated_Source\PSoC4/UART_1_UART.c **** #else
 339:Generated_Source\PSoC4/UART_1_UART.c ****     #if (UART_1_UART_TX_PIN)
 340:Generated_Source\PSoC4/UART_1_UART.c ****          /* Set SCB UART to drive the output pin */
 341:Generated_Source\PSoC4/UART_1_UART.c ****         UART_1_SET_HSIOM_SEL(UART_1_TX_HSIOM_REG, UART_1_TX_HSIOM_MASK,
 166              		.loc 1 341 0
 167 0000 064A     		ldr	r2, .L5
 168 0002 1168     		ldr	r1, [r2]
 169 0004 064B     		ldr	r3, .L5+4
 170 0006 0B40     		ands	r3, r1
 171 0008 9021     		movs	r1, #144
 172 000a 0904     		lsls	r1, r1, #16
ARM GAS  C:\Users\tdoan1\AppData\Local\Temp\ccyQOqtc.s 			page 10


 173 000c 0B43     		orrs	r3, r1
 174 000e 1360     		str	r3, [r2]
 342:Generated_Source\PSoC4/UART_1_UART.c ****                                        UART_1_TX_HSIOM_POS, UART_1_TX_HSIOM_SEL_UART);
 343:Generated_Source\PSoC4/UART_1_UART.c ****     #endif /* (UART_1_UART_TX_PIN) */
 344:Generated_Source\PSoC4/UART_1_UART.c **** 
 345:Generated_Source\PSoC4/UART_1_UART.c ****     #if (UART_1_UART_RTS_PIN)
 346:Generated_Source\PSoC4/UART_1_UART.c ****         /* Set SCB UART to drive the output pin */
 347:Generated_Source\PSoC4/UART_1_UART.c ****         UART_1_SET_HSIOM_SEL(UART_1_RTS_HSIOM_REG, UART_1_RTS_HSIOM_MASK,
 348:Generated_Source\PSoC4/UART_1_UART.c ****                                        UART_1_RTS_HSIOM_POS, UART_1_RTS_HSIOM_SEL_UART);
 349:Generated_Source\PSoC4/UART_1_UART.c ****     #endif /* (UART_1_UART_RTS_PIN) */
 350:Generated_Source\PSoC4/UART_1_UART.c **** #endif /* (UART_1_SCB_MODE_UNCONFIG_CONST_CFG) */
 351:Generated_Source\PSoC4/UART_1_UART.c **** 
 352:Generated_Source\PSoC4/UART_1_UART.c ****     /* Restore TX interrupt sources. */
 353:Generated_Source\PSoC4/UART_1_UART.c ****     UART_1_SetTxInterruptMode(UART_1_IntrTxMask);
 175              		.loc 1 353 0
 176 0010 044B     		ldr	r3, .L5+8
 177 0012 1A88     		ldrh	r2, [r3]
 178 0014 044B     		ldr	r3, .L5+12
 179 0016 1A60     		str	r2, [r3]
 354:Generated_Source\PSoC4/UART_1_UART.c **** }
 180              		.loc 1 354 0
 181              		@ sp needed
 182 0018 7047     		bx	lr
 183              	.L6:
 184 001a C046     		.align	2
 185              	.L5:
 186 001c 00000140 		.word	1073807360
 187 0020 FFFF0FFF 		.word	-15728641
 188 0024 00000000 		.word	UART_1_IntrTxMask
 189 0028 880F0740 		.word	1074204552
 190              		.cfi_endproc
 191              	.LFE1:
 192              		.size	UART_1_UartPostEnable, .-UART_1_UartPostEnable
 193              		.section	.text.UART_1_UartStop,"ax",%progbits
 194              		.align	2
 195              		.global	UART_1_UartStop
 196              		.code	16
 197              		.thumb_func
 198              		.type	UART_1_UartStop, %function
 199              	UART_1_UartStop:
 200              	.LFB2:
 355:Generated_Source\PSoC4/UART_1_UART.c **** 
 356:Generated_Source\PSoC4/UART_1_UART.c **** 
 357:Generated_Source\PSoC4/UART_1_UART.c **** /*******************************************************************************
 358:Generated_Source\PSoC4/UART_1_UART.c **** * Function Name: UART_1_UartStop
 359:Generated_Source\PSoC4/UART_1_UART.c **** ****************************************************************************//**
 360:Generated_Source\PSoC4/UART_1_UART.c **** *
 361:Generated_Source\PSoC4/UART_1_UART.c **** *  Changes the HSIOM settings for the UART output pins (TX and/or RTS) to keep
 362:Generated_Source\PSoC4/UART_1_UART.c **** *  them inactive after the block is disabled. The output pins are controlled by
 363:Generated_Source\PSoC4/UART_1_UART.c **** *  the GPIO data register. Also, the function disables the skip start feature
 364:Generated_Source\PSoC4/UART_1_UART.c **** *  to not cause it to trigger after the component is enabled.
 365:Generated_Source\PSoC4/UART_1_UART.c **** *
 366:Generated_Source\PSoC4/UART_1_UART.c **** *******************************************************************************/
 367:Generated_Source\PSoC4/UART_1_UART.c **** void UART_1_UartStop(void)
 368:Generated_Source\PSoC4/UART_1_UART.c **** {
 201              		.loc 1 368 0
 202              		.cfi_startproc
ARM GAS  C:\Users\tdoan1\AppData\Local\Temp\ccyQOqtc.s 			page 11


 203              		@ args = 0, pretend = 0, frame = 0
 204              		@ frame_needed = 0, uses_anonymous_args = 0
 205              		@ link register save eliminated.
 369:Generated_Source\PSoC4/UART_1_UART.c **** #if(UART_1_SCB_MODE_UNCONFIG_CONST_CFG)
 370:Generated_Source\PSoC4/UART_1_UART.c ****     #if (UART_1_TX_SDA_MISO_PIN)
 371:Generated_Source\PSoC4/UART_1_UART.c ****         if (UART_1_CHECK_TX_SDA_MISO_PIN_USED)
 372:Generated_Source\PSoC4/UART_1_UART.c ****         {
 373:Generated_Source\PSoC4/UART_1_UART.c ****             /* Set GPIO to drive output pin */
 374:Generated_Source\PSoC4/UART_1_UART.c ****             UART_1_SET_HSIOM_SEL(UART_1_TX_SDA_MISO_HSIOM_REG, UART_1_TX_SDA_MISO_HSIOM_MASK,
 375:Generated_Source\PSoC4/UART_1_UART.c ****                                            UART_1_TX_SDA_MISO_HSIOM_POS, UART_1_TX_SDA_MISO_HSIOM_S
 376:Generated_Source\PSoC4/UART_1_UART.c ****         }
 377:Generated_Source\PSoC4/UART_1_UART.c ****     #endif /* (UART_1_TX_SDA_MISO_PIN_PIN) */
 378:Generated_Source\PSoC4/UART_1_UART.c **** 
 379:Generated_Source\PSoC4/UART_1_UART.c ****     #if !(UART_1_CY_SCBIP_V0 || UART_1_CY_SCBIP_V1)
 380:Generated_Source\PSoC4/UART_1_UART.c ****         #if (UART_1_SS0_PIN)
 381:Generated_Source\PSoC4/UART_1_UART.c ****             if (UART_1_CHECK_SS0_PIN_USED)
 382:Generated_Source\PSoC4/UART_1_UART.c ****             {
 383:Generated_Source\PSoC4/UART_1_UART.c ****                 /* Set output pin state after block is disabled */
 384:Generated_Source\PSoC4/UART_1_UART.c ****                 UART_1_spi_ss0_Write(UART_1_GET_UART_RTS_INACTIVE);
 385:Generated_Source\PSoC4/UART_1_UART.c **** 
 386:Generated_Source\PSoC4/UART_1_UART.c ****                 /* Set GPIO to drive output pin */
 387:Generated_Source\PSoC4/UART_1_UART.c ****                 UART_1_SET_HSIOM_SEL(UART_1_SS0_HSIOM_REG, UART_1_SS0_HSIOM_MASK,
 388:Generated_Source\PSoC4/UART_1_UART.c ****                                                UART_1_SS0_HSIOM_POS, UART_1_SS0_HSIOM_SEL_GPIO);
 389:Generated_Source\PSoC4/UART_1_UART.c ****             }
 390:Generated_Source\PSoC4/UART_1_UART.c ****         #endif /* (UART_1_SS0_PIN) */
 391:Generated_Source\PSoC4/UART_1_UART.c ****     #endif /* !(UART_1_CY_SCBIP_V0 || UART_1_CY_SCBIP_V1) */
 392:Generated_Source\PSoC4/UART_1_UART.c **** 
 393:Generated_Source\PSoC4/UART_1_UART.c **** #else
 394:Generated_Source\PSoC4/UART_1_UART.c ****     #if (UART_1_UART_TX_PIN)
 395:Generated_Source\PSoC4/UART_1_UART.c ****         /* Set GPIO to drive output pin */
 396:Generated_Source\PSoC4/UART_1_UART.c ****         UART_1_SET_HSIOM_SEL(UART_1_TX_HSIOM_REG, UART_1_TX_HSIOM_MASK,
 206              		.loc 1 396 0
 207 0000 064A     		ldr	r2, .L8
 208 0002 1168     		ldr	r1, [r2]
 209 0004 064B     		ldr	r3, .L8+4
 210 0006 0B40     		ands	r3, r1
 211 0008 1360     		str	r3, [r2]
 397:Generated_Source\PSoC4/UART_1_UART.c ****                                        UART_1_TX_HSIOM_POS, UART_1_TX_HSIOM_SEL_GPIO);
 398:Generated_Source\PSoC4/UART_1_UART.c ****     #endif /* (UART_1_UART_TX_PIN) */
 399:Generated_Source\PSoC4/UART_1_UART.c **** 
 400:Generated_Source\PSoC4/UART_1_UART.c ****     #if (UART_1_UART_RTS_PIN)
 401:Generated_Source\PSoC4/UART_1_UART.c ****         /* Set output pin state after block is disabled */
 402:Generated_Source\PSoC4/UART_1_UART.c ****         UART_1_rts_Write(UART_1_GET_UART_RTS_INACTIVE);
 403:Generated_Source\PSoC4/UART_1_UART.c **** 
 404:Generated_Source\PSoC4/UART_1_UART.c ****         /* Set GPIO to drive output pin */
 405:Generated_Source\PSoC4/UART_1_UART.c ****         UART_1_SET_HSIOM_SEL(UART_1_RTS_HSIOM_REG, UART_1_RTS_HSIOM_MASK,
 406:Generated_Source\PSoC4/UART_1_UART.c ****                                        UART_1_RTS_HSIOM_POS, UART_1_RTS_HSIOM_SEL_GPIO);
 407:Generated_Source\PSoC4/UART_1_UART.c ****     #endif /* (UART_1_UART_RTS_PIN) */
 408:Generated_Source\PSoC4/UART_1_UART.c **** 
 409:Generated_Source\PSoC4/UART_1_UART.c **** #endif /* (UART_1_SCB_MODE_UNCONFIG_CONST_CFG) */
 410:Generated_Source\PSoC4/UART_1_UART.c **** 
 411:Generated_Source\PSoC4/UART_1_UART.c **** #if (UART_1_UART_WAKE_ENABLE_CONST)
 412:Generated_Source\PSoC4/UART_1_UART.c ****     /* Disable skip start feature used for wakeup */
 413:Generated_Source\PSoC4/UART_1_UART.c ****     UART_1_UART_RX_CTRL_REG &= (uint32) ~UART_1_UART_RX_CTRL_SKIP_START;
 414:Generated_Source\PSoC4/UART_1_UART.c **** #endif /* (UART_1_UART_WAKE_ENABLE_CONST) */
 415:Generated_Source\PSoC4/UART_1_UART.c **** 
 416:Generated_Source\PSoC4/UART_1_UART.c ****     /* Store TX interrupt sources (exclude level triggered). */
ARM GAS  C:\Users\tdoan1\AppData\Local\Temp\ccyQOqtc.s 			page 12


 417:Generated_Source\PSoC4/UART_1_UART.c ****     UART_1_IntrTxMask = LO16(UART_1_GetTxInterruptMode() & UART_1_INTR_UART_TX_RESTORE);
 212              		.loc 1 417 0
 213 000a 064B     		ldr	r3, .L8+8
 214 000c 1A68     		ldr	r2, [r3]
 215 000e E423     		movs	r3, #228
 216 0010 DB00     		lsls	r3, r3, #3
 217 0012 1340     		ands	r3, r2
 218 0014 044A     		ldr	r2, .L8+12
 219 0016 1380     		strh	r3, [r2]
 418:Generated_Source\PSoC4/UART_1_UART.c **** }
 220              		.loc 1 418 0
 221              		@ sp needed
 222 0018 7047     		bx	lr
 223              	.L9:
 224 001a C046     		.align	2
 225              	.L8:
 226 001c 00000140 		.word	1073807360
 227 0020 FFFF0FFF 		.word	-15728641
 228 0024 880F0740 		.word	1074204552
 229 0028 00000000 		.word	UART_1_IntrTxMask
 230              		.cfi_endproc
 231              	.LFE2:
 232              		.size	UART_1_UartStop, .-UART_1_UartStop
 233              		.section	.text.UART_1_UartSetRxAddress,"ax",%progbits
 234              		.align	2
 235              		.global	UART_1_UartSetRxAddress
 236              		.code	16
 237              		.thumb_func
 238              		.type	UART_1_UartSetRxAddress, %function
 239              	UART_1_UartSetRxAddress:
 240              	.LFB3:
 419:Generated_Source\PSoC4/UART_1_UART.c **** 
 420:Generated_Source\PSoC4/UART_1_UART.c **** 
 421:Generated_Source\PSoC4/UART_1_UART.c **** /*******************************************************************************
 422:Generated_Source\PSoC4/UART_1_UART.c **** * Function Name: UART_1_UartSetRxAddress
 423:Generated_Source\PSoC4/UART_1_UART.c **** ****************************************************************************//**
 424:Generated_Source\PSoC4/UART_1_UART.c **** *
 425:Generated_Source\PSoC4/UART_1_UART.c **** *  Sets the hardware detectable receiver address for the UART in the
 426:Generated_Source\PSoC4/UART_1_UART.c **** *  Multiprocessor mode.
 427:Generated_Source\PSoC4/UART_1_UART.c **** *
 428:Generated_Source\PSoC4/UART_1_UART.c **** *  \param address: Address for hardware address detection.
 429:Generated_Source\PSoC4/UART_1_UART.c **** *
 430:Generated_Source\PSoC4/UART_1_UART.c **** *******************************************************************************/
 431:Generated_Source\PSoC4/UART_1_UART.c **** void UART_1_UartSetRxAddress(uint32 address)
 432:Generated_Source\PSoC4/UART_1_UART.c **** {
 241              		.loc 1 432 0
 242              		.cfi_startproc
 243              		@ args = 0, pretend = 0, frame = 0
 244              		@ frame_needed = 0, uses_anonymous_args = 0
 245              		@ link register save eliminated.
 246              	.LVL3:
 433:Generated_Source\PSoC4/UART_1_UART.c ****      uint32 matchReg;
 434:Generated_Source\PSoC4/UART_1_UART.c **** 
 435:Generated_Source\PSoC4/UART_1_UART.c ****     matchReg = UART_1_RX_MATCH_REG;
 247              		.loc 1 435 0
 248 0000 034A     		ldr	r2, .L11
 249 0002 1368     		ldr	r3, [r2]
ARM GAS  C:\Users\tdoan1\AppData\Local\Temp\ccyQOqtc.s 			page 13


 250              	.LVL4:
 436:Generated_Source\PSoC4/UART_1_UART.c **** 
 437:Generated_Source\PSoC4/UART_1_UART.c ****     matchReg &= ((uint32) ~UART_1_RX_MATCH_ADDR_MASK); /* Clear address bits */
 251              		.loc 1 437 0
 252 0004 FF21     		movs	r1, #255
 253 0006 8B43     		bics	r3, r1
 254              	.LVL5:
 438:Generated_Source\PSoC4/UART_1_UART.c ****     matchReg |= ((uint32)  (address & UART_1_RX_MATCH_ADDR_MASK)); /* Set address  */
 255              		.loc 1 438 0
 256 0008 0840     		ands	r0, r1
 257              	.LVL6:
 258 000a 1843     		orrs	r0, r3
 259              	.LVL7:
 439:Generated_Source\PSoC4/UART_1_UART.c **** 
 440:Generated_Source\PSoC4/UART_1_UART.c ****     UART_1_RX_MATCH_REG = matchReg;
 260              		.loc 1 440 0
 261 000c 1060     		str	r0, [r2]
 441:Generated_Source\PSoC4/UART_1_UART.c **** }
 262              		.loc 1 441 0
 263              		@ sp needed
 264 000e 7047     		bx	lr
 265              	.L12:
 266              		.align	2
 267              	.L11:
 268 0010 10030740 		.word	1074201360
 269              		.cfi_endproc
 270              	.LFE3:
 271              		.size	UART_1_UartSetRxAddress, .-UART_1_UartSetRxAddress
 272              		.section	.text.UART_1_UartSetRxAddressMask,"ax",%progbits
 273              		.align	2
 274              		.global	UART_1_UartSetRxAddressMask
 275              		.code	16
 276              		.thumb_func
 277              		.type	UART_1_UartSetRxAddressMask, %function
 278              	UART_1_UartSetRxAddressMask:
 279              	.LFB4:
 442:Generated_Source\PSoC4/UART_1_UART.c **** 
 443:Generated_Source\PSoC4/UART_1_UART.c **** 
 444:Generated_Source\PSoC4/UART_1_UART.c **** /*******************************************************************************
 445:Generated_Source\PSoC4/UART_1_UART.c **** * Function Name: UART_1_UartSetRxAddressMask
 446:Generated_Source\PSoC4/UART_1_UART.c **** ****************************************************************************//**
 447:Generated_Source\PSoC4/UART_1_UART.c **** *
 448:Generated_Source\PSoC4/UART_1_UART.c **** *  Sets the hardware address mask for the UART in the Multiprocessor mode.
 449:Generated_Source\PSoC4/UART_1_UART.c **** *
 450:Generated_Source\PSoC4/UART_1_UART.c **** *  \param addressMask: Address mask.
 451:Generated_Source\PSoC4/UART_1_UART.c **** *   - Bit value 0 – excludes bit from address comparison.
 452:Generated_Source\PSoC4/UART_1_UART.c **** *   - Bit value 1 – the bit needs to match with the corresponding bit
 453:Generated_Source\PSoC4/UART_1_UART.c **** *     of the address.
 454:Generated_Source\PSoC4/UART_1_UART.c **** *
 455:Generated_Source\PSoC4/UART_1_UART.c **** *******************************************************************************/
 456:Generated_Source\PSoC4/UART_1_UART.c **** void UART_1_UartSetRxAddressMask(uint32 addressMask)
 457:Generated_Source\PSoC4/UART_1_UART.c **** {
 280              		.loc 1 457 0
 281              		.cfi_startproc
 282              		@ args = 0, pretend = 0, frame = 0
 283              		@ frame_needed = 0, uses_anonymous_args = 0
 284              		@ link register save eliminated.
ARM GAS  C:\Users\tdoan1\AppData\Local\Temp\ccyQOqtc.s 			page 14


 285              	.LVL8:
 458:Generated_Source\PSoC4/UART_1_UART.c ****     uint32 matchReg;
 459:Generated_Source\PSoC4/UART_1_UART.c **** 
 460:Generated_Source\PSoC4/UART_1_UART.c ****     matchReg = UART_1_RX_MATCH_REG;
 286              		.loc 1 460 0
 287 0000 034A     		ldr	r2, .L14
 288 0002 1168     		ldr	r1, [r2]
 289              	.LVL9:
 461:Generated_Source\PSoC4/UART_1_UART.c **** 
 462:Generated_Source\PSoC4/UART_1_UART.c ****     matchReg &= ((uint32) ~UART_1_RX_MATCH_MASK_MASK); /* Clear address mask bits */
 290              		.loc 1 462 0
 291 0004 034B     		ldr	r3, .L14+4
 292 0006 0B40     		ands	r3, r1
 293              	.LVL10:
 463:Generated_Source\PSoC4/UART_1_UART.c ****     matchReg |= ((uint32) (addressMask << UART_1_RX_MATCH_MASK_POS));
 294              		.loc 1 463 0
 295 0008 0004     		lsls	r0, r0, #16
 296              	.LVL11:
 297 000a 1843     		orrs	r0, r3
 298              	.LVL12:
 464:Generated_Source\PSoC4/UART_1_UART.c **** 
 465:Generated_Source\PSoC4/UART_1_UART.c ****     UART_1_RX_MATCH_REG = matchReg;
 299              		.loc 1 465 0
 300 000c 1060     		str	r0, [r2]
 466:Generated_Source\PSoC4/UART_1_UART.c **** }
 301              		.loc 1 466 0
 302              		@ sp needed
 303 000e 7047     		bx	lr
 304              	.L15:
 305              		.align	2
 306              	.L14:
 307 0010 10030740 		.word	1074201360
 308 0014 FFFF00FF 		.word	-16711681
 309              		.cfi_endproc
 310              	.LFE4:
 311              		.size	UART_1_UartSetRxAddressMask, .-UART_1_UartSetRxAddressMask
 312              		.section	.text.UART_1_UartGetChar,"ax",%progbits
 313              		.align	2
 314              		.global	UART_1_UartGetChar
 315              		.code	16
 316              		.thumb_func
 317              		.type	UART_1_UartGetChar, %function
 318              	UART_1_UartGetChar:
 319              	.LFB5:
 467:Generated_Source\PSoC4/UART_1_UART.c **** 
 468:Generated_Source\PSoC4/UART_1_UART.c **** 
 469:Generated_Source\PSoC4/UART_1_UART.c **** #if(UART_1_UART_RX_DIRECTION)
 470:Generated_Source\PSoC4/UART_1_UART.c ****     /*******************************************************************************
 471:Generated_Source\PSoC4/UART_1_UART.c ****     * Function Name: UART_1_UartGetChar
 472:Generated_Source\PSoC4/UART_1_UART.c ****     ****************************************************************************//**
 473:Generated_Source\PSoC4/UART_1_UART.c ****     *
 474:Generated_Source\PSoC4/UART_1_UART.c ****     *  Retrieves next data element from receive buffer.
 475:Generated_Source\PSoC4/UART_1_UART.c ****     *  This function is designed for ASCII characters and returns a char where
 476:Generated_Source\PSoC4/UART_1_UART.c ****     *  1 to 255 are valid characters and 0 indicates an error occurred or no data
 477:Generated_Source\PSoC4/UART_1_UART.c ****     *  is present.
 478:Generated_Source\PSoC4/UART_1_UART.c ****     *  - RX software buffer is disabled: Returns data element retrieved from RX
 479:Generated_Source\PSoC4/UART_1_UART.c ****     *    FIFO.
ARM GAS  C:\Users\tdoan1\AppData\Local\Temp\ccyQOqtc.s 			page 15


 480:Generated_Source\PSoC4/UART_1_UART.c ****     *  - RX software buffer is enabled: Returns data element from the software
 481:Generated_Source\PSoC4/UART_1_UART.c ****     *    receive buffer.
 482:Generated_Source\PSoC4/UART_1_UART.c ****     *
 483:Generated_Source\PSoC4/UART_1_UART.c ****     *  \return
 484:Generated_Source\PSoC4/UART_1_UART.c ****     *   Next data element from the receive buffer. ASCII character values from
 485:Generated_Source\PSoC4/UART_1_UART.c ****     *   1 to 255 are valid. A returned zero signifies an error condition or no
 486:Generated_Source\PSoC4/UART_1_UART.c ****     *   data available.
 487:Generated_Source\PSoC4/UART_1_UART.c ****     *
 488:Generated_Source\PSoC4/UART_1_UART.c ****     *  \sideeffect
 489:Generated_Source\PSoC4/UART_1_UART.c ****     *   The errors bits may not correspond with reading characters due to
 490:Generated_Source\PSoC4/UART_1_UART.c ****     *   RX FIFO and software buffer usage.
 491:Generated_Source\PSoC4/UART_1_UART.c ****     *   RX software buffer is enabled: The internal software buffer overflow
 492:Generated_Source\PSoC4/UART_1_UART.c ****     *   is not treated as an error condition.
 493:Generated_Source\PSoC4/UART_1_UART.c ****     *   Check UART_1_rxBufferOverflow to capture that error condition.
 494:Generated_Source\PSoC4/UART_1_UART.c ****     *
 495:Generated_Source\PSoC4/UART_1_UART.c ****     *******************************************************************************/
 496:Generated_Source\PSoC4/UART_1_UART.c ****     uint32 UART_1_UartGetChar(void)
 497:Generated_Source\PSoC4/UART_1_UART.c ****     {
 320              		.loc 1 497 0
 321              		.cfi_startproc
 322              		@ args = 0, pretend = 0, frame = 0
 323              		@ frame_needed = 0, uses_anonymous_args = 0
 324 0000 10B5     		push	{r4, lr}
 325              		.cfi_def_cfa_offset 8
 326              		.cfi_offset 4, -8
 327              		.cfi_offset 14, -4
 328              	.LVL13:
 498:Generated_Source\PSoC4/UART_1_UART.c ****         uint32 rxData = 0u;
 499:Generated_Source\PSoC4/UART_1_UART.c **** 
 500:Generated_Source\PSoC4/UART_1_UART.c ****         /* Reads data only if there is data to read */
 501:Generated_Source\PSoC4/UART_1_UART.c ****         if (0u != UART_1_SpiUartGetRxBufferSize())
 329              		.loc 1 501 0
 330 0002 FFF7FEFF 		bl	UART_1_SpiUartGetRxBufferSize
 331              	.LVL14:
 332 0006 0028     		cmp	r0, #0
 333 0008 02D0     		beq	.L19
 502:Generated_Source\PSoC4/UART_1_UART.c ****         {
 503:Generated_Source\PSoC4/UART_1_UART.c ****             rxData = UART_1_SpiUartReadRxData();
 334              		.loc 1 503 0
 335 000a FFF7FEFF 		bl	UART_1_SpiUartReadRxData
 336              	.LVL15:
 337 000e 00E0     		b	.L17
 338              	.LVL16:
 339              	.L19:
 498:Generated_Source\PSoC4/UART_1_UART.c ****         uint32 rxData = 0u;
 340              		.loc 1 498 0
 341 0010 0020     		movs	r0, #0
 342              	.LVL17:
 343              	.L17:
 504:Generated_Source\PSoC4/UART_1_UART.c ****         }
 505:Generated_Source\PSoC4/UART_1_UART.c **** 
 506:Generated_Source\PSoC4/UART_1_UART.c ****         if (UART_1_CHECK_INTR_RX(UART_1_INTR_RX_ERR))
 344              		.loc 1 506 0
 345 0012 054B     		ldr	r3, .L20
 346 0014 1A68     		ldr	r2, [r3]
 347 0016 D823     		movs	r3, #216
 348 0018 9B00     		lsls	r3, r3, #2
ARM GAS  C:\Users\tdoan1\AppData\Local\Temp\ccyQOqtc.s 			page 16


 349 001a 1A42     		tst	r2, r3
 350 001c 03D0     		beq	.L18
 351              	.LVL18:
 507:Generated_Source\PSoC4/UART_1_UART.c ****         {
 508:Generated_Source\PSoC4/UART_1_UART.c ****             rxData = 0u; /* Error occurred: returns zero */
 509:Generated_Source\PSoC4/UART_1_UART.c ****             UART_1_ClearRxInterruptSource(UART_1_INTR_RX_ERR);
 352              		.loc 1 509 0
 353 001e 1A00     		movs	r2, r3
 354 0020 014B     		ldr	r3, .L20
 355 0022 1A60     		str	r2, [r3]
 508:Generated_Source\PSoC4/UART_1_UART.c ****             UART_1_ClearRxInterruptSource(UART_1_INTR_RX_ERR);
 356              		.loc 1 508 0
 357 0024 0020     		movs	r0, #0
 358              	.LVL19:
 359              	.L18:
 510:Generated_Source\PSoC4/UART_1_UART.c ****         }
 511:Generated_Source\PSoC4/UART_1_UART.c **** 
 512:Generated_Source\PSoC4/UART_1_UART.c ****         return (rxData);
 513:Generated_Source\PSoC4/UART_1_UART.c ****     }
 360              		.loc 1 513 0
 361              		@ sp needed
 362 0026 10BD     		pop	{r4, pc}
 363              	.L21:
 364              		.align	2
 365              	.L20:
 366 0028 C00F0740 		.word	1074204608
 367              		.cfi_endproc
 368              	.LFE5:
 369              		.size	UART_1_UartGetChar, .-UART_1_UartGetChar
 370              		.section	.text.UART_1_UartGetByte,"ax",%progbits
 371              		.align	2
 372              		.global	UART_1_UartGetByte
 373              		.code	16
 374              		.thumb_func
 375              		.type	UART_1_UartGetByte, %function
 376              	UART_1_UartGetByte:
 377              	.LFB6:
 514:Generated_Source\PSoC4/UART_1_UART.c **** 
 515:Generated_Source\PSoC4/UART_1_UART.c **** 
 516:Generated_Source\PSoC4/UART_1_UART.c ****     /*******************************************************************************
 517:Generated_Source\PSoC4/UART_1_UART.c ****     * Function Name: UART_1_UartGetByte
 518:Generated_Source\PSoC4/UART_1_UART.c ****     ****************************************************************************//**
 519:Generated_Source\PSoC4/UART_1_UART.c ****     *
 520:Generated_Source\PSoC4/UART_1_UART.c ****     *  Retrieves the next data element from the receive buffer, returns the
 521:Generated_Source\PSoC4/UART_1_UART.c ****     *  received byte and error condition.
 522:Generated_Source\PSoC4/UART_1_UART.c ****     *   - The RX software buffer is disabled: returns the data element retrieved
 523:Generated_Source\PSoC4/UART_1_UART.c ****     *     from the RX FIFO. Undefined data will be returned if the RX FIFO is
 524:Generated_Source\PSoC4/UART_1_UART.c ****     *     empty.
 525:Generated_Source\PSoC4/UART_1_UART.c ****     *   - The RX software buffer is enabled: returns data element from the
 526:Generated_Source\PSoC4/UART_1_UART.c ****     *     software receive buffer.
 527:Generated_Source\PSoC4/UART_1_UART.c ****     *
 528:Generated_Source\PSoC4/UART_1_UART.c ****     *  \return
 529:Generated_Source\PSoC4/UART_1_UART.c ****     *   Bits 7-0 contain the next data element from the receive buffer and
 530:Generated_Source\PSoC4/UART_1_UART.c ****     *   other bits contain the error condition.
 531:Generated_Source\PSoC4/UART_1_UART.c ****     *   - UART_1_UART_RX_OVERFLOW - Attempt to write to a full
 532:Generated_Source\PSoC4/UART_1_UART.c ****     *     receiver FIFO.
 533:Generated_Source\PSoC4/UART_1_UART.c ****     *   - UART_1_UART_RX_UNDERFLOW	Attempt to read from an empty
ARM GAS  C:\Users\tdoan1\AppData\Local\Temp\ccyQOqtc.s 			page 17


 534:Generated_Source\PSoC4/UART_1_UART.c ****     *     receiver FIFO.
 535:Generated_Source\PSoC4/UART_1_UART.c ****     *   - UART_1_UART_RX_FRAME_ERROR - UART framing error detected.
 536:Generated_Source\PSoC4/UART_1_UART.c ****     *   - UART_1_UART_RX_PARITY_ERROR - UART parity error detected.
 537:Generated_Source\PSoC4/UART_1_UART.c ****     *
 538:Generated_Source\PSoC4/UART_1_UART.c ****     *  \sideeffect
 539:Generated_Source\PSoC4/UART_1_UART.c ****     *   The errors bits may not correspond with reading characters due to
 540:Generated_Source\PSoC4/UART_1_UART.c ****     *   RX FIFO and software buffer usage.
 541:Generated_Source\PSoC4/UART_1_UART.c ****     *   RX software buffer is enabled: The internal software buffer overflow
 542:Generated_Source\PSoC4/UART_1_UART.c ****     *   is not treated as an error condition.
 543:Generated_Source\PSoC4/UART_1_UART.c ****     *   Check UART_1_rxBufferOverflow to capture that error condition.
 544:Generated_Source\PSoC4/UART_1_UART.c ****     *
 545:Generated_Source\PSoC4/UART_1_UART.c ****     *******************************************************************************/
 546:Generated_Source\PSoC4/UART_1_UART.c ****     uint32 UART_1_UartGetByte(void)
 547:Generated_Source\PSoC4/UART_1_UART.c ****     {
 378              		.loc 1 547 0
 379              		.cfi_startproc
 380              		@ args = 0, pretend = 0, frame = 0
 381              		@ frame_needed = 0, uses_anonymous_args = 0
 382 0000 10B5     		push	{r4, lr}
 383              		.cfi_def_cfa_offset 8
 384              		.cfi_offset 4, -8
 385              		.cfi_offset 14, -4
 548:Generated_Source\PSoC4/UART_1_UART.c ****         uint32 rxData;
 549:Generated_Source\PSoC4/UART_1_UART.c ****         uint32 tmpStatus;
 550:Generated_Source\PSoC4/UART_1_UART.c **** 
 551:Generated_Source\PSoC4/UART_1_UART.c ****         #if (UART_1_CHECK_RX_SW_BUFFER)
 552:Generated_Source\PSoC4/UART_1_UART.c ****         {
 553:Generated_Source\PSoC4/UART_1_UART.c ****             UART_1_DisableInt();
 386              		.loc 1 553 0
 387 0002 0B20     		movs	r0, #11
 388 0004 FFF7FEFF 		bl	CyIntDisable
 389              	.LVL20:
 554:Generated_Source\PSoC4/UART_1_UART.c ****         }
 555:Generated_Source\PSoC4/UART_1_UART.c ****         #endif
 556:Generated_Source\PSoC4/UART_1_UART.c **** 
 557:Generated_Source\PSoC4/UART_1_UART.c ****         if (0u != UART_1_SpiUartGetRxBufferSize())
 390              		.loc 1 557 0
 391 0008 FFF7FEFF 		bl	UART_1_SpiUartGetRxBufferSize
 392              	.LVL21:
 393 000c 0028     		cmp	r0, #0
 394 000e 06D0     		beq	.L23
 558:Generated_Source\PSoC4/UART_1_UART.c ****         {
 559:Generated_Source\PSoC4/UART_1_UART.c ****             /* Enables interrupt to receive more bytes: at least one byte is in
 560:Generated_Source\PSoC4/UART_1_UART.c ****             * buffer.
 561:Generated_Source\PSoC4/UART_1_UART.c ****             */
 562:Generated_Source\PSoC4/UART_1_UART.c ****             #if (UART_1_CHECK_RX_SW_BUFFER)
 563:Generated_Source\PSoC4/UART_1_UART.c ****             {
 564:Generated_Source\PSoC4/UART_1_UART.c ****                 UART_1_EnableInt();
 395              		.loc 1 564 0
 396 0010 0B20     		movs	r0, #11
 397 0012 FFF7FEFF 		bl	CyIntEnable
 398              	.LVL22:
 565:Generated_Source\PSoC4/UART_1_UART.c ****             }
 566:Generated_Source\PSoC4/UART_1_UART.c ****             #endif
 567:Generated_Source\PSoC4/UART_1_UART.c **** 
 568:Generated_Source\PSoC4/UART_1_UART.c ****             /* Get received byte */
 569:Generated_Source\PSoC4/UART_1_UART.c ****             rxData = UART_1_SpiUartReadRxData();
ARM GAS  C:\Users\tdoan1\AppData\Local\Temp\ccyQOqtc.s 			page 18


 399              		.loc 1 569 0
 400 0016 FFF7FEFF 		bl	UART_1_SpiUartReadRxData
 401              	.LVL23:
 402 001a 0400     		movs	r4, r0
 403              	.LVL24:
 404 001c 07E0     		b	.L24
 405              	.LVL25:
 406              	.L23:
 570:Generated_Source\PSoC4/UART_1_UART.c ****         }
 571:Generated_Source\PSoC4/UART_1_UART.c ****         else
 572:Generated_Source\PSoC4/UART_1_UART.c ****         {
 573:Generated_Source\PSoC4/UART_1_UART.c ****             /* Reads a byte directly from RX FIFO: underflow is raised in the
 574:Generated_Source\PSoC4/UART_1_UART.c ****             * case of empty. Otherwise the first received byte will be read.
 575:Generated_Source\PSoC4/UART_1_UART.c ****             */
 576:Generated_Source\PSoC4/UART_1_UART.c ****             rxData = UART_1_RX_FIFO_RD_REG;
 407              		.loc 1 576 0
 408 001e 094B     		ldr	r3, .L25
 409 0020 1C68     		ldr	r4, [r3]
 410              	.LVL26:
 577:Generated_Source\PSoC4/UART_1_UART.c **** 
 578:Generated_Source\PSoC4/UART_1_UART.c **** 
 579:Generated_Source\PSoC4/UART_1_UART.c ****             /* Enables interrupt to receive more bytes. */
 580:Generated_Source\PSoC4/UART_1_UART.c ****             #if (UART_1_CHECK_RX_SW_BUFFER)
 581:Generated_Source\PSoC4/UART_1_UART.c ****             {
 582:Generated_Source\PSoC4/UART_1_UART.c **** 
 583:Generated_Source\PSoC4/UART_1_UART.c ****                 /* The byte has been read from RX FIFO. Clear RX interrupt to
 584:Generated_Source\PSoC4/UART_1_UART.c ****                 * not involve interrupt handler when RX FIFO is empty.
 585:Generated_Source\PSoC4/UART_1_UART.c ****                 */
 586:Generated_Source\PSoC4/UART_1_UART.c ****                 UART_1_ClearRxInterruptSource(UART_1_INTR_RX_NOT_EMPTY);
 411              		.loc 1 586 0
 412 0022 0422     		movs	r2, #4
 413 0024 084B     		ldr	r3, .L25+4
 414 0026 1A60     		str	r2, [r3]
 587:Generated_Source\PSoC4/UART_1_UART.c **** 
 588:Generated_Source\PSoC4/UART_1_UART.c ****                 UART_1_EnableInt();
 415              		.loc 1 588 0
 416 0028 0B20     		movs	r0, #11
 417 002a FFF7FEFF 		bl	CyIntEnable
 418              	.LVL27:
 419              	.L24:
 589:Generated_Source\PSoC4/UART_1_UART.c ****             }
 590:Generated_Source\PSoC4/UART_1_UART.c ****             #endif
 591:Generated_Source\PSoC4/UART_1_UART.c ****         }
 592:Generated_Source\PSoC4/UART_1_UART.c **** 
 593:Generated_Source\PSoC4/UART_1_UART.c ****         /* Get and clear RX error mask */
 594:Generated_Source\PSoC4/UART_1_UART.c ****         tmpStatus = (UART_1_GetRxInterruptSource() & UART_1_INTR_RX_ERR);
 420              		.loc 1 594 0
 421 002e 064B     		ldr	r3, .L25+4
 422 0030 1868     		ldr	r0, [r3]
 423              	.LVL28:
 595:Generated_Source\PSoC4/UART_1_UART.c ****         UART_1_ClearRxInterruptSource(UART_1_INTR_RX_ERR);
 424              		.loc 1 595 0
 425 0032 D822     		movs	r2, #216
 426 0034 9200     		lsls	r2, r2, #2
 427 0036 1A60     		str	r2, [r3]
 596:Generated_Source\PSoC4/UART_1_UART.c **** 
 597:Generated_Source\PSoC4/UART_1_UART.c ****         /* Puts together data and error status:
ARM GAS  C:\Users\tdoan1\AppData\Local\Temp\ccyQOqtc.s 			page 19


 598:Generated_Source\PSoC4/UART_1_UART.c ****         * MP mode and accept address: 9th bit is set to notify mark.
 599:Generated_Source\PSoC4/UART_1_UART.c ****         */
 600:Generated_Source\PSoC4/UART_1_UART.c ****         rxData |= ((uint32) (tmpStatus << 8u));
 428              		.loc 1 600 0
 429 0038 0002     		lsls	r0, r0, #8
 430              	.LVL29:
 431 003a D823     		movs	r3, #216
 432 003c 9B02     		lsls	r3, r3, #10
 433 003e 1840     		ands	r0, r3
 434 0040 2043     		orrs	r0, r4
 435              	.LVL30:
 601:Generated_Source\PSoC4/UART_1_UART.c **** 
 602:Generated_Source\PSoC4/UART_1_UART.c ****         return (rxData);
 603:Generated_Source\PSoC4/UART_1_UART.c ****     }
 436              		.loc 1 603 0
 437              		@ sp needed
 438 0042 10BD     		pop	{r4, pc}
 439              	.L26:
 440              		.align	2
 441              	.L25:
 442 0044 40030740 		.word	1074201408
 443 0048 C00F0740 		.word	1074204608
 444              		.cfi_endproc
 445              	.LFE6:
 446              		.size	UART_1_UartGetByte, .-UART_1_UartGetByte
 447              		.section	.text.UART_1_UartPutString,"ax",%progbits
 448              		.align	2
 449              		.global	UART_1_UartPutString
 450              		.code	16
 451              		.thumb_func
 452              		.type	UART_1_UartPutString, %function
 453              	UART_1_UartPutString:
 454              	.LFB7:
 604:Generated_Source\PSoC4/UART_1_UART.c **** 
 605:Generated_Source\PSoC4/UART_1_UART.c **** 
 606:Generated_Source\PSoC4/UART_1_UART.c ****     #if !(UART_1_CY_SCBIP_V0 || UART_1_CY_SCBIP_V1)
 607:Generated_Source\PSoC4/UART_1_UART.c ****         /*******************************************************************************
 608:Generated_Source\PSoC4/UART_1_UART.c ****         * Function Name: UART_1_UartSetRtsPolarity
 609:Generated_Source\PSoC4/UART_1_UART.c ****         ****************************************************************************//**
 610:Generated_Source\PSoC4/UART_1_UART.c ****         *
 611:Generated_Source\PSoC4/UART_1_UART.c ****         *  Sets active polarity of RTS output signal.
 612:Generated_Source\PSoC4/UART_1_UART.c ****         *  Only available for PSoC 4100 BLE / PSoC 4200 BLE / PSoC 4100M / PSoC 4200M /
 613:Generated_Source\PSoC4/UART_1_UART.c ****         *  PSoC 4200L / PSoC 4000S / PSoC 4100S / PSoC Analog Coprocessor devices.
 614:Generated_Source\PSoC4/UART_1_UART.c ****         *
 615:Generated_Source\PSoC4/UART_1_UART.c ****         *  \param polarity: Active polarity of RTS output signal.
 616:Generated_Source\PSoC4/UART_1_UART.c ****         *   - UART_1_UART_RTS_ACTIVE_LOW  - RTS signal is active low.
 617:Generated_Source\PSoC4/UART_1_UART.c ****         *   - UART_1_UART_RTS_ACTIVE_HIGH - RTS signal is active high.
 618:Generated_Source\PSoC4/UART_1_UART.c ****         *
 619:Generated_Source\PSoC4/UART_1_UART.c ****         *******************************************************************************/
 620:Generated_Source\PSoC4/UART_1_UART.c ****         void UART_1_UartSetRtsPolarity(uint32 polarity)
 621:Generated_Source\PSoC4/UART_1_UART.c ****         {
 622:Generated_Source\PSoC4/UART_1_UART.c ****             if(0u != polarity)
 623:Generated_Source\PSoC4/UART_1_UART.c ****             {
 624:Generated_Source\PSoC4/UART_1_UART.c ****                 UART_1_UART_FLOW_CTRL_REG |= (uint32)  UART_1_UART_FLOW_CTRL_RTS_POLARITY;
 625:Generated_Source\PSoC4/UART_1_UART.c ****             }
 626:Generated_Source\PSoC4/UART_1_UART.c ****             else
 627:Generated_Source\PSoC4/UART_1_UART.c ****             {
ARM GAS  C:\Users\tdoan1\AppData\Local\Temp\ccyQOqtc.s 			page 20


 628:Generated_Source\PSoC4/UART_1_UART.c ****                 UART_1_UART_FLOW_CTRL_REG &= (uint32) ~UART_1_UART_FLOW_CTRL_RTS_POLARITY;
 629:Generated_Source\PSoC4/UART_1_UART.c ****             }
 630:Generated_Source\PSoC4/UART_1_UART.c ****         }
 631:Generated_Source\PSoC4/UART_1_UART.c **** 
 632:Generated_Source\PSoC4/UART_1_UART.c **** 
 633:Generated_Source\PSoC4/UART_1_UART.c ****         /*******************************************************************************
 634:Generated_Source\PSoC4/UART_1_UART.c ****         * Function Name: UART_1_UartSetRtsFifoLevel
 635:Generated_Source\PSoC4/UART_1_UART.c ****         ****************************************************************************//**
 636:Generated_Source\PSoC4/UART_1_UART.c ****         *
 637:Generated_Source\PSoC4/UART_1_UART.c ****         *  Sets level in the RX FIFO for RTS signal activation.
 638:Generated_Source\PSoC4/UART_1_UART.c ****         *  While the RX FIFO has fewer entries than the RX FIFO level the RTS signal
 639:Generated_Source\PSoC4/UART_1_UART.c ****         *  remains active, otherwise the RTS signal becomes inactive.
 640:Generated_Source\PSoC4/UART_1_UART.c ****         *  Only available for PSoC 4100 BLE / PSoC 4200 BLE / PSoC 4100M / PSoC 4200M /
 641:Generated_Source\PSoC4/UART_1_UART.c ****         *  PSoC 4200L / PSoC 4000S / PSoC 4100S / PSoC Analog Coprocessor devices.
 642:Generated_Source\PSoC4/UART_1_UART.c ****         *
 643:Generated_Source\PSoC4/UART_1_UART.c ****         *  \param level: Level in the RX FIFO for RTS signal activation.
 644:Generated_Source\PSoC4/UART_1_UART.c ****         *   The range of valid level values is between 0 and RX FIFO depth - 1.
 645:Generated_Source\PSoC4/UART_1_UART.c ****         *   Setting level value to 0 disables RTS signal activation.
 646:Generated_Source\PSoC4/UART_1_UART.c ****         *
 647:Generated_Source\PSoC4/UART_1_UART.c ****         *******************************************************************************/
 648:Generated_Source\PSoC4/UART_1_UART.c ****         void UART_1_UartSetRtsFifoLevel(uint32 level)
 649:Generated_Source\PSoC4/UART_1_UART.c ****         {
 650:Generated_Source\PSoC4/UART_1_UART.c ****             uint32 uartFlowCtrl;
 651:Generated_Source\PSoC4/UART_1_UART.c **** 
 652:Generated_Source\PSoC4/UART_1_UART.c ****             uartFlowCtrl = UART_1_UART_FLOW_CTRL_REG;
 653:Generated_Source\PSoC4/UART_1_UART.c **** 
 654:Generated_Source\PSoC4/UART_1_UART.c ****             uartFlowCtrl &= ((uint32) ~UART_1_UART_FLOW_CTRL_TRIGGER_LEVEL_MASK); /* Clear level ma
 655:Generated_Source\PSoC4/UART_1_UART.c ****             uartFlowCtrl |= ((uint32) (UART_1_UART_FLOW_CTRL_TRIGGER_LEVEL_MASK & level));
 656:Generated_Source\PSoC4/UART_1_UART.c **** 
 657:Generated_Source\PSoC4/UART_1_UART.c ****             UART_1_UART_FLOW_CTRL_REG = uartFlowCtrl;
 658:Generated_Source\PSoC4/UART_1_UART.c ****         }
 659:Generated_Source\PSoC4/UART_1_UART.c ****     #endif /* !(UART_1_CY_SCBIP_V0 || UART_1_CY_SCBIP_V1) */
 660:Generated_Source\PSoC4/UART_1_UART.c **** 
 661:Generated_Source\PSoC4/UART_1_UART.c **** #endif /* (UART_1_UART_RX_DIRECTION) */
 662:Generated_Source\PSoC4/UART_1_UART.c **** 
 663:Generated_Source\PSoC4/UART_1_UART.c **** 
 664:Generated_Source\PSoC4/UART_1_UART.c **** #if(UART_1_UART_TX_DIRECTION)
 665:Generated_Source\PSoC4/UART_1_UART.c ****     /*******************************************************************************
 666:Generated_Source\PSoC4/UART_1_UART.c ****     * Function Name: UART_1_UartPutString
 667:Generated_Source\PSoC4/UART_1_UART.c ****     ****************************************************************************//**
 668:Generated_Source\PSoC4/UART_1_UART.c ****     *
 669:Generated_Source\PSoC4/UART_1_UART.c ****     *  Places a NULL terminated string in the transmit buffer to be sent at the
 670:Generated_Source\PSoC4/UART_1_UART.c ****     *  next available bus time.
 671:Generated_Source\PSoC4/UART_1_UART.c ****     *  This function is blocking and waits until there is a space available to put
 672:Generated_Source\PSoC4/UART_1_UART.c ****     *  requested data in transmit buffer.
 673:Generated_Source\PSoC4/UART_1_UART.c ****     *
 674:Generated_Source\PSoC4/UART_1_UART.c ****     *  \param string: pointer to the null terminated string array to be placed in the
 675:Generated_Source\PSoC4/UART_1_UART.c ****     *   transmit buffer.
 676:Generated_Source\PSoC4/UART_1_UART.c ****     *
 677:Generated_Source\PSoC4/UART_1_UART.c ****     *******************************************************************************/
 678:Generated_Source\PSoC4/UART_1_UART.c ****     void UART_1_UartPutString(const char8 string[])
 679:Generated_Source\PSoC4/UART_1_UART.c ****     {
 455              		.loc 1 679 0
 456              		.cfi_startproc
 457              		@ args = 0, pretend = 0, frame = 0
 458              		@ frame_needed = 0, uses_anonymous_args = 0
 459              	.LVL31:
ARM GAS  C:\Users\tdoan1\AppData\Local\Temp\ccyQOqtc.s 			page 21


 460 0000 70B5     		push	{r4, r5, r6, lr}
 461              		.cfi_def_cfa_offset 16
 462              		.cfi_offset 4, -16
 463              		.cfi_offset 5, -12
 464              		.cfi_offset 6, -8
 465              		.cfi_offset 14, -4
 466 0002 0500     		movs	r5, r0
 467              	.LVL32:
 680:Generated_Source\PSoC4/UART_1_UART.c ****         uint32 bufIndex;
 681:Generated_Source\PSoC4/UART_1_UART.c **** 
 682:Generated_Source\PSoC4/UART_1_UART.c ****         bufIndex = 0u;
 468              		.loc 1 682 0
 469 0004 0024     		movs	r4, #0
 683:Generated_Source\PSoC4/UART_1_UART.c **** 
 684:Generated_Source\PSoC4/UART_1_UART.c ****         /* Blocks the control flow until all data has been sent */
 685:Generated_Source\PSoC4/UART_1_UART.c ****         while(string[bufIndex] != ((char8) 0))
 470              		.loc 1 685 0
 471 0006 02E0     		b	.L28
 472              	.LVL33:
 473              	.L29:
 686:Generated_Source\PSoC4/UART_1_UART.c ****         {
 687:Generated_Source\PSoC4/UART_1_UART.c ****             UART_1_UartPutChar((uint32) string[bufIndex]);
 474              		.loc 1 687 0
 475 0008 FFF7FEFF 		bl	UART_1_SpiUartWriteTxData
 476              	.LVL34:
 688:Generated_Source\PSoC4/UART_1_UART.c ****             bufIndex++;
 477              		.loc 1 688 0
 478 000c 0134     		adds	r4, r4, #1
 479              	.LVL35:
 480              	.L28:
 685:Generated_Source\PSoC4/UART_1_UART.c ****         {
 481              		.loc 1 685 0
 482 000e 285D     		ldrb	r0, [r5, r4]
 483 0010 0028     		cmp	r0, #0
 484 0012 F9D1     		bne	.L29
 689:Generated_Source\PSoC4/UART_1_UART.c ****         }
 690:Generated_Source\PSoC4/UART_1_UART.c ****     }
 485              		.loc 1 690 0
 486              		@ sp needed
 487              	.LVL36:
 488              	.LVL37:
 489 0014 70BD     		pop	{r4, r5, r6, pc}
 490              		.cfi_endproc
 491              	.LFE7:
 492              		.size	UART_1_UartPutString, .-UART_1_UartPutString
 493 0016 C046     		.section	.text.UART_1_UartPutCRLF,"ax",%progbits
 494              		.align	2
 495              		.global	UART_1_UartPutCRLF
 496              		.code	16
 497              		.thumb_func
 498              		.type	UART_1_UartPutCRLF, %function
 499              	UART_1_UartPutCRLF:
 500              	.LFB8:
 691:Generated_Source\PSoC4/UART_1_UART.c **** 
 692:Generated_Source\PSoC4/UART_1_UART.c **** 
 693:Generated_Source\PSoC4/UART_1_UART.c ****     /*******************************************************************************
 694:Generated_Source\PSoC4/UART_1_UART.c ****     * Function Name: UART_1_UartPutCRLF
ARM GAS  C:\Users\tdoan1\AppData\Local\Temp\ccyQOqtc.s 			page 22


 695:Generated_Source\PSoC4/UART_1_UART.c ****     ****************************************************************************//**
 696:Generated_Source\PSoC4/UART_1_UART.c ****     *
 697:Generated_Source\PSoC4/UART_1_UART.c ****     *  Places byte of data followed by a carriage return (0x0D) and line feed
 698:Generated_Source\PSoC4/UART_1_UART.c ****     *  (0x0A) in the transmit buffer.
 699:Generated_Source\PSoC4/UART_1_UART.c ****     *  This function is blocking and waits until there is a space available to put
 700:Generated_Source\PSoC4/UART_1_UART.c ****     *  all requested data in transmit buffer.
 701:Generated_Source\PSoC4/UART_1_UART.c ****     *
 702:Generated_Source\PSoC4/UART_1_UART.c ****     *  \param txDataByte: the data to be transmitted.
 703:Generated_Source\PSoC4/UART_1_UART.c ****     *
 704:Generated_Source\PSoC4/UART_1_UART.c ****     *******************************************************************************/
 705:Generated_Source\PSoC4/UART_1_UART.c ****     void UART_1_UartPutCRLF(uint32 txDataByte)
 706:Generated_Source\PSoC4/UART_1_UART.c ****     {
 501              		.loc 1 706 0
 502              		.cfi_startproc
 503              		@ args = 0, pretend = 0, frame = 0
 504              		@ frame_needed = 0, uses_anonymous_args = 0
 505              	.LVL38:
 506 0000 10B5     		push	{r4, lr}
 507              		.cfi_def_cfa_offset 8
 508              		.cfi_offset 4, -8
 509              		.cfi_offset 14, -4
 707:Generated_Source\PSoC4/UART_1_UART.c ****         UART_1_UartPutChar(txDataByte);  /* Blocks control flow until all data has been sent */
 510              		.loc 1 707 0
 511 0002 FFF7FEFF 		bl	UART_1_SpiUartWriteTxData
 512              	.LVL39:
 708:Generated_Source\PSoC4/UART_1_UART.c ****         UART_1_UartPutChar(0x0Du);       /* Blocks control flow until all data has been sent */
 513              		.loc 1 708 0
 514 0006 0D20     		movs	r0, #13
 515 0008 FFF7FEFF 		bl	UART_1_SpiUartWriteTxData
 516              	.LVL40:
 709:Generated_Source\PSoC4/UART_1_UART.c ****         UART_1_UartPutChar(0x0Au);       /* Blocks control flow until all data has been sent */
 517              		.loc 1 709 0
 518 000c 0A20     		movs	r0, #10
 519 000e FFF7FEFF 		bl	UART_1_SpiUartWriteTxData
 520              	.LVL41:
 710:Generated_Source\PSoC4/UART_1_UART.c ****     }
 521              		.loc 1 710 0
 522              		@ sp needed
 523 0012 10BD     		pop	{r4, pc}
 524              		.cfi_endproc
 525              	.LFE8:
 526              		.size	UART_1_UartPutCRLF, .-UART_1_UartPutCRLF
 527              		.text
 528              	.Letext0:
 529              		.file 2 "Generated_Source\\PSoC4/cytypes.h"
 530              		.file 3 "Generated_Source\\PSoC4\\UART_1_PVT.h"
 531              		.file 4 "Generated_Source\\PSoC4\\UART_1_SPI_UART_PVT.h"
 532              		.file 5 "Generated_Source\\PSoC4/CyLib.h"
 533              		.file 6 "Generated_Source\\PSoC4\\UART_1_SPI_UART.h"