ARM GAS  C:\Users\tdoan1\AppData\Local\Temp\ccP2L39x.s 			page 1


   1              		.syntax unified
   2              		.cpu cortex-m0
   3              		.fpu softvfp
   4              		.eabi_attribute 20, 1
   5              		.eabi_attribute 21, 1
   6              		.eabi_attribute 23, 3
   7              		.eabi_attribute 24, 1
   8              		.eabi_attribute 25, 1
   9              		.eabi_attribute 26, 1
  10              		.eabi_attribute 30, 1
  11              		.eabi_attribute 34, 0
  12              		.eabi_attribute 18, 4
  13              		.thumb
  14              		.syntax unified
  15              		.file	"UART.c"
  16              		.text
  17              	.Ltext0:
  18              		.cfi_sections	.debug_frame
  19              		.section	.text.UART_Init,"ax",%progbits
  20              		.align	2
  21              		.global	UART_Init
  22              		.code	16
  23              		.thumb_func
  24              		.type	UART_Init, %function
  25              	UART_Init:
  26              	.LFB1:
  27              		.file 1 "Generated_Source\\PSoC4\\UART.c"
   1:Generated_Source\PSoC4/UART.c **** /*******************************************************************************
   2:Generated_Source\PSoC4/UART.c **** * File Name: UART.c
   3:Generated_Source\PSoC4/UART.c **** * Version 2.50
   4:Generated_Source\PSoC4/UART.c **** *
   5:Generated_Source\PSoC4/UART.c **** * Description:
   6:Generated_Source\PSoC4/UART.c **** *  This file provides all API functionality of the UART component
   7:Generated_Source\PSoC4/UART.c **** *
   8:Generated_Source\PSoC4/UART.c **** * Note:
   9:Generated_Source\PSoC4/UART.c **** *
  10:Generated_Source\PSoC4/UART.c **** ********************************************************************************
  11:Generated_Source\PSoC4/UART.c **** * Copyright 2008-2015, Cypress Semiconductor Corporation.  All rights reserved.
  12:Generated_Source\PSoC4/UART.c **** * You may use this file only in accordance with the license, terms, conditions,
  13:Generated_Source\PSoC4/UART.c **** * disclaimers, and limitations in the end user license agreement accompanying
  14:Generated_Source\PSoC4/UART.c **** * the software package with which this file was provided.
  15:Generated_Source\PSoC4/UART.c **** *******************************************************************************/
  16:Generated_Source\PSoC4/UART.c **** 
  17:Generated_Source\PSoC4/UART.c **** #include "UART.h"
  18:Generated_Source\PSoC4/UART.c **** #if (UART_INTERNAL_CLOCK_USED)
  19:Generated_Source\PSoC4/UART.c ****     #include "UART_IntClock.h"
  20:Generated_Source\PSoC4/UART.c **** #endif /* End UART_INTERNAL_CLOCK_USED */
  21:Generated_Source\PSoC4/UART.c **** 
  22:Generated_Source\PSoC4/UART.c **** 
  23:Generated_Source\PSoC4/UART.c **** /***************************************
  24:Generated_Source\PSoC4/UART.c **** * Global data allocation
  25:Generated_Source\PSoC4/UART.c **** ***************************************/
  26:Generated_Source\PSoC4/UART.c **** 
  27:Generated_Source\PSoC4/UART.c **** uint8 UART_initVar = 0u;
  28:Generated_Source\PSoC4/UART.c **** 
  29:Generated_Source\PSoC4/UART.c **** #if (UART_TX_INTERRUPT_ENABLED && UART_TX_ENABLED)
  30:Generated_Source\PSoC4/UART.c ****     volatile uint8 UART_txBuffer[UART_TX_BUFFER_SIZE];
ARM GAS  C:\Users\tdoan1\AppData\Local\Temp\ccP2L39x.s 			page 2


  31:Generated_Source\PSoC4/UART.c ****     volatile uint8 UART_txBufferRead = 0u;
  32:Generated_Source\PSoC4/UART.c ****     uint8 UART_txBufferWrite = 0u;
  33:Generated_Source\PSoC4/UART.c **** #endif /* (UART_TX_INTERRUPT_ENABLED && UART_TX_ENABLED) */
  34:Generated_Source\PSoC4/UART.c **** 
  35:Generated_Source\PSoC4/UART.c **** #if (UART_RX_INTERRUPT_ENABLED && (UART_RX_ENABLED || UART_HD_ENABLED))
  36:Generated_Source\PSoC4/UART.c ****     uint8 UART_errorStatus = 0u;
  37:Generated_Source\PSoC4/UART.c ****     volatile uint8 UART_rxBuffer[UART_RX_BUFFER_SIZE];
  38:Generated_Source\PSoC4/UART.c ****     volatile uint8 UART_rxBufferRead  = 0u;
  39:Generated_Source\PSoC4/UART.c ****     volatile uint8 UART_rxBufferWrite = 0u;
  40:Generated_Source\PSoC4/UART.c ****     volatile uint8 UART_rxBufferLoopDetect = 0u;
  41:Generated_Source\PSoC4/UART.c ****     volatile uint8 UART_rxBufferOverflow   = 0u;
  42:Generated_Source\PSoC4/UART.c ****     #if (UART_RXHW_ADDRESS_ENABLED)
  43:Generated_Source\PSoC4/UART.c ****         volatile uint8 UART_rxAddressMode = UART_RX_ADDRESS_MODE;
  44:Generated_Source\PSoC4/UART.c ****         volatile uint8 UART_rxAddressDetected = 0u;
  45:Generated_Source\PSoC4/UART.c ****     #endif /* (UART_RXHW_ADDRESS_ENABLED) */
  46:Generated_Source\PSoC4/UART.c **** #endif /* (UART_RX_INTERRUPT_ENABLED && (UART_RX_ENABLED || UART_HD_ENABLED)) */
  47:Generated_Source\PSoC4/UART.c **** 
  48:Generated_Source\PSoC4/UART.c **** 
  49:Generated_Source\PSoC4/UART.c **** /*******************************************************************************
  50:Generated_Source\PSoC4/UART.c **** * Function Name: UART_Start
  51:Generated_Source\PSoC4/UART.c **** ********************************************************************************
  52:Generated_Source\PSoC4/UART.c **** *
  53:Generated_Source\PSoC4/UART.c **** * Summary:
  54:Generated_Source\PSoC4/UART.c **** *  This is the preferred method to begin component operation.
  55:Generated_Source\PSoC4/UART.c **** *  UART_Start() sets the initVar variable, calls the
  56:Generated_Source\PSoC4/UART.c **** *  UART_Init() function, and then calls the
  57:Generated_Source\PSoC4/UART.c **** *  UART_Enable() function.
  58:Generated_Source\PSoC4/UART.c **** *
  59:Generated_Source\PSoC4/UART.c **** * Parameters:
  60:Generated_Source\PSoC4/UART.c **** *  None.
  61:Generated_Source\PSoC4/UART.c **** *
  62:Generated_Source\PSoC4/UART.c **** * Return:
  63:Generated_Source\PSoC4/UART.c **** *  None.
  64:Generated_Source\PSoC4/UART.c **** *
  65:Generated_Source\PSoC4/UART.c **** * Global variables:
  66:Generated_Source\PSoC4/UART.c **** *  The UART_intiVar variable is used to indicate initial
  67:Generated_Source\PSoC4/UART.c **** *  configuration of this component. The variable is initialized to zero (0u)
  68:Generated_Source\PSoC4/UART.c **** *  and set to one (1u) the first time UART_Start() is called. This
  69:Generated_Source\PSoC4/UART.c **** *  allows for component initialization without re-initialization in all
  70:Generated_Source\PSoC4/UART.c **** *  subsequent calls to the UART_Start() routine.
  71:Generated_Source\PSoC4/UART.c **** *
  72:Generated_Source\PSoC4/UART.c **** * Reentrant:
  73:Generated_Source\PSoC4/UART.c **** *  No.
  74:Generated_Source\PSoC4/UART.c **** *
  75:Generated_Source\PSoC4/UART.c **** *******************************************************************************/
  76:Generated_Source\PSoC4/UART.c **** void UART_Start(void) 
  77:Generated_Source\PSoC4/UART.c **** {
  78:Generated_Source\PSoC4/UART.c ****     /* If not initialized then initialize all required hardware and software */
  79:Generated_Source\PSoC4/UART.c ****     if(UART_initVar == 0u)
  80:Generated_Source\PSoC4/UART.c ****     {
  81:Generated_Source\PSoC4/UART.c ****         UART_Init();
  82:Generated_Source\PSoC4/UART.c ****         UART_initVar = 1u;
  83:Generated_Source\PSoC4/UART.c ****     }
  84:Generated_Source\PSoC4/UART.c **** 
  85:Generated_Source\PSoC4/UART.c ****     UART_Enable();
  86:Generated_Source\PSoC4/UART.c **** }
  87:Generated_Source\PSoC4/UART.c **** 
ARM GAS  C:\Users\tdoan1\AppData\Local\Temp\ccP2L39x.s 			page 3


  88:Generated_Source\PSoC4/UART.c **** 
  89:Generated_Source\PSoC4/UART.c **** /*******************************************************************************
  90:Generated_Source\PSoC4/UART.c **** * Function Name: UART_Init
  91:Generated_Source\PSoC4/UART.c **** ********************************************************************************
  92:Generated_Source\PSoC4/UART.c **** *
  93:Generated_Source\PSoC4/UART.c **** * Summary:
  94:Generated_Source\PSoC4/UART.c **** *  Initializes or restores the component according to the customizer Configure
  95:Generated_Source\PSoC4/UART.c **** *  dialog settings. It is not necessary to call UART_Init() because
  96:Generated_Source\PSoC4/UART.c **** *  the UART_Start() API calls this function and is the preferred
  97:Generated_Source\PSoC4/UART.c **** *  method to begin component operation.
  98:Generated_Source\PSoC4/UART.c **** *
  99:Generated_Source\PSoC4/UART.c **** * Parameters:
 100:Generated_Source\PSoC4/UART.c **** *  None.
 101:Generated_Source\PSoC4/UART.c **** *
 102:Generated_Source\PSoC4/UART.c **** * Return:
 103:Generated_Source\PSoC4/UART.c **** *  None.
 104:Generated_Source\PSoC4/UART.c **** *
 105:Generated_Source\PSoC4/UART.c **** *******************************************************************************/
 106:Generated_Source\PSoC4/UART.c **** void UART_Init(void) 
 107:Generated_Source\PSoC4/UART.c **** {
  28              		.loc 1 107 0
  29              		.cfi_startproc
  30              		@ args = 0, pretend = 0, frame = 0
  31              		@ frame_needed = 0, uses_anonymous_args = 0
  32 0000 10B5     		push	{r4, lr}
  33              		.cfi_def_cfa_offset 8
  34              		.cfi_offset 4, -8
  35              		.cfi_offset 14, -4
 108:Generated_Source\PSoC4/UART.c ****     #if(UART_RX_ENABLED || UART_HD_ENABLED)
 109:Generated_Source\PSoC4/UART.c **** 
 110:Generated_Source\PSoC4/UART.c ****         #if (UART_RX_INTERRUPT_ENABLED)
 111:Generated_Source\PSoC4/UART.c ****             /* Set RX interrupt vector and priority */
 112:Generated_Source\PSoC4/UART.c ****             (void) CyIntSetVector(UART_RX_VECT_NUM, &UART_RXISR);
 113:Generated_Source\PSoC4/UART.c ****             CyIntSetPriority(UART_RX_VECT_NUM, UART_RX_PRIOR_NUM);
 114:Generated_Source\PSoC4/UART.c ****             UART_errorStatus = 0u;
 115:Generated_Source\PSoC4/UART.c ****         #endif /* (UART_RX_INTERRUPT_ENABLED) */
 116:Generated_Source\PSoC4/UART.c **** 
 117:Generated_Source\PSoC4/UART.c ****         #if (UART_RXHW_ADDRESS_ENABLED)
 118:Generated_Source\PSoC4/UART.c ****             UART_SetRxAddressMode(UART_RX_ADDRESS_MODE);
 119:Generated_Source\PSoC4/UART.c ****             UART_SetRxAddress1(UART_RX_HW_ADDRESS1);
 120:Generated_Source\PSoC4/UART.c ****             UART_SetRxAddress2(UART_RX_HW_ADDRESS2);
 121:Generated_Source\PSoC4/UART.c ****         #endif /* End UART_RXHW_ADDRESS_ENABLED */
 122:Generated_Source\PSoC4/UART.c **** 
 123:Generated_Source\PSoC4/UART.c ****         /* Init Count7 period */
 124:Generated_Source\PSoC4/UART.c ****         UART_RXBITCTR_PERIOD_REG = UART_RXBITCTR_INIT;
  36              		.loc 1 124 0
  37 0002 7622     		movs	r2, #118
  38 0004 0B4B     		ldr	r3, .L2
  39 0006 1A70     		strb	r2, [r3]
 125:Generated_Source\PSoC4/UART.c ****         /* Configure the Initial RX interrupt mask */
 126:Generated_Source\PSoC4/UART.c ****         UART_RXSTATUS_MASK_REG  = UART_INIT_RX_INTERRUPTS_MASK;
  40              		.loc 1 126 0
  41 0008 563A     		subs	r2, r2, #86
  42 000a 0B4B     		ldr	r3, .L2+4
  43 000c 1A70     		strb	r2, [r3]
 127:Generated_Source\PSoC4/UART.c ****     #endif /* End UART_RX_ENABLED || UART_HD_ENABLED*/
 128:Generated_Source\PSoC4/UART.c **** 
ARM GAS  C:\Users\tdoan1\AppData\Local\Temp\ccP2L39x.s 			page 4


 129:Generated_Source\PSoC4/UART.c ****     #if(UART_TX_ENABLED)
 130:Generated_Source\PSoC4/UART.c ****         #if (UART_TX_INTERRUPT_ENABLED)
 131:Generated_Source\PSoC4/UART.c ****             /* Set TX interrupt vector and priority */
 132:Generated_Source\PSoC4/UART.c ****             (void) CyIntSetVector(UART_TX_VECT_NUM, &UART_TXISR);
  44              		.loc 1 132 0
  45 000e 0B49     		ldr	r1, .L2+8
  46 0010 0220     		movs	r0, #2
  47 0012 FFF7FEFF 		bl	CyIntSetVector
  48              	.LVL0:
 133:Generated_Source\PSoC4/UART.c ****             CyIntSetPriority(UART_TX_VECT_NUM, UART_TX_PRIOR_NUM);
  49              		.loc 1 133 0
  50 0016 0321     		movs	r1, #3
  51 0018 0220     		movs	r0, #2
  52 001a FFF7FEFF 		bl	CyIntSetPriority
  53              	.LVL1:
 134:Generated_Source\PSoC4/UART.c ****         #endif /* (UART_TX_INTERRUPT_ENABLED) */
 135:Generated_Source\PSoC4/UART.c **** 
 136:Generated_Source\PSoC4/UART.c ****         /* Write Counter Value for TX Bit Clk Generator*/
 137:Generated_Source\PSoC4/UART.c ****         #if (UART_TXCLKGEN_DP)
 138:Generated_Source\PSoC4/UART.c ****             UART_TXBITCLKGEN_CTR_REG = UART_BIT_CENTER;
  54              		.loc 1 138 0
  55 001e 0E22     		movs	r2, #14
  56 0020 074B     		ldr	r3, .L2+12
  57 0022 1A70     		strb	r2, [r3]
 139:Generated_Source\PSoC4/UART.c ****             UART_TXBITCLKTX_COMPLETE_REG = ((UART_NUMBER_OF_DATA_BITS +
  58              		.loc 1 139 0
  59 0024 8132     		adds	r2, r2, #129
  60 0026 074B     		ldr	r3, .L2+16
  61 0028 1A70     		strb	r2, [r3]
 140:Generated_Source\PSoC4/UART.c ****                         UART_NUMBER_OF_START_BIT) * UART_OVER_SAMPLE_COUNT) - 1u;
 141:Generated_Source\PSoC4/UART.c ****         #else
 142:Generated_Source\PSoC4/UART.c ****             UART_TXBITCTR_PERIOD_REG = ((UART_NUMBER_OF_DATA_BITS +
 143:Generated_Source\PSoC4/UART.c ****                         UART_NUMBER_OF_START_BIT) * UART_OVER_SAMPLE_8) - 1u;
 144:Generated_Source\PSoC4/UART.c ****         #endif /* End UART_TXCLKGEN_DP */
 145:Generated_Source\PSoC4/UART.c **** 
 146:Generated_Source\PSoC4/UART.c ****         /* Configure the Initial TX interrupt mask */
 147:Generated_Source\PSoC4/UART.c ****         #if (UART_TX_INTERRUPT_ENABLED)
 148:Generated_Source\PSoC4/UART.c ****             UART_TXSTATUS_MASK_REG = UART_TX_STS_FIFO_EMPTY;
  62              		.loc 1 148 0
  63 002a 8D3A     		subs	r2, r2, #141
  64 002c 064B     		ldr	r3, .L2+20
  65 002e 1A70     		strb	r2, [r3]
 149:Generated_Source\PSoC4/UART.c ****         #else
 150:Generated_Source\PSoC4/UART.c ****             UART_TXSTATUS_MASK_REG = UART_INIT_TX_INTERRUPTS_MASK;
 151:Generated_Source\PSoC4/UART.c ****         #endif /*End UART_TX_INTERRUPT_ENABLED*/
 152:Generated_Source\PSoC4/UART.c **** 
 153:Generated_Source\PSoC4/UART.c ****     #endif /* End UART_TX_ENABLED */
 154:Generated_Source\PSoC4/UART.c **** 
 155:Generated_Source\PSoC4/UART.c ****     #if(UART_PARITY_TYPE_SW)  /* Write Parity to Control Register */
 156:Generated_Source\PSoC4/UART.c ****         UART_WriteControlRegister( \
 157:Generated_Source\PSoC4/UART.c ****             (UART_ReadControlRegister() & (uint8)~UART_CTRL_PARITY_TYPE_MASK) | \
 158:Generated_Source\PSoC4/UART.c ****             (uint8)(UART_PARITY_TYPE << UART_CTRL_PARITY_TYPE0_SHIFT) );
 159:Generated_Source\PSoC4/UART.c ****     #endif /* End UART_PARITY_TYPE_SW */
 160:Generated_Source\PSoC4/UART.c **** }
  66              		.loc 1 160 0
  67              		@ sp needed
  68 0030 10BD     		pop	{r4, pc}
ARM GAS  C:\Users\tdoan1\AppData\Local\Temp\ccP2L39x.s 			page 5


  69              	.L3:
  70 0032 C046     		.align	2
  71              	.L2:
  72 0034 82000F40 		.word	1074724994
  73 0038 80000F40 		.word	1074724992
  74 003c 00000000 		.word	UART_TXISR
  75 0040 22000F40 		.word	1074724898
  76 0044 32000F40 		.word	1074724914
  77 0048 83000F40 		.word	1074724995
  78              		.cfi_endproc
  79              	.LFE1:
  80              		.size	UART_Init, .-UART_Init
  81              		.section	.text.UART_Enable,"ax",%progbits
  82              		.align	2
  83              		.global	UART_Enable
  84              		.code	16
  85              		.thumb_func
  86              		.type	UART_Enable, %function
  87              	UART_Enable:
  88              	.LFB2:
 161:Generated_Source\PSoC4/UART.c **** 
 162:Generated_Source\PSoC4/UART.c **** 
 163:Generated_Source\PSoC4/UART.c **** /*******************************************************************************
 164:Generated_Source\PSoC4/UART.c **** * Function Name: UART_Enable
 165:Generated_Source\PSoC4/UART.c **** ********************************************************************************
 166:Generated_Source\PSoC4/UART.c **** *
 167:Generated_Source\PSoC4/UART.c **** * Summary:
 168:Generated_Source\PSoC4/UART.c **** *  Activates the hardware and begins component operation. It is not necessary
 169:Generated_Source\PSoC4/UART.c **** *  to call UART_Enable() because the UART_Start() API
 170:Generated_Source\PSoC4/UART.c **** *  calls this function, which is the preferred method to begin component
 171:Generated_Source\PSoC4/UART.c **** *  operation.
 172:Generated_Source\PSoC4/UART.c **** 
 173:Generated_Source\PSoC4/UART.c **** * Parameters:
 174:Generated_Source\PSoC4/UART.c **** *  None.
 175:Generated_Source\PSoC4/UART.c **** *
 176:Generated_Source\PSoC4/UART.c **** * Return:
 177:Generated_Source\PSoC4/UART.c **** *  None.
 178:Generated_Source\PSoC4/UART.c **** *
 179:Generated_Source\PSoC4/UART.c **** * Global Variables:
 180:Generated_Source\PSoC4/UART.c **** *  UART_rxAddressDetected - set to initial state (0).
 181:Generated_Source\PSoC4/UART.c **** *
 182:Generated_Source\PSoC4/UART.c **** *******************************************************************************/
 183:Generated_Source\PSoC4/UART.c **** void UART_Enable(void) 
 184:Generated_Source\PSoC4/UART.c **** {
  89              		.loc 1 184 0
  90              		.cfi_startproc
  91              		@ args = 0, pretend = 0, frame = 0
  92              		@ frame_needed = 0, uses_anonymous_args = 0
  93 0000 10B5     		push	{r4, lr}
  94              		.cfi_def_cfa_offset 8
  95              		.cfi_offset 4, -8
  96              		.cfi_offset 14, -4
 185:Generated_Source\PSoC4/UART.c ****     uint8 enableInterrupts;
 186:Generated_Source\PSoC4/UART.c ****     enableInterrupts = CyEnterCriticalSection();
  97              		.loc 1 186 0
  98 0002 FFF7FEFF 		bl	CyEnterCriticalSection
  99              	.LVL2:
ARM GAS  C:\Users\tdoan1\AppData\Local\Temp\ccP2L39x.s 			page 6


 100 0006 0400     		movs	r4, r0
 101              	.LVL3:
 187:Generated_Source\PSoC4/UART.c **** 
 188:Generated_Source\PSoC4/UART.c ****     #if (UART_RX_ENABLED || UART_HD_ENABLED)
 189:Generated_Source\PSoC4/UART.c ****         /* RX Counter (Count7) Enable */
 190:Generated_Source\PSoC4/UART.c ****         UART_RXBITCTR_CONTROL_REG |= UART_CNTR_ENABLE;
 102              		.loc 1 190 0
 103 0008 0E4A     		ldr	r2, .L5
 104 000a 1178     		ldrb	r1, [r2]
 105 000c 2023     		movs	r3, #32
 106 000e 0B43     		orrs	r3, r1
 107 0010 DBB2     		uxtb	r3, r3
 108 0012 1370     		strb	r3, [r2]
 191:Generated_Source\PSoC4/UART.c **** 
 192:Generated_Source\PSoC4/UART.c ****         /* Enable the RX Interrupt */
 193:Generated_Source\PSoC4/UART.c ****         UART_RXSTATUS_ACTL_REG  |= UART_INT_ENABLE;
 109              		.loc 1 193 0
 110 0014 0C49     		ldr	r1, .L5+4
 111 0016 0A78     		ldrb	r2, [r1]
 112 0018 1023     		movs	r3, #16
 113 001a 1A43     		orrs	r2, r3
 114 001c D2B2     		uxtb	r2, r2
 115 001e 0A70     		strb	r2, [r1]
 194:Generated_Source\PSoC4/UART.c **** 
 195:Generated_Source\PSoC4/UART.c ****         #if (UART_RX_INTERRUPT_ENABLED)
 196:Generated_Source\PSoC4/UART.c ****             UART_EnableRxInt();
 197:Generated_Source\PSoC4/UART.c **** 
 198:Generated_Source\PSoC4/UART.c ****             #if (UART_RXHW_ADDRESS_ENABLED)
 199:Generated_Source\PSoC4/UART.c ****                 UART_rxAddressDetected = 0u;
 200:Generated_Source\PSoC4/UART.c ****             #endif /* (UART_RXHW_ADDRESS_ENABLED) */
 201:Generated_Source\PSoC4/UART.c ****         #endif /* (UART_RX_INTERRUPT_ENABLED) */
 202:Generated_Source\PSoC4/UART.c ****     #endif /* (UART_RX_ENABLED || UART_HD_ENABLED) */
 203:Generated_Source\PSoC4/UART.c **** 
 204:Generated_Source\PSoC4/UART.c ****     #if(UART_TX_ENABLED)
 205:Generated_Source\PSoC4/UART.c ****         /* TX Counter (DP/Count7) Enable */
 206:Generated_Source\PSoC4/UART.c ****         #if(!UART_TXCLKGEN_DP)
 207:Generated_Source\PSoC4/UART.c ****             UART_TXBITCTR_CONTROL_REG |= UART_CNTR_ENABLE;
 208:Generated_Source\PSoC4/UART.c ****         #endif /* End UART_TXCLKGEN_DP */
 209:Generated_Source\PSoC4/UART.c **** 
 210:Generated_Source\PSoC4/UART.c ****         /* Enable the TX Interrupt */
 211:Generated_Source\PSoC4/UART.c ****         UART_TXSTATUS_ACTL_REG |= UART_INT_ENABLE;
 116              		.loc 1 211 0
 117 0020 0A4A     		ldr	r2, .L5+8
 118 0022 1178     		ldrb	r1, [r2]
 119 0024 0B43     		orrs	r3, r1
 120 0026 DBB2     		uxtb	r3, r3
 121 0028 1370     		strb	r3, [r2]
 212:Generated_Source\PSoC4/UART.c ****         #if (UART_TX_INTERRUPT_ENABLED)
 213:Generated_Source\PSoC4/UART.c ****             UART_ClearPendingTxInt(); /* Clear history of TX_NOT_EMPTY */
 122              		.loc 1 213 0
 123 002a 0220     		movs	r0, #2
 124 002c FFF7FEFF 		bl	CyIntClearPending
 125              	.LVL4:
 214:Generated_Source\PSoC4/UART.c ****             UART_EnableTxInt();
 126              		.loc 1 214 0
 127 0030 0220     		movs	r0, #2
 128 0032 FFF7FEFF 		bl	CyIntEnable
ARM GAS  C:\Users\tdoan1\AppData\Local\Temp\ccP2L39x.s 			page 7


 129              	.LVL5:
 215:Generated_Source\PSoC4/UART.c ****         #endif /* (UART_TX_INTERRUPT_ENABLED) */
 216:Generated_Source\PSoC4/UART.c ****      #endif /* (UART_TX_INTERRUPT_ENABLED) */
 217:Generated_Source\PSoC4/UART.c **** 
 218:Generated_Source\PSoC4/UART.c ****     #if (UART_INTERNAL_CLOCK_USED)
 219:Generated_Source\PSoC4/UART.c ****         UART_IntClock_Start();  /* Enable the clock */
 130              		.loc 1 219 0
 131 0036 FFF7FEFF 		bl	UART_IntClock_Start
 132              	.LVL6:
 220:Generated_Source\PSoC4/UART.c ****     #endif /* (UART_INTERNAL_CLOCK_USED) */
 221:Generated_Source\PSoC4/UART.c **** 
 222:Generated_Source\PSoC4/UART.c ****     CyExitCriticalSection(enableInterrupts);
 133              		.loc 1 222 0
 134 003a 2000     		movs	r0, r4
 135 003c FFF7FEFF 		bl	CyExitCriticalSection
 136              	.LVL7:
 223:Generated_Source\PSoC4/UART.c **** }
 137              		.loc 1 223 0
 138              		@ sp needed
 139              	.LVL8:
 140 0040 10BD     		pop	{r4, pc}
 141              	.L6:
 142 0042 C046     		.align	2
 143              	.L5:
 144 0044 92000F40 		.word	1074725010
 145 0048 90000F40 		.word	1074725008
 146 004c 93000F40 		.word	1074725011
 147              		.cfi_endproc
 148              	.LFE2:
 149              		.size	UART_Enable, .-UART_Enable
 150              		.section	.text.UART_Start,"ax",%progbits
 151              		.align	2
 152              		.global	UART_Start
 153              		.code	16
 154              		.thumb_func
 155              		.type	UART_Start, %function
 156              	UART_Start:
 157              	.LFB0:
  77:Generated_Source\PSoC4/UART.c ****     /* If not initialized then initialize all required hardware and software */
 158              		.loc 1 77 0
 159              		.cfi_startproc
 160              		@ args = 0, pretend = 0, frame = 0
 161              		@ frame_needed = 0, uses_anonymous_args = 0
 162 0000 10B5     		push	{r4, lr}
 163              		.cfi_def_cfa_offset 8
 164              		.cfi_offset 4, -8
 165              		.cfi_offset 14, -4
  79:Generated_Source\PSoC4/UART.c ****     {
 166              		.loc 1 79 0
 167 0002 064B     		ldr	r3, .L9
 168 0004 1B78     		ldrb	r3, [r3]
 169 0006 002B     		cmp	r3, #0
 170 0008 04D1     		bne	.L8
  81:Generated_Source\PSoC4/UART.c ****         UART_initVar = 1u;
 171              		.loc 1 81 0
 172 000a FFF7FEFF 		bl	UART_Init
 173              	.LVL9:
ARM GAS  C:\Users\tdoan1\AppData\Local\Temp\ccP2L39x.s 			page 8


  82:Generated_Source\PSoC4/UART.c ****     }
 174              		.loc 1 82 0
 175 000e 0122     		movs	r2, #1
 176 0010 024B     		ldr	r3, .L9
 177 0012 1A70     		strb	r2, [r3]
 178              	.L8:
  85:Generated_Source\PSoC4/UART.c **** }
 179              		.loc 1 85 0
 180 0014 FFF7FEFF 		bl	UART_Enable
 181              	.LVL10:
  86:Generated_Source\PSoC4/UART.c **** 
 182              		.loc 1 86 0
 183              		@ sp needed
 184 0018 10BD     		pop	{r4, pc}
 185              	.L10:
 186 001a C046     		.align	2
 187              	.L9:
 188 001c 00000000 		.word	.LANCHOR0
 189              		.cfi_endproc
 190              	.LFE0:
 191              		.size	UART_Start, .-UART_Start
 192              		.section	.text.UART_Stop,"ax",%progbits
 193              		.align	2
 194              		.global	UART_Stop
 195              		.code	16
 196              		.thumb_func
 197              		.type	UART_Stop, %function
 198              	UART_Stop:
 199              	.LFB3:
 224:Generated_Source\PSoC4/UART.c **** 
 225:Generated_Source\PSoC4/UART.c **** 
 226:Generated_Source\PSoC4/UART.c **** /*******************************************************************************
 227:Generated_Source\PSoC4/UART.c **** * Function Name: UART_Stop
 228:Generated_Source\PSoC4/UART.c **** ********************************************************************************
 229:Generated_Source\PSoC4/UART.c **** *
 230:Generated_Source\PSoC4/UART.c **** * Summary:
 231:Generated_Source\PSoC4/UART.c **** *  Disables the UART operation.
 232:Generated_Source\PSoC4/UART.c **** *
 233:Generated_Source\PSoC4/UART.c **** * Parameters:
 234:Generated_Source\PSoC4/UART.c **** *  None.
 235:Generated_Source\PSoC4/UART.c **** *
 236:Generated_Source\PSoC4/UART.c **** * Return:
 237:Generated_Source\PSoC4/UART.c **** *  None.
 238:Generated_Source\PSoC4/UART.c **** *
 239:Generated_Source\PSoC4/UART.c **** *******************************************************************************/
 240:Generated_Source\PSoC4/UART.c **** void UART_Stop(void) 
 241:Generated_Source\PSoC4/UART.c **** {
 200              		.loc 1 241 0
 201              		.cfi_startproc
 202              		@ args = 0, pretend = 0, frame = 0
 203              		@ frame_needed = 0, uses_anonymous_args = 0
 204 0000 10B5     		push	{r4, lr}
 205              		.cfi_def_cfa_offset 8
 206              		.cfi_offset 4, -8
 207              		.cfi_offset 14, -4
 242:Generated_Source\PSoC4/UART.c ****     uint8 enableInterrupts;
 243:Generated_Source\PSoC4/UART.c ****     enableInterrupts = CyEnterCriticalSection();
ARM GAS  C:\Users\tdoan1\AppData\Local\Temp\ccP2L39x.s 			page 9


 208              		.loc 1 243 0
 209 0002 FFF7FEFF 		bl	CyEnterCriticalSection
 210              	.LVL11:
 211 0006 0400     		movs	r4, r0
 212              	.LVL12:
 244:Generated_Source\PSoC4/UART.c **** 
 245:Generated_Source\PSoC4/UART.c ****     /* Write Bit Counter Disable */
 246:Generated_Source\PSoC4/UART.c ****     #if (UART_RX_ENABLED || UART_HD_ENABLED)
 247:Generated_Source\PSoC4/UART.c ****         UART_RXBITCTR_CONTROL_REG &= (uint8) ~UART_CNTR_ENABLE;
 213              		.loc 1 247 0
 214 0008 0B4A     		ldr	r2, .L12
 215 000a 1378     		ldrb	r3, [r2]
 216 000c 2021     		movs	r1, #32
 217 000e 8B43     		bics	r3, r1
 218 0010 1370     		strb	r3, [r2]
 248:Generated_Source\PSoC4/UART.c ****     #endif /* (UART_RX_ENABLED || UART_HD_ENABLED) */
 249:Generated_Source\PSoC4/UART.c **** 
 250:Generated_Source\PSoC4/UART.c ****     #if (UART_TX_ENABLED)
 251:Generated_Source\PSoC4/UART.c ****         #if(!UART_TXCLKGEN_DP)
 252:Generated_Source\PSoC4/UART.c ****             UART_TXBITCTR_CONTROL_REG &= (uint8) ~UART_CNTR_ENABLE;
 253:Generated_Source\PSoC4/UART.c ****         #endif /* (!UART_TXCLKGEN_DP) */
 254:Generated_Source\PSoC4/UART.c ****     #endif /* (UART_TX_ENABLED) */
 255:Generated_Source\PSoC4/UART.c **** 
 256:Generated_Source\PSoC4/UART.c ****     #if (UART_INTERNAL_CLOCK_USED)
 257:Generated_Source\PSoC4/UART.c ****         UART_IntClock_Stop();   /* Disable the clock */
 219              		.loc 1 257 0
 220 0012 FFF7FEFF 		bl	UART_IntClock_Stop
 221              	.LVL13:
 258:Generated_Source\PSoC4/UART.c ****     #endif /* (UART_INTERNAL_CLOCK_USED) */
 259:Generated_Source\PSoC4/UART.c **** 
 260:Generated_Source\PSoC4/UART.c ****     /* Disable internal interrupt component */
 261:Generated_Source\PSoC4/UART.c ****     #if (UART_RX_ENABLED || UART_HD_ENABLED)
 262:Generated_Source\PSoC4/UART.c ****         UART_RXSTATUS_ACTL_REG  &= (uint8) ~UART_INT_ENABLE;
 222              		.loc 1 262 0
 223 0016 094A     		ldr	r2, .L12+4
 224 0018 1378     		ldrb	r3, [r2]
 225 001a 1021     		movs	r1, #16
 226 001c 8B43     		bics	r3, r1
 227 001e 1370     		strb	r3, [r2]
 263:Generated_Source\PSoC4/UART.c **** 
 264:Generated_Source\PSoC4/UART.c ****         #if (UART_RX_INTERRUPT_ENABLED)
 265:Generated_Source\PSoC4/UART.c ****             UART_DisableRxInt();
 266:Generated_Source\PSoC4/UART.c ****         #endif /* (UART_RX_INTERRUPT_ENABLED) */
 267:Generated_Source\PSoC4/UART.c ****     #endif /* (UART_RX_ENABLED || UART_HD_ENABLED) */
 268:Generated_Source\PSoC4/UART.c **** 
 269:Generated_Source\PSoC4/UART.c ****     #if (UART_TX_ENABLED)
 270:Generated_Source\PSoC4/UART.c ****         UART_TXSTATUS_ACTL_REG &= (uint8) ~UART_INT_ENABLE;
 228              		.loc 1 270 0
 229 0020 074A     		ldr	r2, .L12+8
 230 0022 1378     		ldrb	r3, [r2]
 231 0024 8B43     		bics	r3, r1
 232 0026 1370     		strb	r3, [r2]
 271:Generated_Source\PSoC4/UART.c **** 
 272:Generated_Source\PSoC4/UART.c ****         #if (UART_TX_INTERRUPT_ENABLED)
 273:Generated_Source\PSoC4/UART.c ****             UART_DisableTxInt();
 233              		.loc 1 273 0
 234 0028 0220     		movs	r0, #2
ARM GAS  C:\Users\tdoan1\AppData\Local\Temp\ccP2L39x.s 			page 10


 235 002a FFF7FEFF 		bl	CyIntDisable
 236              	.LVL14:
 274:Generated_Source\PSoC4/UART.c ****         #endif /* (UART_TX_INTERRUPT_ENABLED) */
 275:Generated_Source\PSoC4/UART.c ****     #endif /* (UART_TX_ENABLED) */
 276:Generated_Source\PSoC4/UART.c **** 
 277:Generated_Source\PSoC4/UART.c ****     CyExitCriticalSection(enableInterrupts);
 237              		.loc 1 277 0
 238 002e 2000     		movs	r0, r4
 239 0030 FFF7FEFF 		bl	CyExitCriticalSection
 240              	.LVL15:
 278:Generated_Source\PSoC4/UART.c **** }
 241              		.loc 1 278 0
 242              		@ sp needed
 243              	.LVL16:
 244 0034 10BD     		pop	{r4, pc}
 245              	.L13:
 246 0036 C046     		.align	2
 247              	.L12:
 248 0038 92000F40 		.word	1074725010
 249 003c 90000F40 		.word	1074725008
 250 0040 93000F40 		.word	1074725011
 251              		.cfi_endproc
 252              	.LFE3:
 253              		.size	UART_Stop, .-UART_Stop
 254              		.section	.text.UART_ReadControlRegister,"ax",%progbits
 255              		.align	2
 256              		.global	UART_ReadControlRegister
 257              		.code	16
 258              		.thumb_func
 259              		.type	UART_ReadControlRegister, %function
 260              	UART_ReadControlRegister:
 261              	.LFB4:
 279:Generated_Source\PSoC4/UART.c **** 
 280:Generated_Source\PSoC4/UART.c **** 
 281:Generated_Source\PSoC4/UART.c **** /*******************************************************************************
 282:Generated_Source\PSoC4/UART.c **** * Function Name: UART_ReadControlRegister
 283:Generated_Source\PSoC4/UART.c **** ********************************************************************************
 284:Generated_Source\PSoC4/UART.c **** *
 285:Generated_Source\PSoC4/UART.c **** * Summary:
 286:Generated_Source\PSoC4/UART.c **** *  Returns the current value of the control register.
 287:Generated_Source\PSoC4/UART.c **** *
 288:Generated_Source\PSoC4/UART.c **** * Parameters:
 289:Generated_Source\PSoC4/UART.c **** *  None.
 290:Generated_Source\PSoC4/UART.c **** *
 291:Generated_Source\PSoC4/UART.c **** * Return:
 292:Generated_Source\PSoC4/UART.c **** *  Contents of the control register.
 293:Generated_Source\PSoC4/UART.c **** *
 294:Generated_Source\PSoC4/UART.c **** *******************************************************************************/
 295:Generated_Source\PSoC4/UART.c **** uint8 UART_ReadControlRegister(void) 
 296:Generated_Source\PSoC4/UART.c **** {
 262              		.loc 1 296 0
 263              		.cfi_startproc
 264              		@ args = 0, pretend = 0, frame = 0
 265              		@ frame_needed = 0, uses_anonymous_args = 0
 266              		@ link register save eliminated.
 297:Generated_Source\PSoC4/UART.c ****     #if (UART_CONTROL_REG_REMOVED)
 298:Generated_Source\PSoC4/UART.c ****         return(0u);
ARM GAS  C:\Users\tdoan1\AppData\Local\Temp\ccP2L39x.s 			page 11


 299:Generated_Source\PSoC4/UART.c ****     #else
 300:Generated_Source\PSoC4/UART.c ****         return(UART_CONTROL_REG);
 301:Generated_Source\PSoC4/UART.c ****     #endif /* (UART_CONTROL_REG_REMOVED) */
 302:Generated_Source\PSoC4/UART.c **** }
 267              		.loc 1 302 0
 268 0000 0020     		movs	r0, #0
 269              		@ sp needed
 270 0002 7047     		bx	lr
 271              		.cfi_endproc
 272              	.LFE4:
 273              		.size	UART_ReadControlRegister, .-UART_ReadControlRegister
 274              		.section	.text.UART_WriteControlRegister,"ax",%progbits
 275              		.align	2
 276              		.global	UART_WriteControlRegister
 277              		.code	16
 278              		.thumb_func
 279              		.type	UART_WriteControlRegister, %function
 280              	UART_WriteControlRegister:
 281              	.LFB5:
 303:Generated_Source\PSoC4/UART.c **** 
 304:Generated_Source\PSoC4/UART.c **** 
 305:Generated_Source\PSoC4/UART.c **** /*******************************************************************************
 306:Generated_Source\PSoC4/UART.c **** * Function Name: UART_WriteControlRegister
 307:Generated_Source\PSoC4/UART.c **** ********************************************************************************
 308:Generated_Source\PSoC4/UART.c **** *
 309:Generated_Source\PSoC4/UART.c **** * Summary:
 310:Generated_Source\PSoC4/UART.c **** *  Writes an 8-bit value into the control register
 311:Generated_Source\PSoC4/UART.c **** *
 312:Generated_Source\PSoC4/UART.c **** * Parameters:
 313:Generated_Source\PSoC4/UART.c **** *  control:  control register value
 314:Generated_Source\PSoC4/UART.c **** *
 315:Generated_Source\PSoC4/UART.c **** * Return:
 316:Generated_Source\PSoC4/UART.c **** *  None.
 317:Generated_Source\PSoC4/UART.c **** *
 318:Generated_Source\PSoC4/UART.c **** *******************************************************************************/
 319:Generated_Source\PSoC4/UART.c **** void  UART_WriteControlRegister(uint8 control) 
 320:Generated_Source\PSoC4/UART.c **** {
 282              		.loc 1 320 0
 283              		.cfi_startproc
 284              		@ args = 0, pretend = 0, frame = 0
 285              		@ frame_needed = 0, uses_anonymous_args = 0
 286              		@ link register save eliminated.
 287              	.LVL17:
 321:Generated_Source\PSoC4/UART.c ****     #if (UART_CONTROL_REG_REMOVED)
 322:Generated_Source\PSoC4/UART.c ****         if(0u != control)
 323:Generated_Source\PSoC4/UART.c ****         {
 324:Generated_Source\PSoC4/UART.c ****             /* Suppress compiler warning */
 325:Generated_Source\PSoC4/UART.c ****         }
 326:Generated_Source\PSoC4/UART.c ****     #else
 327:Generated_Source\PSoC4/UART.c ****        UART_CONTROL_REG = control;
 328:Generated_Source\PSoC4/UART.c ****     #endif /* (UART_CONTROL_REG_REMOVED) */
 329:Generated_Source\PSoC4/UART.c **** }
 288              		.loc 1 329 0
 289              		@ sp needed
 290 0000 7047     		bx	lr
 291              		.cfi_endproc
 292              	.LFE5:
ARM GAS  C:\Users\tdoan1\AppData\Local\Temp\ccP2L39x.s 			page 12


 293              		.size	UART_WriteControlRegister, .-UART_WriteControlRegister
 294 0002 C046     		.section	.text.UART_SetRxInterruptMode,"ax",%progbits
 295              		.align	2
 296              		.global	UART_SetRxInterruptMode
 297              		.code	16
 298              		.thumb_func
 299              		.type	UART_SetRxInterruptMode, %function
 300              	UART_SetRxInterruptMode:
 301              	.LFB6:
 330:Generated_Source\PSoC4/UART.c **** 
 331:Generated_Source\PSoC4/UART.c **** 
 332:Generated_Source\PSoC4/UART.c **** #if(UART_RX_ENABLED || UART_HD_ENABLED)
 333:Generated_Source\PSoC4/UART.c ****     /*******************************************************************************
 334:Generated_Source\PSoC4/UART.c ****     * Function Name: UART_SetRxInterruptMode
 335:Generated_Source\PSoC4/UART.c ****     ********************************************************************************
 336:Generated_Source\PSoC4/UART.c ****     *
 337:Generated_Source\PSoC4/UART.c ****     * Summary:
 338:Generated_Source\PSoC4/UART.c ****     *  Configures the RX interrupt sources enabled.
 339:Generated_Source\PSoC4/UART.c ****     *
 340:Generated_Source\PSoC4/UART.c ****     * Parameters:
 341:Generated_Source\PSoC4/UART.c ****     *  IntSrc:  Bit field containing the RX interrupts to enable. Based on the 
 342:Generated_Source\PSoC4/UART.c ****     *  bit-field arrangement of the status register. This value must be a 
 343:Generated_Source\PSoC4/UART.c ****     *  combination of status register bit-masks shown below:
 344:Generated_Source\PSoC4/UART.c ****     *      UART_RX_STS_FIFO_NOTEMPTY    Interrupt on byte received.
 345:Generated_Source\PSoC4/UART.c ****     *      UART_RX_STS_PAR_ERROR        Interrupt on parity error.
 346:Generated_Source\PSoC4/UART.c ****     *      UART_RX_STS_STOP_ERROR       Interrupt on stop error.
 347:Generated_Source\PSoC4/UART.c ****     *      UART_RX_STS_BREAK            Interrupt on break.
 348:Generated_Source\PSoC4/UART.c ****     *      UART_RX_STS_OVERRUN          Interrupt on overrun error.
 349:Generated_Source\PSoC4/UART.c ****     *      UART_RX_STS_ADDR_MATCH       Interrupt on address match.
 350:Generated_Source\PSoC4/UART.c ****     *      UART_RX_STS_MRKSPC           Interrupt on address detect.
 351:Generated_Source\PSoC4/UART.c ****     *
 352:Generated_Source\PSoC4/UART.c ****     * Return:
 353:Generated_Source\PSoC4/UART.c ****     *  None.
 354:Generated_Source\PSoC4/UART.c ****     *
 355:Generated_Source\PSoC4/UART.c ****     * Theory:
 356:Generated_Source\PSoC4/UART.c ****     *  Enables the output of specific status bits to the interrupt controller
 357:Generated_Source\PSoC4/UART.c ****     *
 358:Generated_Source\PSoC4/UART.c ****     *******************************************************************************/
 359:Generated_Source\PSoC4/UART.c ****     void UART_SetRxInterruptMode(uint8 intSrc) 
 360:Generated_Source\PSoC4/UART.c ****     {
 302              		.loc 1 360 0
 303              		.cfi_startproc
 304              		@ args = 0, pretend = 0, frame = 0
 305              		@ frame_needed = 0, uses_anonymous_args = 0
 306              		@ link register save eliminated.
 307              	.LVL18:
 361:Generated_Source\PSoC4/UART.c ****         UART_RXSTATUS_MASK_REG  = intSrc;
 308              		.loc 1 361 0
 309 0000 014B     		ldr	r3, .L17
 310 0002 1870     		strb	r0, [r3]
 362:Generated_Source\PSoC4/UART.c ****     }
 311              		.loc 1 362 0
 312              		@ sp needed
 313 0004 7047     		bx	lr
 314              	.L18:
 315 0006 C046     		.align	2
 316              	.L17:
ARM GAS  C:\Users\tdoan1\AppData\Local\Temp\ccP2L39x.s 			page 13


 317 0008 80000F40 		.word	1074724992
 318              		.cfi_endproc
 319              	.LFE6:
 320              		.size	UART_SetRxInterruptMode, .-UART_SetRxInterruptMode
 321              		.section	.text.UART_ReadRxData,"ax",%progbits
 322              		.align	2
 323              		.global	UART_ReadRxData
 324              		.code	16
 325              		.thumb_func
 326              		.type	UART_ReadRxData, %function
 327              	UART_ReadRxData:
 328              	.LFB7:
 363:Generated_Source\PSoC4/UART.c **** 
 364:Generated_Source\PSoC4/UART.c **** 
 365:Generated_Source\PSoC4/UART.c ****     /*******************************************************************************
 366:Generated_Source\PSoC4/UART.c ****     * Function Name: UART_ReadRxData
 367:Generated_Source\PSoC4/UART.c ****     ********************************************************************************
 368:Generated_Source\PSoC4/UART.c ****     *
 369:Generated_Source\PSoC4/UART.c ****     * Summary:
 370:Generated_Source\PSoC4/UART.c ****     *  Returns the next byte of received data. This function returns data without
 371:Generated_Source\PSoC4/UART.c ****     *  checking the status. You must check the status separately.
 372:Generated_Source\PSoC4/UART.c ****     *
 373:Generated_Source\PSoC4/UART.c ****     * Parameters:
 374:Generated_Source\PSoC4/UART.c ****     *  None.
 375:Generated_Source\PSoC4/UART.c ****     *
 376:Generated_Source\PSoC4/UART.c ****     * Return:
 377:Generated_Source\PSoC4/UART.c ****     *  Received data from RX register
 378:Generated_Source\PSoC4/UART.c ****     *
 379:Generated_Source\PSoC4/UART.c ****     * Global Variables:
 380:Generated_Source\PSoC4/UART.c ****     *  UART_rxBuffer - RAM buffer pointer for save received data.
 381:Generated_Source\PSoC4/UART.c ****     *  UART_rxBufferWrite - cyclic index for write to rxBuffer,
 382:Generated_Source\PSoC4/UART.c ****     *     checked to identify new data.
 383:Generated_Source\PSoC4/UART.c ****     *  UART_rxBufferRead - cyclic index for read from rxBuffer,
 384:Generated_Source\PSoC4/UART.c ****     *     incremented after each byte has been read from buffer.
 385:Generated_Source\PSoC4/UART.c ****     *  UART_rxBufferLoopDetect - cleared if loop condition was detected
 386:Generated_Source\PSoC4/UART.c ****     *     in RX ISR.
 387:Generated_Source\PSoC4/UART.c ****     *
 388:Generated_Source\PSoC4/UART.c ****     * Reentrant:
 389:Generated_Source\PSoC4/UART.c ****     *  No.
 390:Generated_Source\PSoC4/UART.c ****     *
 391:Generated_Source\PSoC4/UART.c ****     *******************************************************************************/
 392:Generated_Source\PSoC4/UART.c ****     uint8 UART_ReadRxData(void) 
 393:Generated_Source\PSoC4/UART.c ****     {
 329              		.loc 1 393 0
 330              		.cfi_startproc
 331              		@ args = 0, pretend = 0, frame = 0
 332              		@ frame_needed = 0, uses_anonymous_args = 0
 333              		@ link register save eliminated.
 394:Generated_Source\PSoC4/UART.c ****         uint8 rxData;
 395:Generated_Source\PSoC4/UART.c **** 
 396:Generated_Source\PSoC4/UART.c ****     #if (UART_RX_INTERRUPT_ENABLED)
 397:Generated_Source\PSoC4/UART.c **** 
 398:Generated_Source\PSoC4/UART.c ****         uint8 locRxBufferRead;
 399:Generated_Source\PSoC4/UART.c ****         uint8 locRxBufferWrite;
 400:Generated_Source\PSoC4/UART.c **** 
 401:Generated_Source\PSoC4/UART.c ****         /* Protect variables that could change on interrupt */
 402:Generated_Source\PSoC4/UART.c ****         UART_DisableRxInt();
ARM GAS  C:\Users\tdoan1\AppData\Local\Temp\ccP2L39x.s 			page 14


 403:Generated_Source\PSoC4/UART.c **** 
 404:Generated_Source\PSoC4/UART.c ****         locRxBufferRead  = UART_rxBufferRead;
 405:Generated_Source\PSoC4/UART.c ****         locRxBufferWrite = UART_rxBufferWrite;
 406:Generated_Source\PSoC4/UART.c **** 
 407:Generated_Source\PSoC4/UART.c ****         if( (UART_rxBufferLoopDetect != 0u) || (locRxBufferRead != locRxBufferWrite) )
 408:Generated_Source\PSoC4/UART.c ****         {
 409:Generated_Source\PSoC4/UART.c ****             rxData = UART_rxBuffer[locRxBufferRead];
 410:Generated_Source\PSoC4/UART.c ****             locRxBufferRead++;
 411:Generated_Source\PSoC4/UART.c **** 
 412:Generated_Source\PSoC4/UART.c ****             if(locRxBufferRead >= UART_RX_BUFFER_SIZE)
 413:Generated_Source\PSoC4/UART.c ****             {
 414:Generated_Source\PSoC4/UART.c ****                 locRxBufferRead = 0u;
 415:Generated_Source\PSoC4/UART.c ****             }
 416:Generated_Source\PSoC4/UART.c ****             /* Update the real pointer */
 417:Generated_Source\PSoC4/UART.c ****             UART_rxBufferRead = locRxBufferRead;
 418:Generated_Source\PSoC4/UART.c **** 
 419:Generated_Source\PSoC4/UART.c ****             if(UART_rxBufferLoopDetect != 0u)
 420:Generated_Source\PSoC4/UART.c ****             {
 421:Generated_Source\PSoC4/UART.c ****                 UART_rxBufferLoopDetect = 0u;
 422:Generated_Source\PSoC4/UART.c ****                 #if ((UART_RX_INTERRUPT_ENABLED) && (UART_FLOW_CONTROL != 0u))
 423:Generated_Source\PSoC4/UART.c ****                     /* When Hardware Flow Control selected - return RX mask */
 424:Generated_Source\PSoC4/UART.c ****                     #if( UART_HD_ENABLED )
 425:Generated_Source\PSoC4/UART.c ****                         if((UART_CONTROL_REG & UART_CTRL_HD_SEND) == 0u)
 426:Generated_Source\PSoC4/UART.c ****                         {   /* In Half duplex mode return RX mask only in RX
 427:Generated_Source\PSoC4/UART.c ****                             *  configuration set, otherwise
 428:Generated_Source\PSoC4/UART.c ****                             *  mask will be returned in LoadRxConfig() API.
 429:Generated_Source\PSoC4/UART.c ****                             */
 430:Generated_Source\PSoC4/UART.c ****                             UART_RXSTATUS_MASK_REG  |= UART_RX_STS_FIFO_NOTEMPTY;
 431:Generated_Source\PSoC4/UART.c ****                         }
 432:Generated_Source\PSoC4/UART.c ****                     #else
 433:Generated_Source\PSoC4/UART.c ****                         UART_RXSTATUS_MASK_REG  |= UART_RX_STS_FIFO_NOTEMPTY;
 434:Generated_Source\PSoC4/UART.c ****                     #endif /* end UART_HD_ENABLED */
 435:Generated_Source\PSoC4/UART.c ****                 #endif /* ((UART_RX_INTERRUPT_ENABLED) && (UART_FLOW_CONTROL != 0u)) */
 436:Generated_Source\PSoC4/UART.c ****             }
 437:Generated_Source\PSoC4/UART.c ****         }
 438:Generated_Source\PSoC4/UART.c ****         else
 439:Generated_Source\PSoC4/UART.c ****         {   /* Needs to check status for RX_STS_FIFO_NOTEMPTY bit */
 440:Generated_Source\PSoC4/UART.c ****             rxData = UART_RXDATA_REG;
 441:Generated_Source\PSoC4/UART.c ****         }
 442:Generated_Source\PSoC4/UART.c **** 
 443:Generated_Source\PSoC4/UART.c ****         UART_EnableRxInt();
 444:Generated_Source\PSoC4/UART.c **** 
 445:Generated_Source\PSoC4/UART.c ****     #else
 446:Generated_Source\PSoC4/UART.c **** 
 447:Generated_Source\PSoC4/UART.c ****         /* Needs to check status for RX_STS_FIFO_NOTEMPTY bit */
 448:Generated_Source\PSoC4/UART.c ****         rxData = UART_RXDATA_REG;
 334              		.loc 1 448 0
 335 0000 014B     		ldr	r3, .L20
 336 0002 1878     		ldrb	r0, [r3]
 337 0004 C0B2     		uxtb	r0, r0
 338              	.LVL19:
 449:Generated_Source\PSoC4/UART.c **** 
 450:Generated_Source\PSoC4/UART.c ****     #endif /* (UART_RX_INTERRUPT_ENABLED) */
 451:Generated_Source\PSoC4/UART.c **** 
 452:Generated_Source\PSoC4/UART.c ****         return(rxData);
 453:Generated_Source\PSoC4/UART.c ****     }
 339              		.loc 1 453 0
ARM GAS  C:\Users\tdoan1\AppData\Local\Temp\ccP2L39x.s 			page 15


 340              		@ sp needed
 341 0006 7047     		bx	lr
 342              	.L21:
 343              		.align	2
 344              	.L20:
 345 0008 40000F40 		.word	1074724928
 346              		.cfi_endproc
 347              	.LFE7:
 348              		.size	UART_ReadRxData, .-UART_ReadRxData
 349              		.section	.text.UART_ReadRxStatus,"ax",%progbits
 350              		.align	2
 351              		.global	UART_ReadRxStatus
 352              		.code	16
 353              		.thumb_func
 354              		.type	UART_ReadRxStatus, %function
 355              	UART_ReadRxStatus:
 356              	.LFB8:
 454:Generated_Source\PSoC4/UART.c **** 
 455:Generated_Source\PSoC4/UART.c **** 
 456:Generated_Source\PSoC4/UART.c ****     /*******************************************************************************
 457:Generated_Source\PSoC4/UART.c ****     * Function Name: UART_ReadRxStatus
 458:Generated_Source\PSoC4/UART.c ****     ********************************************************************************
 459:Generated_Source\PSoC4/UART.c ****     *
 460:Generated_Source\PSoC4/UART.c ****     * Summary:
 461:Generated_Source\PSoC4/UART.c ****     *  Returns the current state of the receiver status register and the software
 462:Generated_Source\PSoC4/UART.c ****     *  buffer overflow status.
 463:Generated_Source\PSoC4/UART.c ****     *
 464:Generated_Source\PSoC4/UART.c ****     * Parameters:
 465:Generated_Source\PSoC4/UART.c ****     *  None.
 466:Generated_Source\PSoC4/UART.c ****     *
 467:Generated_Source\PSoC4/UART.c ****     * Return:
 468:Generated_Source\PSoC4/UART.c ****     *  Current state of the status register.
 469:Generated_Source\PSoC4/UART.c ****     *
 470:Generated_Source\PSoC4/UART.c ****     * Side Effect:
 471:Generated_Source\PSoC4/UART.c ****     *  All status register bits are clear-on-read except
 472:Generated_Source\PSoC4/UART.c ****     *  UART_RX_STS_FIFO_NOTEMPTY.
 473:Generated_Source\PSoC4/UART.c ****     *  UART_RX_STS_FIFO_NOTEMPTY clears immediately after RX data
 474:Generated_Source\PSoC4/UART.c ****     *  register read.
 475:Generated_Source\PSoC4/UART.c ****     *
 476:Generated_Source\PSoC4/UART.c ****     * Global Variables:
 477:Generated_Source\PSoC4/UART.c ****     *  UART_rxBufferOverflow - used to indicate overload condition.
 478:Generated_Source\PSoC4/UART.c ****     *   It set to one in RX interrupt when there isn't free space in
 479:Generated_Source\PSoC4/UART.c ****     *   UART_rxBufferRead to write new data. This condition returned
 480:Generated_Source\PSoC4/UART.c ****     *   and cleared to zero by this API as an
 481:Generated_Source\PSoC4/UART.c ****     *   UART_RX_STS_SOFT_BUFF_OVER bit along with RX Status register
 482:Generated_Source\PSoC4/UART.c ****     *   bits.
 483:Generated_Source\PSoC4/UART.c ****     *
 484:Generated_Source\PSoC4/UART.c ****     *******************************************************************************/
 485:Generated_Source\PSoC4/UART.c ****     uint8 UART_ReadRxStatus(void) 
 486:Generated_Source\PSoC4/UART.c ****     {
 357              		.loc 1 486 0
 358              		.cfi_startproc
 359              		@ args = 0, pretend = 0, frame = 0
 360              		@ frame_needed = 0, uses_anonymous_args = 0
 361              		@ link register save eliminated.
 487:Generated_Source\PSoC4/UART.c ****         uint8 status;
 488:Generated_Source\PSoC4/UART.c **** 
ARM GAS  C:\Users\tdoan1\AppData\Local\Temp\ccP2L39x.s 			page 16


 489:Generated_Source\PSoC4/UART.c ****         status = UART_RXSTATUS_REG & UART_RX_HW_MASK;
 362              		.loc 1 489 0
 363 0000 024B     		ldr	r3, .L23
 364 0002 1878     		ldrb	r0, [r3]
 365 0004 7F23     		movs	r3, #127
 366 0006 1840     		ands	r0, r3
 367              	.LVL20:
 490:Generated_Source\PSoC4/UART.c **** 
 491:Generated_Source\PSoC4/UART.c ****     #if (UART_RX_INTERRUPT_ENABLED)
 492:Generated_Source\PSoC4/UART.c ****         if(UART_rxBufferOverflow != 0u)
 493:Generated_Source\PSoC4/UART.c ****         {
 494:Generated_Source\PSoC4/UART.c ****             status |= UART_RX_STS_SOFT_BUFF_OVER;
 495:Generated_Source\PSoC4/UART.c ****             UART_rxBufferOverflow = 0u;
 496:Generated_Source\PSoC4/UART.c ****         }
 497:Generated_Source\PSoC4/UART.c ****     #endif /* (UART_RX_INTERRUPT_ENABLED) */
 498:Generated_Source\PSoC4/UART.c **** 
 499:Generated_Source\PSoC4/UART.c ****         return(status);
 500:Generated_Source\PSoC4/UART.c ****     }
 368              		.loc 1 500 0
 369              		@ sp needed
 370 0008 7047     		bx	lr
 371              	.L24:
 372 000a C046     		.align	2
 373              	.L23:
 374 000c 60000F40 		.word	1074724960
 375              		.cfi_endproc
 376              	.LFE8:
 377              		.size	UART_ReadRxStatus, .-UART_ReadRxStatus
 378              		.section	.text.UART_GetChar,"ax",%progbits
 379              		.align	2
 380              		.global	UART_GetChar
 381              		.code	16
 382              		.thumb_func
 383              		.type	UART_GetChar, %function
 384              	UART_GetChar:
 385              	.LFB9:
 501:Generated_Source\PSoC4/UART.c **** 
 502:Generated_Source\PSoC4/UART.c **** 
 503:Generated_Source\PSoC4/UART.c ****     /*******************************************************************************
 504:Generated_Source\PSoC4/UART.c ****     * Function Name: UART_GetChar
 505:Generated_Source\PSoC4/UART.c ****     ********************************************************************************
 506:Generated_Source\PSoC4/UART.c ****     *
 507:Generated_Source\PSoC4/UART.c ****     * Summary:
 508:Generated_Source\PSoC4/UART.c ****     *  Returns the last received byte of data. UART_GetChar() is
 509:Generated_Source\PSoC4/UART.c ****     *  designed for ASCII characters and returns a uint8 where 1 to 255 are values
 510:Generated_Source\PSoC4/UART.c ****     *  for valid characters and 0 indicates an error occurred or no data is present.
 511:Generated_Source\PSoC4/UART.c ****     *
 512:Generated_Source\PSoC4/UART.c ****     * Parameters:
 513:Generated_Source\PSoC4/UART.c ****     *  None.
 514:Generated_Source\PSoC4/UART.c ****     *
 515:Generated_Source\PSoC4/UART.c ****     * Return:
 516:Generated_Source\PSoC4/UART.c ****     *  Character read from UART RX buffer. ASCII characters from 1 to 255 are valid.
 517:Generated_Source\PSoC4/UART.c ****     *  A returned zero signifies an error condition or no data available.
 518:Generated_Source\PSoC4/UART.c ****     *
 519:Generated_Source\PSoC4/UART.c ****     * Global Variables:
 520:Generated_Source\PSoC4/UART.c ****     *  UART_rxBuffer - RAM buffer pointer for save received data.
 521:Generated_Source\PSoC4/UART.c ****     *  UART_rxBufferWrite - cyclic index for write to rxBuffer,
ARM GAS  C:\Users\tdoan1\AppData\Local\Temp\ccP2L39x.s 			page 17


 522:Generated_Source\PSoC4/UART.c ****     *     checked to identify new data.
 523:Generated_Source\PSoC4/UART.c ****     *  UART_rxBufferRead - cyclic index for read from rxBuffer,
 524:Generated_Source\PSoC4/UART.c ****     *     incremented after each byte has been read from buffer.
 525:Generated_Source\PSoC4/UART.c ****     *  UART_rxBufferLoopDetect - cleared if loop condition was detected
 526:Generated_Source\PSoC4/UART.c ****     *     in RX ISR.
 527:Generated_Source\PSoC4/UART.c ****     *
 528:Generated_Source\PSoC4/UART.c ****     * Reentrant:
 529:Generated_Source\PSoC4/UART.c ****     *  No.
 530:Generated_Source\PSoC4/UART.c ****     *
 531:Generated_Source\PSoC4/UART.c ****     *******************************************************************************/
 532:Generated_Source\PSoC4/UART.c ****     uint8 UART_GetChar(void) 
 533:Generated_Source\PSoC4/UART.c ****     {
 386              		.loc 1 533 0
 387              		.cfi_startproc
 388              		@ args = 0, pretend = 0, frame = 0
 389              		@ frame_needed = 0, uses_anonymous_args = 0
 390              		@ link register save eliminated.
 391              	.LVL21:
 534:Generated_Source\PSoC4/UART.c ****         uint8 rxData = 0u;
 535:Generated_Source\PSoC4/UART.c ****         uint8 rxStatus;
 536:Generated_Source\PSoC4/UART.c **** 
 537:Generated_Source\PSoC4/UART.c ****     #if (UART_RX_INTERRUPT_ENABLED)
 538:Generated_Source\PSoC4/UART.c ****         uint8 locRxBufferRead;
 539:Generated_Source\PSoC4/UART.c ****         uint8 locRxBufferWrite;
 540:Generated_Source\PSoC4/UART.c **** 
 541:Generated_Source\PSoC4/UART.c ****         /* Protect variables that could change on interrupt */
 542:Generated_Source\PSoC4/UART.c ****         UART_DisableRxInt();
 543:Generated_Source\PSoC4/UART.c **** 
 544:Generated_Source\PSoC4/UART.c ****         locRxBufferRead  = UART_rxBufferRead;
 545:Generated_Source\PSoC4/UART.c ****         locRxBufferWrite = UART_rxBufferWrite;
 546:Generated_Source\PSoC4/UART.c **** 
 547:Generated_Source\PSoC4/UART.c ****         if( (UART_rxBufferLoopDetect != 0u) || (locRxBufferRead != locRxBufferWrite) )
 548:Generated_Source\PSoC4/UART.c ****         {
 549:Generated_Source\PSoC4/UART.c ****             rxData = UART_rxBuffer[locRxBufferRead];
 550:Generated_Source\PSoC4/UART.c ****             locRxBufferRead++;
 551:Generated_Source\PSoC4/UART.c ****             if(locRxBufferRead >= UART_RX_BUFFER_SIZE)
 552:Generated_Source\PSoC4/UART.c ****             {
 553:Generated_Source\PSoC4/UART.c ****                 locRxBufferRead = 0u;
 554:Generated_Source\PSoC4/UART.c ****             }
 555:Generated_Source\PSoC4/UART.c ****             /* Update the real pointer */
 556:Generated_Source\PSoC4/UART.c ****             UART_rxBufferRead = locRxBufferRead;
 557:Generated_Source\PSoC4/UART.c **** 
 558:Generated_Source\PSoC4/UART.c ****             if(UART_rxBufferLoopDetect != 0u)
 559:Generated_Source\PSoC4/UART.c ****             {
 560:Generated_Source\PSoC4/UART.c ****                 UART_rxBufferLoopDetect = 0u;
 561:Generated_Source\PSoC4/UART.c ****                 #if( (UART_RX_INTERRUPT_ENABLED) && (UART_FLOW_CONTROL != 0u) )
 562:Generated_Source\PSoC4/UART.c ****                     /* When Hardware Flow Control selected - return RX mask */
 563:Generated_Source\PSoC4/UART.c ****                     #if( UART_HD_ENABLED )
 564:Generated_Source\PSoC4/UART.c ****                         if((UART_CONTROL_REG & UART_CTRL_HD_SEND) == 0u)
 565:Generated_Source\PSoC4/UART.c ****                         {   /* In Half duplex mode return RX mask only if
 566:Generated_Source\PSoC4/UART.c ****                             *  RX configuration set, otherwise
 567:Generated_Source\PSoC4/UART.c ****                             *  mask will be returned in LoadRxConfig() API.
 568:Generated_Source\PSoC4/UART.c ****                             */
 569:Generated_Source\PSoC4/UART.c ****                             UART_RXSTATUS_MASK_REG |= UART_RX_STS_FIFO_NOTEMPTY;
 570:Generated_Source\PSoC4/UART.c ****                         }
 571:Generated_Source\PSoC4/UART.c ****                     #else
 572:Generated_Source\PSoC4/UART.c ****                         UART_RXSTATUS_MASK_REG |= UART_RX_STS_FIFO_NOTEMPTY;
ARM GAS  C:\Users\tdoan1\AppData\Local\Temp\ccP2L39x.s 			page 18


 573:Generated_Source\PSoC4/UART.c ****                     #endif /* end UART_HD_ENABLED */
 574:Generated_Source\PSoC4/UART.c ****                 #endif /* UART_RX_INTERRUPT_ENABLED and Hardware flow control*/
 575:Generated_Source\PSoC4/UART.c ****             }
 576:Generated_Source\PSoC4/UART.c **** 
 577:Generated_Source\PSoC4/UART.c ****         }
 578:Generated_Source\PSoC4/UART.c ****         else
 579:Generated_Source\PSoC4/UART.c ****         {   rxStatus = UART_RXSTATUS_REG;
 580:Generated_Source\PSoC4/UART.c ****             if((rxStatus & UART_RX_STS_FIFO_NOTEMPTY) != 0u)
 581:Generated_Source\PSoC4/UART.c ****             {   /* Read received data from FIFO */
 582:Generated_Source\PSoC4/UART.c ****                 rxData = UART_RXDATA_REG;
 583:Generated_Source\PSoC4/UART.c ****                 /*Check status on error*/
 584:Generated_Source\PSoC4/UART.c ****                 if((rxStatus & (UART_RX_STS_BREAK | UART_RX_STS_PAR_ERROR |
 585:Generated_Source\PSoC4/UART.c ****                                 UART_RX_STS_STOP_ERROR | UART_RX_STS_OVERRUN)) != 0u)
 586:Generated_Source\PSoC4/UART.c ****                 {
 587:Generated_Source\PSoC4/UART.c ****                     rxData = 0u;
 588:Generated_Source\PSoC4/UART.c ****                 }
 589:Generated_Source\PSoC4/UART.c ****             }
 590:Generated_Source\PSoC4/UART.c ****         }
 591:Generated_Source\PSoC4/UART.c **** 
 592:Generated_Source\PSoC4/UART.c ****         UART_EnableRxInt();
 593:Generated_Source\PSoC4/UART.c **** 
 594:Generated_Source\PSoC4/UART.c ****     #else
 595:Generated_Source\PSoC4/UART.c **** 
 596:Generated_Source\PSoC4/UART.c ****         rxStatus =UART_RXSTATUS_REG;
 392              		.loc 1 596 0
 393 0000 074B     		ldr	r3, .L29
 394 0002 1B78     		ldrb	r3, [r3]
 395 0004 DBB2     		uxtb	r3, r3
 396              	.LVL22:
 597:Generated_Source\PSoC4/UART.c ****         if((rxStatus & UART_RX_STS_FIFO_NOTEMPTY) != 0u)
 397              		.loc 1 597 0
 398 0006 9A06     		lsls	r2, r3, #26
 399 0008 06D5     		bpl	.L27
 598:Generated_Source\PSoC4/UART.c ****         {
 599:Generated_Source\PSoC4/UART.c ****             /* Read received data from FIFO */
 600:Generated_Source\PSoC4/UART.c ****             rxData = UART_RXDATA_REG;
 400              		.loc 1 600 0
 401 000a 064A     		ldr	r2, .L29+4
 402 000c 1078     		ldrb	r0, [r2]
 403 000e C0B2     		uxtb	r0, r0
 404              	.LVL23:
 601:Generated_Source\PSoC4/UART.c **** 
 602:Generated_Source\PSoC4/UART.c ****             /*Check status on error*/
 603:Generated_Source\PSoC4/UART.c ****             if((rxStatus & (UART_RX_STS_BREAK | UART_RX_STS_PAR_ERROR |
 405              		.loc 1 603 0
 406 0010 1E22     		movs	r2, #30
 407 0012 1A42     		tst	r2, r3
 408 0014 02D1     		bne	.L28
 409 0016 02E0     		b	.L26
 410              	.LVL24:
 411              	.L27:
 534:Generated_Source\PSoC4/UART.c ****         uint8 rxStatus;
 412              		.loc 1 534 0
 413 0018 0020     		movs	r0, #0
 414 001a 00E0     		b	.L26
 415              	.LVL25:
 416              	.L28:
ARM GAS  C:\Users\tdoan1\AppData\Local\Temp\ccP2L39x.s 			page 19


 604:Generated_Source\PSoC4/UART.c ****                             UART_RX_STS_STOP_ERROR | UART_RX_STS_OVERRUN)) != 0u)
 605:Generated_Source\PSoC4/UART.c ****             {
 606:Generated_Source\PSoC4/UART.c ****                 rxData = 0u;
 417              		.loc 1 606 0
 418 001c 0020     		movs	r0, #0
 419              	.LVL26:
 420              	.L26:
 607:Generated_Source\PSoC4/UART.c ****             }
 608:Generated_Source\PSoC4/UART.c ****         }
 609:Generated_Source\PSoC4/UART.c ****     #endif /* (UART_RX_INTERRUPT_ENABLED) */
 610:Generated_Source\PSoC4/UART.c **** 
 611:Generated_Source\PSoC4/UART.c ****         return(rxData);
 612:Generated_Source\PSoC4/UART.c ****     }
 421              		.loc 1 612 0
 422              		@ sp needed
 423 001e 7047     		bx	lr
 424              	.L30:
 425              		.align	2
 426              	.L29:
 427 0020 60000F40 		.word	1074724960
 428 0024 40000F40 		.word	1074724928
 429              		.cfi_endproc
 430              	.LFE9:
 431              		.size	UART_GetChar, .-UART_GetChar
 432              		.section	.text.UART_GetByte,"ax",%progbits
 433              		.align	2
 434              		.global	UART_GetByte
 435              		.code	16
 436              		.thumb_func
 437              		.type	UART_GetByte, %function
 438              	UART_GetByte:
 439              	.LFB10:
 613:Generated_Source\PSoC4/UART.c **** 
 614:Generated_Source\PSoC4/UART.c **** 
 615:Generated_Source\PSoC4/UART.c ****     /*******************************************************************************
 616:Generated_Source\PSoC4/UART.c ****     * Function Name: UART_GetByte
 617:Generated_Source\PSoC4/UART.c ****     ********************************************************************************
 618:Generated_Source\PSoC4/UART.c ****     *
 619:Generated_Source\PSoC4/UART.c ****     * Summary:
 620:Generated_Source\PSoC4/UART.c ****     *  Reads UART RX buffer immediately, returns received character and error
 621:Generated_Source\PSoC4/UART.c ****     *  condition.
 622:Generated_Source\PSoC4/UART.c ****     *
 623:Generated_Source\PSoC4/UART.c ****     * Parameters:
 624:Generated_Source\PSoC4/UART.c ****     *  None.
 625:Generated_Source\PSoC4/UART.c ****     *
 626:Generated_Source\PSoC4/UART.c ****     * Return:
 627:Generated_Source\PSoC4/UART.c ****     *  MSB contains status and LSB contains UART RX data. If the MSB is nonzero,
 628:Generated_Source\PSoC4/UART.c ****     *  an error has occurred.
 629:Generated_Source\PSoC4/UART.c ****     *
 630:Generated_Source\PSoC4/UART.c ****     * Reentrant:
 631:Generated_Source\PSoC4/UART.c ****     *  No.
 632:Generated_Source\PSoC4/UART.c ****     *
 633:Generated_Source\PSoC4/UART.c ****     *******************************************************************************/
 634:Generated_Source\PSoC4/UART.c ****     uint16 UART_GetByte(void) 
 635:Generated_Source\PSoC4/UART.c ****     {
 440              		.loc 1 635 0
 441              		.cfi_startproc
ARM GAS  C:\Users\tdoan1\AppData\Local\Temp\ccP2L39x.s 			page 20


 442              		@ args = 0, pretend = 0, frame = 0
 443              		@ frame_needed = 0, uses_anonymous_args = 0
 444 0000 10B5     		push	{r4, lr}
 445              		.cfi_def_cfa_offset 8
 446              		.cfi_offset 4, -8
 447              		.cfi_offset 14, -4
 636:Generated_Source\PSoC4/UART.c ****         
 637:Generated_Source\PSoC4/UART.c ****     #if (UART_RX_INTERRUPT_ENABLED)
 638:Generated_Source\PSoC4/UART.c ****         uint16 locErrorStatus;
 639:Generated_Source\PSoC4/UART.c ****         /* Protect variables that could change on interrupt */
 640:Generated_Source\PSoC4/UART.c ****         UART_DisableRxInt();
 641:Generated_Source\PSoC4/UART.c ****         locErrorStatus = (uint16)UART_errorStatus;
 642:Generated_Source\PSoC4/UART.c ****         UART_errorStatus = 0u;
 643:Generated_Source\PSoC4/UART.c ****         UART_EnableRxInt();
 644:Generated_Source\PSoC4/UART.c ****         return ( (uint16)(locErrorStatus << 8u) | UART_ReadRxData() );
 645:Generated_Source\PSoC4/UART.c ****     #else
 646:Generated_Source\PSoC4/UART.c ****         return ( ((uint16)UART_ReadRxStatus() << 8u) | UART_ReadRxData() );
 448              		.loc 1 646 0
 449 0002 FFF7FEFF 		bl	UART_ReadRxStatus
 450              	.LVL27:
 451 0006 0402     		lsls	r4, r0, #8
 452 0008 FFF7FEFF 		bl	UART_ReadRxData
 453              	.LVL28:
 454 000c 2043     		orrs	r0, r4
 455 000e 80B2     		uxth	r0, r0
 647:Generated_Source\PSoC4/UART.c ****     #endif /* UART_RX_INTERRUPT_ENABLED */
 648:Generated_Source\PSoC4/UART.c ****         
 649:Generated_Source\PSoC4/UART.c ****     }
 456              		.loc 1 649 0
 457              		@ sp needed
 458 0010 10BD     		pop	{r4, pc}
 459              		.cfi_endproc
 460              	.LFE10:
 461              		.size	UART_GetByte, .-UART_GetByte
 462 0012 C046     		.section	.text.UART_GetRxBufferSize,"ax",%progbits
 463              		.align	2
 464              		.global	UART_GetRxBufferSize
 465              		.code	16
 466              		.thumb_func
 467              		.type	UART_GetRxBufferSize, %function
 468              	UART_GetRxBufferSize:
 469              	.LFB11:
 650:Generated_Source\PSoC4/UART.c **** 
 651:Generated_Source\PSoC4/UART.c **** 
 652:Generated_Source\PSoC4/UART.c ****     /*******************************************************************************
 653:Generated_Source\PSoC4/UART.c ****     * Function Name: UART_GetRxBufferSize
 654:Generated_Source\PSoC4/UART.c ****     ********************************************************************************
 655:Generated_Source\PSoC4/UART.c ****     *
 656:Generated_Source\PSoC4/UART.c ****     * Summary:
 657:Generated_Source\PSoC4/UART.c ****     *  Returns the number of received bytes available in the RX buffer.
 658:Generated_Source\PSoC4/UART.c ****     *  * RX software buffer is disabled (RX Buffer Size parameter is equal to 4): 
 659:Generated_Source\PSoC4/UART.c ****     *    returns 0 for empty RX FIFO or 1 for not empty RX FIFO.
 660:Generated_Source\PSoC4/UART.c ****     *  * RX software buffer is enabled: returns the number of bytes available in 
 661:Generated_Source\PSoC4/UART.c ****     *    the RX software buffer. Bytes available in the RX FIFO do not take to 
 662:Generated_Source\PSoC4/UART.c ****     *    account.
 663:Generated_Source\PSoC4/UART.c ****     *
 664:Generated_Source\PSoC4/UART.c ****     * Parameters:
ARM GAS  C:\Users\tdoan1\AppData\Local\Temp\ccP2L39x.s 			page 21


 665:Generated_Source\PSoC4/UART.c ****     *  None.
 666:Generated_Source\PSoC4/UART.c ****     *
 667:Generated_Source\PSoC4/UART.c ****     * Return:
 668:Generated_Source\PSoC4/UART.c ****     *  uint8: Number of bytes in the RX buffer. 
 669:Generated_Source\PSoC4/UART.c ****     *    Return value type depends on RX Buffer Size parameter.
 670:Generated_Source\PSoC4/UART.c ****     *
 671:Generated_Source\PSoC4/UART.c ****     * Global Variables:
 672:Generated_Source\PSoC4/UART.c ****     *  UART_rxBufferWrite - used to calculate left bytes.
 673:Generated_Source\PSoC4/UART.c ****     *  UART_rxBufferRead - used to calculate left bytes.
 674:Generated_Source\PSoC4/UART.c ****     *  UART_rxBufferLoopDetect - checked to decide left bytes amount.
 675:Generated_Source\PSoC4/UART.c ****     *
 676:Generated_Source\PSoC4/UART.c ****     * Reentrant:
 677:Generated_Source\PSoC4/UART.c ****     *  No.
 678:Generated_Source\PSoC4/UART.c ****     *
 679:Generated_Source\PSoC4/UART.c ****     * Theory:
 680:Generated_Source\PSoC4/UART.c ****     *  Allows the user to find out how full the RX Buffer is.
 681:Generated_Source\PSoC4/UART.c ****     *
 682:Generated_Source\PSoC4/UART.c ****     *******************************************************************************/
 683:Generated_Source\PSoC4/UART.c ****     uint8 UART_GetRxBufferSize(void)
 684:Generated_Source\PSoC4/UART.c ****                                                             
 685:Generated_Source\PSoC4/UART.c ****     {
 470              		.loc 1 685 0
 471              		.cfi_startproc
 472              		@ args = 0, pretend = 0, frame = 0
 473              		@ frame_needed = 0, uses_anonymous_args = 0
 474              		@ link register save eliminated.
 686:Generated_Source\PSoC4/UART.c ****         uint8 size;
 687:Generated_Source\PSoC4/UART.c **** 
 688:Generated_Source\PSoC4/UART.c ****     #if (UART_RX_INTERRUPT_ENABLED)
 689:Generated_Source\PSoC4/UART.c **** 
 690:Generated_Source\PSoC4/UART.c ****         /* Protect variables that could change on interrupt */
 691:Generated_Source\PSoC4/UART.c ****         UART_DisableRxInt();
 692:Generated_Source\PSoC4/UART.c **** 
 693:Generated_Source\PSoC4/UART.c ****         if(UART_rxBufferRead == UART_rxBufferWrite)
 694:Generated_Source\PSoC4/UART.c ****         {
 695:Generated_Source\PSoC4/UART.c ****             if(UART_rxBufferLoopDetect != 0u)
 696:Generated_Source\PSoC4/UART.c ****             {
 697:Generated_Source\PSoC4/UART.c ****                 size = UART_RX_BUFFER_SIZE;
 698:Generated_Source\PSoC4/UART.c ****             }
 699:Generated_Source\PSoC4/UART.c ****             else
 700:Generated_Source\PSoC4/UART.c ****             {
 701:Generated_Source\PSoC4/UART.c ****                 size = 0u;
 702:Generated_Source\PSoC4/UART.c ****             }
 703:Generated_Source\PSoC4/UART.c ****         }
 704:Generated_Source\PSoC4/UART.c ****         else if(UART_rxBufferRead < UART_rxBufferWrite)
 705:Generated_Source\PSoC4/UART.c ****         {
 706:Generated_Source\PSoC4/UART.c ****             size = (UART_rxBufferWrite - UART_rxBufferRead);
 707:Generated_Source\PSoC4/UART.c ****         }
 708:Generated_Source\PSoC4/UART.c ****         else
 709:Generated_Source\PSoC4/UART.c ****         {
 710:Generated_Source\PSoC4/UART.c ****             size = (UART_RX_BUFFER_SIZE - UART_rxBufferRead) + UART_rxBufferWrite;
 711:Generated_Source\PSoC4/UART.c ****         }
 712:Generated_Source\PSoC4/UART.c **** 
 713:Generated_Source\PSoC4/UART.c ****         UART_EnableRxInt();
 714:Generated_Source\PSoC4/UART.c **** 
 715:Generated_Source\PSoC4/UART.c ****     #else
 716:Generated_Source\PSoC4/UART.c **** 
ARM GAS  C:\Users\tdoan1\AppData\Local\Temp\ccP2L39x.s 			page 22


 717:Generated_Source\PSoC4/UART.c ****         /* We can only know if there is data in the fifo. */
 718:Generated_Source\PSoC4/UART.c ****         size = ((UART_RXSTATUS_REG & UART_RX_STS_FIFO_NOTEMPTY) != 0u) ? 1u : 0u;
 475              		.loc 1 718 0
 476 0000 034B     		ldr	r3, .L35
 477 0002 1B78     		ldrb	r3, [r3]
 478 0004 9B06     		lsls	r3, r3, #26
 479 0006 01D5     		bpl	.L34
 480 0008 0120     		movs	r0, #1
 481 000a 00E0     		b	.L33
 482              	.L34:
 483 000c 0020     		movs	r0, #0
 484              	.L33:
 485              	.LVL29:
 719:Generated_Source\PSoC4/UART.c **** 
 720:Generated_Source\PSoC4/UART.c ****     #endif /* (UART_RX_INTERRUPT_ENABLED) */
 721:Generated_Source\PSoC4/UART.c **** 
 722:Generated_Source\PSoC4/UART.c ****         return(size);
 723:Generated_Source\PSoC4/UART.c ****     }
 486              		.loc 1 723 0 discriminator 4
 487              		@ sp needed
 488 000e 7047     		bx	lr
 489              	.L36:
 490              		.align	2
 491              	.L35:
 492 0010 60000F40 		.word	1074724960
 493              		.cfi_endproc
 494              	.LFE11:
 495              		.size	UART_GetRxBufferSize, .-UART_GetRxBufferSize
 496              		.section	.text.UART_ClearRxBuffer,"ax",%progbits
 497              		.align	2
 498              		.global	UART_ClearRxBuffer
 499              		.code	16
 500              		.thumb_func
 501              		.type	UART_ClearRxBuffer, %function
 502              	UART_ClearRxBuffer:
 503              	.LFB12:
 724:Generated_Source\PSoC4/UART.c **** 
 725:Generated_Source\PSoC4/UART.c **** 
 726:Generated_Source\PSoC4/UART.c ****     /*******************************************************************************
 727:Generated_Source\PSoC4/UART.c ****     * Function Name: UART_ClearRxBuffer
 728:Generated_Source\PSoC4/UART.c ****     ********************************************************************************
 729:Generated_Source\PSoC4/UART.c ****     *
 730:Generated_Source\PSoC4/UART.c ****     * Summary:
 731:Generated_Source\PSoC4/UART.c ****     *  Clears the receiver memory buffer and hardware RX FIFO of all received data.
 732:Generated_Source\PSoC4/UART.c ****     *
 733:Generated_Source\PSoC4/UART.c ****     * Parameters:
 734:Generated_Source\PSoC4/UART.c ****     *  None.
 735:Generated_Source\PSoC4/UART.c ****     *
 736:Generated_Source\PSoC4/UART.c ****     * Return:
 737:Generated_Source\PSoC4/UART.c ****     *  None.
 738:Generated_Source\PSoC4/UART.c ****     *
 739:Generated_Source\PSoC4/UART.c ****     * Global Variables:
 740:Generated_Source\PSoC4/UART.c ****     *  UART_rxBufferWrite - cleared to zero.
 741:Generated_Source\PSoC4/UART.c ****     *  UART_rxBufferRead - cleared to zero.
 742:Generated_Source\PSoC4/UART.c ****     *  UART_rxBufferLoopDetect - cleared to zero.
 743:Generated_Source\PSoC4/UART.c ****     *  UART_rxBufferOverflow - cleared to zero.
 744:Generated_Source\PSoC4/UART.c ****     *
ARM GAS  C:\Users\tdoan1\AppData\Local\Temp\ccP2L39x.s 			page 23


 745:Generated_Source\PSoC4/UART.c ****     * Reentrant:
 746:Generated_Source\PSoC4/UART.c ****     *  No.
 747:Generated_Source\PSoC4/UART.c ****     *
 748:Generated_Source\PSoC4/UART.c ****     * Theory:
 749:Generated_Source\PSoC4/UART.c ****     *  Setting the pointers to zero makes the system believe there is no data to
 750:Generated_Source\PSoC4/UART.c ****     *  read and writing will resume at address 0 overwriting any data that may
 751:Generated_Source\PSoC4/UART.c ****     *  have remained in the RAM.
 752:Generated_Source\PSoC4/UART.c ****     *
 753:Generated_Source\PSoC4/UART.c ****     * Side Effects:
 754:Generated_Source\PSoC4/UART.c ****     *  Any received data not read from the RAM or FIFO buffer will be lost.
 755:Generated_Source\PSoC4/UART.c ****     *
 756:Generated_Source\PSoC4/UART.c ****     *******************************************************************************/
 757:Generated_Source\PSoC4/UART.c ****     void UART_ClearRxBuffer(void) 
 758:Generated_Source\PSoC4/UART.c ****     {
 504              		.loc 1 758 0
 505              		.cfi_startproc
 506              		@ args = 0, pretend = 0, frame = 0
 507              		@ frame_needed = 0, uses_anonymous_args = 0
 508 0000 10B5     		push	{r4, lr}
 509              		.cfi_def_cfa_offset 8
 510              		.cfi_offset 4, -8
 511              		.cfi_offset 14, -4
 759:Generated_Source\PSoC4/UART.c ****         uint8 enableInterrupts;
 760:Generated_Source\PSoC4/UART.c **** 
 761:Generated_Source\PSoC4/UART.c ****         /* Clear the HW FIFO */
 762:Generated_Source\PSoC4/UART.c ****         enableInterrupts = CyEnterCriticalSection();
 512              		.loc 1 762 0
 513 0002 FFF7FEFF 		bl	CyEnterCriticalSection
 514              	.LVL30:
 763:Generated_Source\PSoC4/UART.c ****         UART_RXDATA_AUX_CTL_REG |= (uint8)  UART_RX_FIFO_CLR;
 515              		.loc 1 763 0
 516 0006 064A     		ldr	r2, .L38
 517 0008 1178     		ldrb	r1, [r2]
 518 000a 0123     		movs	r3, #1
 519 000c 0B43     		orrs	r3, r1
 520 000e DBB2     		uxtb	r3, r3
 521 0010 1370     		strb	r3, [r2]
 764:Generated_Source\PSoC4/UART.c ****         UART_RXDATA_AUX_CTL_REG &= (uint8) ~UART_RX_FIFO_CLR;
 522              		.loc 1 764 0
 523 0012 1378     		ldrb	r3, [r2]
 524 0014 0121     		movs	r1, #1
 525 0016 8B43     		bics	r3, r1
 526 0018 1370     		strb	r3, [r2]
 765:Generated_Source\PSoC4/UART.c ****         CyExitCriticalSection(enableInterrupts);
 527              		.loc 1 765 0
 528 001a FFF7FEFF 		bl	CyExitCriticalSection
 529              	.LVL31:
 766:Generated_Source\PSoC4/UART.c **** 
 767:Generated_Source\PSoC4/UART.c ****     #if (UART_RX_INTERRUPT_ENABLED)
 768:Generated_Source\PSoC4/UART.c **** 
 769:Generated_Source\PSoC4/UART.c ****         /* Protect variables that could change on interrupt. */
 770:Generated_Source\PSoC4/UART.c ****         UART_DisableRxInt();
 771:Generated_Source\PSoC4/UART.c **** 
 772:Generated_Source\PSoC4/UART.c ****         UART_rxBufferRead = 0u;
 773:Generated_Source\PSoC4/UART.c ****         UART_rxBufferWrite = 0u;
 774:Generated_Source\PSoC4/UART.c ****         UART_rxBufferLoopDetect = 0u;
 775:Generated_Source\PSoC4/UART.c ****         UART_rxBufferOverflow = 0u;
ARM GAS  C:\Users\tdoan1\AppData\Local\Temp\ccP2L39x.s 			page 24


 776:Generated_Source\PSoC4/UART.c **** 
 777:Generated_Source\PSoC4/UART.c ****         UART_EnableRxInt();
 778:Generated_Source\PSoC4/UART.c **** 
 779:Generated_Source\PSoC4/UART.c ****     #endif /* (UART_RX_INTERRUPT_ENABLED) */
 780:Generated_Source\PSoC4/UART.c **** 
 781:Generated_Source\PSoC4/UART.c ****     }
 530              		.loc 1 781 0
 531              		@ sp needed
 532 001e 10BD     		pop	{r4, pc}
 533              	.L39:
 534              		.align	2
 535              	.L38:
 536 0020 90000F40 		.word	1074725008
 537              		.cfi_endproc
 538              	.LFE12:
 539              		.size	UART_ClearRxBuffer, .-UART_ClearRxBuffer
 540              		.section	.text.UART_SetRxAddressMode,"ax",%progbits
 541              		.align	2
 542              		.global	UART_SetRxAddressMode
 543              		.code	16
 544              		.thumb_func
 545              		.type	UART_SetRxAddressMode, %function
 546              	UART_SetRxAddressMode:
 547              	.LFB13:
 782:Generated_Source\PSoC4/UART.c **** 
 783:Generated_Source\PSoC4/UART.c **** 
 784:Generated_Source\PSoC4/UART.c ****     /*******************************************************************************
 785:Generated_Source\PSoC4/UART.c ****     * Function Name: UART_SetRxAddressMode
 786:Generated_Source\PSoC4/UART.c ****     ********************************************************************************
 787:Generated_Source\PSoC4/UART.c ****     *
 788:Generated_Source\PSoC4/UART.c ****     * Summary:
 789:Generated_Source\PSoC4/UART.c ****     *  Sets the software controlled Addressing mode used by the RX portion of the
 790:Generated_Source\PSoC4/UART.c ****     *  UART.
 791:Generated_Source\PSoC4/UART.c ****     *
 792:Generated_Source\PSoC4/UART.c ****     * Parameters:
 793:Generated_Source\PSoC4/UART.c ****     *  addressMode: Enumerated value indicating the mode of RX addressing
 794:Generated_Source\PSoC4/UART.c ****     *  UART__B_UART__AM_SW_BYTE_BYTE -  Software Byte-by-Byte address
 795:Generated_Source\PSoC4/UART.c ****     *                                               detection
 796:Generated_Source\PSoC4/UART.c ****     *  UART__B_UART__AM_SW_DETECT_TO_BUFFER - Software Detect to Buffer
 797:Generated_Source\PSoC4/UART.c ****     *                                               address detection
 798:Generated_Source\PSoC4/UART.c ****     *  UART__B_UART__AM_HW_BYTE_BY_BYTE - Hardware Byte-by-Byte address
 799:Generated_Source\PSoC4/UART.c ****     *                                               detection
 800:Generated_Source\PSoC4/UART.c ****     *  UART__B_UART__AM_HW_DETECT_TO_BUFFER - Hardware Detect to Buffer
 801:Generated_Source\PSoC4/UART.c ****     *                                               address detection
 802:Generated_Source\PSoC4/UART.c ****     *  UART__B_UART__AM_NONE - No address detection
 803:Generated_Source\PSoC4/UART.c ****     *
 804:Generated_Source\PSoC4/UART.c ****     * Return:
 805:Generated_Source\PSoC4/UART.c ****     *  None.
 806:Generated_Source\PSoC4/UART.c ****     *
 807:Generated_Source\PSoC4/UART.c ****     * Global Variables:
 808:Generated_Source\PSoC4/UART.c ****     *  UART_rxAddressMode - the parameter stored in this variable for
 809:Generated_Source\PSoC4/UART.c ****     *   the farther usage in RX ISR.
 810:Generated_Source\PSoC4/UART.c ****     *  UART_rxAddressDetected - set to initial state (0).
 811:Generated_Source\PSoC4/UART.c ****     *
 812:Generated_Source\PSoC4/UART.c ****     *******************************************************************************/
 813:Generated_Source\PSoC4/UART.c ****     void UART_SetRxAddressMode(uint8 addressMode)
 814:Generated_Source\PSoC4/UART.c ****                                                         
ARM GAS  C:\Users\tdoan1\AppData\Local\Temp\ccP2L39x.s 			page 25


 815:Generated_Source\PSoC4/UART.c ****     {
 548              		.loc 1 815 0
 549              		.cfi_startproc
 550              		@ args = 0, pretend = 0, frame = 0
 551              		@ frame_needed = 0, uses_anonymous_args = 0
 552              		@ link register save eliminated.
 553              	.LVL32:
 816:Generated_Source\PSoC4/UART.c ****         #if(UART_RXHW_ADDRESS_ENABLED)
 817:Generated_Source\PSoC4/UART.c ****             #if(UART_CONTROL_REG_REMOVED)
 818:Generated_Source\PSoC4/UART.c ****                 if(0u != addressMode)
 819:Generated_Source\PSoC4/UART.c ****                 {
 820:Generated_Source\PSoC4/UART.c ****                     /* Suppress compiler warning */
 821:Generated_Source\PSoC4/UART.c ****                 }
 822:Generated_Source\PSoC4/UART.c ****             #else /* UART_CONTROL_REG_REMOVED */
 823:Generated_Source\PSoC4/UART.c ****                 uint8 tmpCtrl;
 824:Generated_Source\PSoC4/UART.c ****                 tmpCtrl = UART_CONTROL_REG & (uint8)~UART_CTRL_RXADDR_MODE_MASK;
 825:Generated_Source\PSoC4/UART.c ****                 tmpCtrl |= (uint8)(addressMode << UART_CTRL_RXADDR_MODE0_SHIFT);
 826:Generated_Source\PSoC4/UART.c ****                 UART_CONTROL_REG = tmpCtrl;
 827:Generated_Source\PSoC4/UART.c **** 
 828:Generated_Source\PSoC4/UART.c ****                 #if(UART_RX_INTERRUPT_ENABLED && \
 829:Generated_Source\PSoC4/UART.c ****                    (UART_RXBUFFERSIZE > UART_FIFO_LENGTH) )
 830:Generated_Source\PSoC4/UART.c ****                     UART_rxAddressMode = addressMode;
 831:Generated_Source\PSoC4/UART.c ****                     UART_rxAddressDetected = 0u;
 832:Generated_Source\PSoC4/UART.c ****                 #endif /* End UART_RXBUFFERSIZE > UART_FIFO_LENGTH*/
 833:Generated_Source\PSoC4/UART.c ****             #endif /* End UART_CONTROL_REG_REMOVED */
 834:Generated_Source\PSoC4/UART.c ****         #else /* UART_RXHW_ADDRESS_ENABLED */
 835:Generated_Source\PSoC4/UART.c ****             if(0u != addressMode)
 836:Generated_Source\PSoC4/UART.c ****             {
 837:Generated_Source\PSoC4/UART.c ****                 /* Suppress compiler warning */
 838:Generated_Source\PSoC4/UART.c ****             }
 839:Generated_Source\PSoC4/UART.c ****         #endif /* End UART_RXHW_ADDRESS_ENABLED */
 840:Generated_Source\PSoC4/UART.c ****     }
 554              		.loc 1 840 0
 555              		@ sp needed
 556 0000 7047     		bx	lr
 557              		.cfi_endproc
 558              	.LFE13:
 559              		.size	UART_SetRxAddressMode, .-UART_SetRxAddressMode
 560 0002 C046     		.section	.text.UART_SetRxAddress1,"ax",%progbits
 561              		.align	2
 562              		.global	UART_SetRxAddress1
 563              		.code	16
 564              		.thumb_func
 565              		.type	UART_SetRxAddress1, %function
 566              	UART_SetRxAddress1:
 567              	.LFB14:
 841:Generated_Source\PSoC4/UART.c **** 
 842:Generated_Source\PSoC4/UART.c **** 
 843:Generated_Source\PSoC4/UART.c ****     /*******************************************************************************
 844:Generated_Source\PSoC4/UART.c ****     * Function Name: UART_SetRxAddress1
 845:Generated_Source\PSoC4/UART.c ****     ********************************************************************************
 846:Generated_Source\PSoC4/UART.c ****     *
 847:Generated_Source\PSoC4/UART.c ****     * Summary:
 848:Generated_Source\PSoC4/UART.c ****     *  Sets the first of two hardware-detectable receiver addresses.
 849:Generated_Source\PSoC4/UART.c ****     *
 850:Generated_Source\PSoC4/UART.c ****     * Parameters:
 851:Generated_Source\PSoC4/UART.c ****     *  address: Address #1 for hardware address detection.
ARM GAS  C:\Users\tdoan1\AppData\Local\Temp\ccP2L39x.s 			page 26


 852:Generated_Source\PSoC4/UART.c ****     *
 853:Generated_Source\PSoC4/UART.c ****     * Return:
 854:Generated_Source\PSoC4/UART.c ****     *  None.
 855:Generated_Source\PSoC4/UART.c ****     *
 856:Generated_Source\PSoC4/UART.c ****     *******************************************************************************/
 857:Generated_Source\PSoC4/UART.c ****     void UART_SetRxAddress1(uint8 address) 
 858:Generated_Source\PSoC4/UART.c ****     {
 568              		.loc 1 858 0
 569              		.cfi_startproc
 570              		@ args = 0, pretend = 0, frame = 0
 571              		@ frame_needed = 0, uses_anonymous_args = 0
 572              		@ link register save eliminated.
 573              	.LVL33:
 859:Generated_Source\PSoC4/UART.c ****         UART_RXADDRESS1_REG = address;
 574              		.loc 1 859 0
 575 0000 014B     		ldr	r3, .L42
 576 0002 1870     		strb	r0, [r3]
 860:Generated_Source\PSoC4/UART.c ****     }
 577              		.loc 1 860 0
 578              		@ sp needed
 579 0004 7047     		bx	lr
 580              	.L43:
 581 0006 C046     		.align	2
 582              	.L42:
 583 0008 20000F40 		.word	1074724896
 584              		.cfi_endproc
 585              	.LFE14:
 586              		.size	UART_SetRxAddress1, .-UART_SetRxAddress1
 587              		.section	.text.UART_SetRxAddress2,"ax",%progbits
 588              		.align	2
 589              		.global	UART_SetRxAddress2
 590              		.code	16
 591              		.thumb_func
 592              		.type	UART_SetRxAddress2, %function
 593              	UART_SetRxAddress2:
 594              	.LFB15:
 861:Generated_Source\PSoC4/UART.c **** 
 862:Generated_Source\PSoC4/UART.c **** 
 863:Generated_Source\PSoC4/UART.c ****     /*******************************************************************************
 864:Generated_Source\PSoC4/UART.c ****     * Function Name: UART_SetRxAddress2
 865:Generated_Source\PSoC4/UART.c ****     ********************************************************************************
 866:Generated_Source\PSoC4/UART.c ****     *
 867:Generated_Source\PSoC4/UART.c ****     * Summary:
 868:Generated_Source\PSoC4/UART.c ****     *  Sets the second of two hardware-detectable receiver addresses.
 869:Generated_Source\PSoC4/UART.c ****     *
 870:Generated_Source\PSoC4/UART.c ****     * Parameters:
 871:Generated_Source\PSoC4/UART.c ****     *  address: Address #2 for hardware address detection.
 872:Generated_Source\PSoC4/UART.c ****     *
 873:Generated_Source\PSoC4/UART.c ****     * Return:
 874:Generated_Source\PSoC4/UART.c ****     *  None.
 875:Generated_Source\PSoC4/UART.c ****     *
 876:Generated_Source\PSoC4/UART.c ****     *******************************************************************************/
 877:Generated_Source\PSoC4/UART.c ****     void UART_SetRxAddress2(uint8 address) 
 878:Generated_Source\PSoC4/UART.c ****     {
 595              		.loc 1 878 0
 596              		.cfi_startproc
 597              		@ args = 0, pretend = 0, frame = 0
ARM GAS  C:\Users\tdoan1\AppData\Local\Temp\ccP2L39x.s 			page 27


 598              		@ frame_needed = 0, uses_anonymous_args = 0
 599              		@ link register save eliminated.
 600              	.LVL34:
 879:Generated_Source\PSoC4/UART.c ****         UART_RXADDRESS2_REG = address;
 601              		.loc 1 879 0
 602 0000 014B     		ldr	r3, .L45
 603 0002 1870     		strb	r0, [r3]
 880:Generated_Source\PSoC4/UART.c ****     }
 604              		.loc 1 880 0
 605              		@ sp needed
 606 0004 7047     		bx	lr
 607              	.L46:
 608 0006 C046     		.align	2
 609              	.L45:
 610 0008 30000F40 		.word	1074724912
 611              		.cfi_endproc
 612              	.LFE15:
 613              		.size	UART_SetRxAddress2, .-UART_SetRxAddress2
 614              		.section	.text.UART_SetTxInterruptMode,"ax",%progbits
 615              		.align	2
 616              		.global	UART_SetTxInterruptMode
 617              		.code	16
 618              		.thumb_func
 619              		.type	UART_SetTxInterruptMode, %function
 620              	UART_SetTxInterruptMode:
 621              	.LFB16:
 881:Generated_Source\PSoC4/UART.c **** 
 882:Generated_Source\PSoC4/UART.c **** #endif  /* UART_RX_ENABLED || UART_HD_ENABLED*/
 883:Generated_Source\PSoC4/UART.c **** 
 884:Generated_Source\PSoC4/UART.c **** 
 885:Generated_Source\PSoC4/UART.c **** #if( (UART_TX_ENABLED) || (UART_HD_ENABLED) )
 886:Generated_Source\PSoC4/UART.c ****     /*******************************************************************************
 887:Generated_Source\PSoC4/UART.c ****     * Function Name: UART_SetTxInterruptMode
 888:Generated_Source\PSoC4/UART.c ****     ********************************************************************************
 889:Generated_Source\PSoC4/UART.c ****     *
 890:Generated_Source\PSoC4/UART.c ****     * Summary:
 891:Generated_Source\PSoC4/UART.c ****     *  Configures the TX interrupt sources to be enabled, but does not enable the
 892:Generated_Source\PSoC4/UART.c ****     *  interrupt.
 893:Generated_Source\PSoC4/UART.c ****     *
 894:Generated_Source\PSoC4/UART.c ****     * Parameters:
 895:Generated_Source\PSoC4/UART.c ****     *  intSrc: Bit field containing the TX interrupt sources to enable
 896:Generated_Source\PSoC4/UART.c ****     *   UART_TX_STS_COMPLETE        Interrupt on TX byte complete
 897:Generated_Source\PSoC4/UART.c ****     *   UART_TX_STS_FIFO_EMPTY      Interrupt when TX FIFO is empty
 898:Generated_Source\PSoC4/UART.c ****     *   UART_TX_STS_FIFO_FULL       Interrupt when TX FIFO is full
 899:Generated_Source\PSoC4/UART.c ****     *   UART_TX_STS_FIFO_NOT_FULL   Interrupt when TX FIFO is not full
 900:Generated_Source\PSoC4/UART.c ****     *
 901:Generated_Source\PSoC4/UART.c ****     * Return:
 902:Generated_Source\PSoC4/UART.c ****     *  None.
 903:Generated_Source\PSoC4/UART.c ****     *
 904:Generated_Source\PSoC4/UART.c ****     * Theory:
 905:Generated_Source\PSoC4/UART.c ****     *  Enables the output of specific status bits to the interrupt controller
 906:Generated_Source\PSoC4/UART.c ****     *
 907:Generated_Source\PSoC4/UART.c ****     *******************************************************************************/
 908:Generated_Source\PSoC4/UART.c ****     void UART_SetTxInterruptMode(uint8 intSrc) 
 909:Generated_Source\PSoC4/UART.c ****     {
 622              		.loc 1 909 0
 623              		.cfi_startproc
ARM GAS  C:\Users\tdoan1\AppData\Local\Temp\ccP2L39x.s 			page 28


 624              		@ args = 0, pretend = 0, frame = 0
 625              		@ frame_needed = 0, uses_anonymous_args = 0
 626              		@ link register save eliminated.
 627              	.LVL35:
 910:Generated_Source\PSoC4/UART.c ****         UART_TXSTATUS_MASK_REG = intSrc;
 628              		.loc 1 910 0
 629 0000 014B     		ldr	r3, .L48
 630 0002 1870     		strb	r0, [r3]
 911:Generated_Source\PSoC4/UART.c ****     }
 631              		.loc 1 911 0
 632              		@ sp needed
 633 0004 7047     		bx	lr
 634              	.L49:
 635 0006 C046     		.align	2
 636              	.L48:
 637 0008 83000F40 		.word	1074724995
 638              		.cfi_endproc
 639              	.LFE16:
 640              		.size	UART_SetTxInterruptMode, .-UART_SetTxInterruptMode
 641              		.section	.text.UART_WriteTxData,"ax",%progbits
 642              		.align	2
 643              		.global	UART_WriteTxData
 644              		.code	16
 645              		.thumb_func
 646              		.type	UART_WriteTxData, %function
 647              	UART_WriteTxData:
 648              	.LFB17:
 912:Generated_Source\PSoC4/UART.c **** 
 913:Generated_Source\PSoC4/UART.c **** 
 914:Generated_Source\PSoC4/UART.c ****     /*******************************************************************************
 915:Generated_Source\PSoC4/UART.c ****     * Function Name: UART_WriteTxData
 916:Generated_Source\PSoC4/UART.c ****     ********************************************************************************
 917:Generated_Source\PSoC4/UART.c ****     *
 918:Generated_Source\PSoC4/UART.c ****     * Summary:
 919:Generated_Source\PSoC4/UART.c ****     *  Places a byte of data into the transmit buffer to be sent when the bus is
 920:Generated_Source\PSoC4/UART.c ****     *  available without checking the TX status register. You must check status
 921:Generated_Source\PSoC4/UART.c ****     *  separately.
 922:Generated_Source\PSoC4/UART.c ****     *
 923:Generated_Source\PSoC4/UART.c ****     * Parameters:
 924:Generated_Source\PSoC4/UART.c ****     *  txDataByte: data byte
 925:Generated_Source\PSoC4/UART.c ****     *
 926:Generated_Source\PSoC4/UART.c ****     * Return:
 927:Generated_Source\PSoC4/UART.c ****     * None.
 928:Generated_Source\PSoC4/UART.c ****     *
 929:Generated_Source\PSoC4/UART.c ****     * Global Variables:
 930:Generated_Source\PSoC4/UART.c ****     *  UART_txBuffer - RAM buffer pointer for save data for transmission
 931:Generated_Source\PSoC4/UART.c ****     *  UART_txBufferWrite - cyclic index for write to txBuffer,
 932:Generated_Source\PSoC4/UART.c ****     *    incremented after each byte saved to buffer.
 933:Generated_Source\PSoC4/UART.c ****     *  UART_txBufferRead - cyclic index for read from txBuffer,
 934:Generated_Source\PSoC4/UART.c ****     *    checked to identify the condition to write to FIFO directly or to TX buffer
 935:Generated_Source\PSoC4/UART.c ****     *  UART_initVar - checked to identify that the component has been
 936:Generated_Source\PSoC4/UART.c ****     *    initialized.
 937:Generated_Source\PSoC4/UART.c ****     *
 938:Generated_Source\PSoC4/UART.c ****     * Reentrant:
 939:Generated_Source\PSoC4/UART.c ****     *  No.
 940:Generated_Source\PSoC4/UART.c ****     *
 941:Generated_Source\PSoC4/UART.c ****     *******************************************************************************/
ARM GAS  C:\Users\tdoan1\AppData\Local\Temp\ccP2L39x.s 			page 29


 942:Generated_Source\PSoC4/UART.c ****     void UART_WriteTxData(uint8 txDataByte) 
 943:Generated_Source\PSoC4/UART.c ****     {
 649              		.loc 1 943 0
 650              		.cfi_startproc
 651              		@ args = 0, pretend = 0, frame = 0
 652              		@ frame_needed = 0, uses_anonymous_args = 0
 653              	.LVL36:
 654 0000 10B5     		push	{r4, lr}
 655              		.cfi_def_cfa_offset 8
 656              		.cfi_offset 4, -8
 657              		.cfi_offset 14, -4
 658 0002 0400     		movs	r4, r0
 944:Generated_Source\PSoC4/UART.c ****         /* If not Initialized then skip this function*/
 945:Generated_Source\PSoC4/UART.c ****         if(UART_initVar != 0u)
 659              		.loc 1 945 0
 660 0004 114B     		ldr	r3, .L55
 661 0006 1B78     		ldrb	r3, [r3]
 662 0008 002B     		cmp	r3, #0
 663 000a 1DD0     		beq	.L50
 946:Generated_Source\PSoC4/UART.c ****         {
 947:Generated_Source\PSoC4/UART.c ****         #if (UART_TX_INTERRUPT_ENABLED)
 948:Generated_Source\PSoC4/UART.c **** 
 949:Generated_Source\PSoC4/UART.c ****             /* Protect variables that could change on interrupt. */
 950:Generated_Source\PSoC4/UART.c ****             UART_DisableTxInt();
 664              		.loc 1 950 0
 665 000c 0220     		movs	r0, #2
 666              	.LVL37:
 667 000e FFF7FEFF 		bl	CyIntDisable
 668              	.LVL38:
 951:Generated_Source\PSoC4/UART.c **** 
 952:Generated_Source\PSoC4/UART.c ****             if( (UART_txBufferRead == UART_txBufferWrite) &&
 669              		.loc 1 952 0
 670 0012 0E4A     		ldr	r2, .L55
 671 0014 5378     		ldrb	r3, [r2, #1]
 672 0016 DBB2     		uxtb	r3, r3
 673 0018 9278     		ldrb	r2, [r2, #2]
 674 001a 9342     		cmp	r3, r2
 675 001c 06D1     		bne	.L52
 953:Generated_Source\PSoC4/UART.c ****                 ((UART_TXSTATUS_REG & UART_TX_STS_FIFO_FULL) == 0u) )
 676              		.loc 1 953 0 discriminator 1
 677 001e 0C4B     		ldr	r3, .L55+4
 678 0020 1B78     		ldrb	r3, [r3]
 952:Generated_Source\PSoC4/UART.c ****                 ((UART_TXSTATUS_REG & UART_TX_STS_FIFO_FULL) == 0u) )
 679              		.loc 1 952 0 discriminator 1
 680 0022 5B07     		lsls	r3, r3, #29
 681 0024 02D4     		bmi	.L52
 954:Generated_Source\PSoC4/UART.c ****             {
 955:Generated_Source\PSoC4/UART.c ****                 /* Add directly to the FIFO. */
 956:Generated_Source\PSoC4/UART.c ****                 UART_TXDATA_REG = txDataByte;
 682              		.loc 1 956 0
 683 0026 0B4B     		ldr	r3, .L55+8
 684 0028 1C70     		strb	r4, [r3]
 685 002a 0AE0     		b	.L53
 686              	.L52:
 957:Generated_Source\PSoC4/UART.c ****             }
 958:Generated_Source\PSoC4/UART.c ****             else
 959:Generated_Source\PSoC4/UART.c ****             {
ARM GAS  C:\Users\tdoan1\AppData\Local\Temp\ccP2L39x.s 			page 30


 960:Generated_Source\PSoC4/UART.c ****                 if(UART_txBufferWrite >= UART_TX_BUFFER_SIZE)
 687              		.loc 1 960 0
 688 002c 272A     		cmp	r2, #39
 689 002e 02D9     		bls	.L54
 961:Generated_Source\PSoC4/UART.c ****                 {
 962:Generated_Source\PSoC4/UART.c ****                     UART_txBufferWrite = 0u;
 690              		.loc 1 962 0
 691 0030 0022     		movs	r2, #0
 692 0032 064B     		ldr	r3, .L55
 693 0034 9A70     		strb	r2, [r3, #2]
 694              	.L54:
 963:Generated_Source\PSoC4/UART.c ****                 }
 964:Generated_Source\PSoC4/UART.c **** 
 965:Generated_Source\PSoC4/UART.c ****                 UART_txBuffer[UART_txBufferWrite] = txDataByte;
 695              		.loc 1 965 0
 696 0036 054A     		ldr	r2, .L55
 697 0038 9378     		ldrb	r3, [r2, #2]
 698 003a 0749     		ldr	r1, .L55+12
 699 003c CC54     		strb	r4, [r1, r3]
 966:Generated_Source\PSoC4/UART.c **** 
 967:Generated_Source\PSoC4/UART.c ****                 /* Add to the software buffer. */
 968:Generated_Source\PSoC4/UART.c ****                 UART_txBufferWrite++;
 700              		.loc 1 968 0
 701 003e 0133     		adds	r3, r3, #1
 702 0040 9370     		strb	r3, [r2, #2]
 703              	.L53:
 969:Generated_Source\PSoC4/UART.c ****             }
 970:Generated_Source\PSoC4/UART.c **** 
 971:Generated_Source\PSoC4/UART.c ****             UART_EnableTxInt();
 704              		.loc 1 971 0
 705 0042 0220     		movs	r0, #2
 706 0044 FFF7FEFF 		bl	CyIntEnable
 707              	.LVL39:
 708              	.L50:
 972:Generated_Source\PSoC4/UART.c **** 
 973:Generated_Source\PSoC4/UART.c ****         #else
 974:Generated_Source\PSoC4/UART.c **** 
 975:Generated_Source\PSoC4/UART.c ****             /* Add directly to the FIFO. */
 976:Generated_Source\PSoC4/UART.c ****             UART_TXDATA_REG = txDataByte;
 977:Generated_Source\PSoC4/UART.c **** 
 978:Generated_Source\PSoC4/UART.c ****         #endif /*(UART_TX_INTERRUPT_ENABLED) */
 979:Generated_Source\PSoC4/UART.c ****         }
 980:Generated_Source\PSoC4/UART.c ****     }
 709              		.loc 1 980 0
 710              		@ sp needed
 711 0048 10BD     		pop	{r4, pc}
 712              	.L56:
 713 004a C046     		.align	2
 714              	.L55:
 715 004c 00000000 		.word	.LANCHOR0
 716 0050 63000F40 		.word	1074724963
 717 0054 43000F40 		.word	1074724931
 718 0058 00000000 		.word	UART_txBuffer
 719              		.cfi_endproc
 720              	.LFE17:
 721              		.size	UART_WriteTxData, .-UART_WriteTxData
 722              		.section	.text.UART_ReadTxStatus,"ax",%progbits
ARM GAS  C:\Users\tdoan1\AppData\Local\Temp\ccP2L39x.s 			page 31


 723              		.align	2
 724              		.global	UART_ReadTxStatus
 725              		.code	16
 726              		.thumb_func
 727              		.type	UART_ReadTxStatus, %function
 728              	UART_ReadTxStatus:
 729              	.LFB18:
 981:Generated_Source\PSoC4/UART.c **** 
 982:Generated_Source\PSoC4/UART.c **** 
 983:Generated_Source\PSoC4/UART.c ****     /*******************************************************************************
 984:Generated_Source\PSoC4/UART.c ****     * Function Name: UART_ReadTxStatus
 985:Generated_Source\PSoC4/UART.c ****     ********************************************************************************
 986:Generated_Source\PSoC4/UART.c ****     *
 987:Generated_Source\PSoC4/UART.c ****     * Summary:
 988:Generated_Source\PSoC4/UART.c ****     *  Reads the status register for the TX portion of the UART.
 989:Generated_Source\PSoC4/UART.c ****     *
 990:Generated_Source\PSoC4/UART.c ****     * Parameters:
 991:Generated_Source\PSoC4/UART.c ****     *  None.
 992:Generated_Source\PSoC4/UART.c ****     *
 993:Generated_Source\PSoC4/UART.c ****     * Return:
 994:Generated_Source\PSoC4/UART.c ****     *  Contents of the status register
 995:Generated_Source\PSoC4/UART.c ****     *
 996:Generated_Source\PSoC4/UART.c ****     * Theory:
 997:Generated_Source\PSoC4/UART.c ****     *  This function reads the TX status register, which is cleared on read.
 998:Generated_Source\PSoC4/UART.c ****     *  It is up to the user to handle all bits in this return value accordingly,
 999:Generated_Source\PSoC4/UART.c ****     *  even if the bit was not enabled as an interrupt source the event happened
1000:Generated_Source\PSoC4/UART.c ****     *  and must be handled accordingly.
1001:Generated_Source\PSoC4/UART.c ****     *
1002:Generated_Source\PSoC4/UART.c ****     *******************************************************************************/
1003:Generated_Source\PSoC4/UART.c ****     uint8 UART_ReadTxStatus(void) 
1004:Generated_Source\PSoC4/UART.c ****     {
 730              		.loc 1 1004 0
 731              		.cfi_startproc
 732              		@ args = 0, pretend = 0, frame = 0
 733              		@ frame_needed = 0, uses_anonymous_args = 0
 734              		@ link register save eliminated.
1005:Generated_Source\PSoC4/UART.c ****         return(UART_TXSTATUS_REG);
 735              		.loc 1 1005 0
 736 0000 014B     		ldr	r3, .L58
 737 0002 1878     		ldrb	r0, [r3]
 738 0004 C0B2     		uxtb	r0, r0
1006:Generated_Source\PSoC4/UART.c ****     }
 739              		.loc 1 1006 0
 740              		@ sp needed
 741 0006 7047     		bx	lr
 742              	.L59:
 743              		.align	2
 744              	.L58:
 745 0008 63000F40 		.word	1074724963
 746              		.cfi_endproc
 747              	.LFE18:
 748              		.size	UART_ReadTxStatus, .-UART_ReadTxStatus
 749              		.section	.text.UART_PutChar,"ax",%progbits
 750              		.align	2
 751              		.global	UART_PutChar
 752              		.code	16
 753              		.thumb_func
ARM GAS  C:\Users\tdoan1\AppData\Local\Temp\ccP2L39x.s 			page 32


 754              		.type	UART_PutChar, %function
 755              	UART_PutChar:
 756              	.LFB19:
1007:Generated_Source\PSoC4/UART.c **** 
1008:Generated_Source\PSoC4/UART.c **** 
1009:Generated_Source\PSoC4/UART.c ****     /*******************************************************************************
1010:Generated_Source\PSoC4/UART.c ****     * Function Name: UART_PutChar
1011:Generated_Source\PSoC4/UART.c ****     ********************************************************************************
1012:Generated_Source\PSoC4/UART.c ****     *
1013:Generated_Source\PSoC4/UART.c ****     * Summary:
1014:Generated_Source\PSoC4/UART.c ****     *  Puts a byte of data into the transmit buffer to be sent when the bus is
1015:Generated_Source\PSoC4/UART.c ****     *  available. This is a blocking API that waits until the TX buffer has room to
1016:Generated_Source\PSoC4/UART.c ****     *  hold the data.
1017:Generated_Source\PSoC4/UART.c ****     *
1018:Generated_Source\PSoC4/UART.c ****     * Parameters:
1019:Generated_Source\PSoC4/UART.c ****     *  txDataByte: Byte containing the data to transmit
1020:Generated_Source\PSoC4/UART.c ****     *
1021:Generated_Source\PSoC4/UART.c ****     * Return:
1022:Generated_Source\PSoC4/UART.c ****     *  None.
1023:Generated_Source\PSoC4/UART.c ****     *
1024:Generated_Source\PSoC4/UART.c ****     * Global Variables:
1025:Generated_Source\PSoC4/UART.c ****     *  UART_txBuffer - RAM buffer pointer for save data for transmission
1026:Generated_Source\PSoC4/UART.c ****     *  UART_txBufferWrite - cyclic index for write to txBuffer,
1027:Generated_Source\PSoC4/UART.c ****     *     checked to identify free space in txBuffer and incremented after each byte
1028:Generated_Source\PSoC4/UART.c ****     *     saved to buffer.
1029:Generated_Source\PSoC4/UART.c ****     *  UART_txBufferRead - cyclic index for read from txBuffer,
1030:Generated_Source\PSoC4/UART.c ****     *     checked to identify free space in txBuffer.
1031:Generated_Source\PSoC4/UART.c ****     *  UART_initVar - checked to identify that the component has been
1032:Generated_Source\PSoC4/UART.c ****     *     initialized.
1033:Generated_Source\PSoC4/UART.c ****     *
1034:Generated_Source\PSoC4/UART.c ****     * Reentrant:
1035:Generated_Source\PSoC4/UART.c ****     *  No.
1036:Generated_Source\PSoC4/UART.c ****     *
1037:Generated_Source\PSoC4/UART.c ****     * Theory:
1038:Generated_Source\PSoC4/UART.c ****     *  Allows the user to transmit any byte of data in a single transfer
1039:Generated_Source\PSoC4/UART.c ****     *
1040:Generated_Source\PSoC4/UART.c ****     *******************************************************************************/
1041:Generated_Source\PSoC4/UART.c ****     void UART_PutChar(uint8 txDataByte) 
1042:Generated_Source\PSoC4/UART.c ****     {
 757              		.loc 1 1042 0
 758              		.cfi_startproc
 759              		@ args = 0, pretend = 0, frame = 0
 760              		@ frame_needed = 0, uses_anonymous_args = 0
 761              	.LVL40:
 762 0000 10B5     		push	{r4, lr}
 763              		.cfi_def_cfa_offset 8
 764              		.cfi_offset 4, -8
 765              		.cfi_offset 14, -4
 766              	.L63:
1043:Generated_Source\PSoC4/UART.c ****     #if (UART_TX_INTERRUPT_ENABLED)
1044:Generated_Source\PSoC4/UART.c ****         /* The temporary output pointer is used since it takes two instructions
1045:Generated_Source\PSoC4/UART.c ****         *  to increment with a wrap, and we can't risk doing that with the real
1046:Generated_Source\PSoC4/UART.c ****         *  pointer and getting an interrupt in between instructions.
1047:Generated_Source\PSoC4/UART.c ****         */
1048:Generated_Source\PSoC4/UART.c ****         uint8 locTxBufferWrite;
1049:Generated_Source\PSoC4/UART.c ****         uint8 locTxBufferRead;
1050:Generated_Source\PSoC4/UART.c **** 
ARM GAS  C:\Users\tdoan1\AppData\Local\Temp\ccP2L39x.s 			page 33


1051:Generated_Source\PSoC4/UART.c ****         do
1052:Generated_Source\PSoC4/UART.c ****         { /* Block if software buffer is full, so we don't overwrite. */
1053:Generated_Source\PSoC4/UART.c **** 
1054:Generated_Source\PSoC4/UART.c ****         #if ((UART_TX_BUFFER_SIZE > UART_MAX_BYTE_VALUE) && (CY_PSOC3))
1055:Generated_Source\PSoC4/UART.c ****             /* Disable TX interrupt to protect variables from modification */
1056:Generated_Source\PSoC4/UART.c ****             UART_DisableTxInt();
1057:Generated_Source\PSoC4/UART.c ****         #endif /* (UART_TX_BUFFER_SIZE > UART_MAX_BYTE_VALUE) && (CY_PSOC3) */
1058:Generated_Source\PSoC4/UART.c **** 
1059:Generated_Source\PSoC4/UART.c ****             locTxBufferWrite = UART_txBufferWrite;
 767              		.loc 1 1059 0
 768 0002 164B     		ldr	r3, .L68
 769 0004 9978     		ldrb	r1, [r3, #2]
 770              	.LVL41:
1060:Generated_Source\PSoC4/UART.c ****             locTxBufferRead  = UART_txBufferRead;
 771              		.loc 1 1060 0
 772 0006 5A78     		ldrb	r2, [r3, #1]
 773 0008 D2B2     		uxtb	r2, r2
 774              	.LVL42:
1061:Generated_Source\PSoC4/UART.c **** 
1062:Generated_Source\PSoC4/UART.c ****         #if ((UART_TX_BUFFER_SIZE > UART_MAX_BYTE_VALUE) && (CY_PSOC3))
1063:Generated_Source\PSoC4/UART.c ****             /* Enable interrupt to continue transmission */
1064:Generated_Source\PSoC4/UART.c ****             UART_EnableTxInt();
1065:Generated_Source\PSoC4/UART.c ****         #endif /* (UART_TX_BUFFER_SIZE > UART_MAX_BYTE_VALUE) && (CY_PSOC3) */
1066:Generated_Source\PSoC4/UART.c ****         }
1067:Generated_Source\PSoC4/UART.c ****         while( (locTxBufferWrite < locTxBufferRead) ? (locTxBufferWrite == (locTxBufferRead - 1u)) 
 775              		.loc 1 1067 0
 776 000a 9142     		cmp	r1, r2
 777 000c 05D2     		bcs	.L61
 778              		.loc 1 1067 0 is_stmt 0 discriminator 1
 779 000e 531E     		subs	r3, r2, #1
 780 0010 CB1A     		subs	r3, r1, r3
 781 0012 5C42     		rsbs	r4, r3, #0
 782 0014 6341     		adcs	r3, r3, r4
 783 0016 DBB2     		uxtb	r3, r3
 784 0018 04E0     		b	.L62
 785              	.L61:
1068:Generated_Source\PSoC4/UART.c ****                                 ((locTxBufferWrite - locTxBufferRead) ==
 786              		.loc 1 1068 0 is_stmt 1 discriminator 2
 787 001a 8B1A     		subs	r3, r1, r2
1067:Generated_Source\PSoC4/UART.c ****                                 ((locTxBufferWrite - locTxBufferRead) ==
 788              		.loc 1 1067 0 discriminator 2
 789 001c 273B     		subs	r3, r3, #39
 790 001e 5C42     		rsbs	r4, r3, #0
 791 0020 6341     		adcs	r3, r3, r4
 792 0022 DBB2     		uxtb	r3, r3
 793              	.L62:
1069:Generated_Source\PSoC4/UART.c ****                                 (uint8)(UART_TX_BUFFER_SIZE - 1u)) );
 794              		.loc 1 1069 0
 795 0024 002B     		cmp	r3, #0
 796 0026 ECD1     		bne	.L63
1070:Generated_Source\PSoC4/UART.c **** 
1071:Generated_Source\PSoC4/UART.c ****         if( (locTxBufferRead == locTxBufferWrite) &&
 797              		.loc 1 1071 0
 798 0028 9142     		cmp	r1, r2
 799 002a 06D1     		bne	.L64
1072:Generated_Source\PSoC4/UART.c ****             ((UART_TXSTATUS_REG & UART_TX_STS_FIFO_FULL) == 0u) )
 800              		.loc 1 1072 0 discriminator 1
ARM GAS  C:\Users\tdoan1\AppData\Local\Temp\ccP2L39x.s 			page 34


 801 002c 0C4B     		ldr	r3, .L68+4
 802 002e 1B78     		ldrb	r3, [r3]
1071:Generated_Source\PSoC4/UART.c ****             ((UART_TXSTATUS_REG & UART_TX_STS_FIFO_FULL) == 0u) )
 803              		.loc 1 1071 0 discriminator 1
 804 0030 5B07     		lsls	r3, r3, #29
 805 0032 02D4     		bmi	.L64
1073:Generated_Source\PSoC4/UART.c ****         {
1074:Generated_Source\PSoC4/UART.c ****             /* Add directly to the FIFO */
1075:Generated_Source\PSoC4/UART.c ****             UART_TXDATA_REG = txDataByte;
 806              		.loc 1 1075 0
 807 0034 0B4B     		ldr	r3, .L68+8
 808 0036 1870     		strb	r0, [r3]
 809 0038 0EE0     		b	.L60
 810              	.L64:
1076:Generated_Source\PSoC4/UART.c ****         }
1077:Generated_Source\PSoC4/UART.c ****         else
1078:Generated_Source\PSoC4/UART.c ****         {
1079:Generated_Source\PSoC4/UART.c ****             if(locTxBufferWrite >= UART_TX_BUFFER_SIZE)
 811              		.loc 1 1079 0
 812 003a 2729     		cmp	r1, #39
 813 003c 00D9     		bls	.L66
1080:Generated_Source\PSoC4/UART.c ****             {
1081:Generated_Source\PSoC4/UART.c ****                 locTxBufferWrite = 0u;
 814              		.loc 1 1081 0
 815 003e 0021     		movs	r1, #0
 816              	.LVL43:
 817              	.L66:
1082:Generated_Source\PSoC4/UART.c ****             }
1083:Generated_Source\PSoC4/UART.c ****             /* Add to the software buffer. */
1084:Generated_Source\PSoC4/UART.c ****             UART_txBuffer[locTxBufferWrite] = txDataByte;
 818              		.loc 1 1084 0
 819 0040 094B     		ldr	r3, .L68+12
 820 0042 5854     		strb	r0, [r3, r1]
1085:Generated_Source\PSoC4/UART.c ****             locTxBufferWrite++;
 821              		.loc 1 1085 0
 822 0044 0131     		adds	r1, r1, #1
 823              	.LVL44:
1086:Generated_Source\PSoC4/UART.c **** 
1087:Generated_Source\PSoC4/UART.c ****             /* Finally, update the real output pointer */
1088:Generated_Source\PSoC4/UART.c ****         #if ((UART_TX_BUFFER_SIZE > UART_MAX_BYTE_VALUE) && (CY_PSOC3))
1089:Generated_Source\PSoC4/UART.c ****             UART_DisableTxInt();
1090:Generated_Source\PSoC4/UART.c ****         #endif /* (UART_TX_BUFFER_SIZE > UART_MAX_BYTE_VALUE) && (CY_PSOC3) */
1091:Generated_Source\PSoC4/UART.c **** 
1092:Generated_Source\PSoC4/UART.c ****             UART_txBufferWrite = locTxBufferWrite;
 824              		.loc 1 1092 0
 825 0046 054B     		ldr	r3, .L68
 826 0048 9970     		strb	r1, [r3, #2]
1093:Generated_Source\PSoC4/UART.c **** 
1094:Generated_Source\PSoC4/UART.c ****         #if ((UART_TX_BUFFER_SIZE > UART_MAX_BYTE_VALUE) && (CY_PSOC3))
1095:Generated_Source\PSoC4/UART.c ****             UART_EnableTxInt();
1096:Generated_Source\PSoC4/UART.c ****         #endif /* (UART_TX_BUFFER_SIZE > UART_MAX_BYTE_VALUE) && (CY_PSOC3) */
1097:Generated_Source\PSoC4/UART.c **** 
1098:Generated_Source\PSoC4/UART.c ****             if(0u != (UART_TXSTATUS_REG & UART_TX_STS_FIFO_EMPTY))
 827              		.loc 1 1098 0
 828 004a 054B     		ldr	r3, .L68+4
 829 004c 1B78     		ldrb	r3, [r3]
 830 004e 9B07     		lsls	r3, r3, #30
ARM GAS  C:\Users\tdoan1\AppData\Local\Temp\ccP2L39x.s 			page 35


 831 0050 02D5     		bpl	.L60
1099:Generated_Source\PSoC4/UART.c ****             {
1100:Generated_Source\PSoC4/UART.c ****                 /* Trigger TX interrupt to send software buffer */
1101:Generated_Source\PSoC4/UART.c ****                 UART_SetPendingTxInt();
 832              		.loc 1 1101 0
 833 0052 0220     		movs	r0, #2
 834              	.LVL45:
 835 0054 FFF7FEFF 		bl	CyIntSetPending
 836              	.LVL46:
 837              	.L60:
1102:Generated_Source\PSoC4/UART.c ****             }
1103:Generated_Source\PSoC4/UART.c ****         }
1104:Generated_Source\PSoC4/UART.c **** 
1105:Generated_Source\PSoC4/UART.c ****     #else
1106:Generated_Source\PSoC4/UART.c **** 
1107:Generated_Source\PSoC4/UART.c ****         while((UART_TXSTATUS_REG & UART_TX_STS_FIFO_FULL) != 0u)
1108:Generated_Source\PSoC4/UART.c ****         {
1109:Generated_Source\PSoC4/UART.c ****             /* Wait for room in the FIFO */
1110:Generated_Source\PSoC4/UART.c ****         }
1111:Generated_Source\PSoC4/UART.c **** 
1112:Generated_Source\PSoC4/UART.c ****         /* Add directly to the FIFO */
1113:Generated_Source\PSoC4/UART.c ****         UART_TXDATA_REG = txDataByte;
1114:Generated_Source\PSoC4/UART.c **** 
1115:Generated_Source\PSoC4/UART.c ****     #endif /* UART_TX_INTERRUPT_ENABLED */
1116:Generated_Source\PSoC4/UART.c ****     }
 838              		.loc 1 1116 0
 839              		@ sp needed
 840 0058 10BD     		pop	{r4, pc}
 841              	.L69:
 842 005a C046     		.align	2
 843              	.L68:
 844 005c 00000000 		.word	.LANCHOR0
 845 0060 63000F40 		.word	1074724963
 846 0064 43000F40 		.word	1074724931
 847 0068 00000000 		.word	UART_txBuffer
 848              		.cfi_endproc
 849              	.LFE19:
 850              		.size	UART_PutChar, .-UART_PutChar
 851              		.section	.text.UART_PutString,"ax",%progbits
 852              		.align	2
 853              		.global	UART_PutString
 854              		.code	16
 855              		.thumb_func
 856              		.type	UART_PutString, %function
 857              	UART_PutString:
 858              	.LFB20:
1117:Generated_Source\PSoC4/UART.c **** 
1118:Generated_Source\PSoC4/UART.c **** 
1119:Generated_Source\PSoC4/UART.c ****     /*******************************************************************************
1120:Generated_Source\PSoC4/UART.c ****     * Function Name: UART_PutString
1121:Generated_Source\PSoC4/UART.c ****     ********************************************************************************
1122:Generated_Source\PSoC4/UART.c ****     *
1123:Generated_Source\PSoC4/UART.c ****     * Summary:
1124:Generated_Source\PSoC4/UART.c ****     *  Sends a NULL terminated string to the TX buffer for transmission.
1125:Generated_Source\PSoC4/UART.c ****     *
1126:Generated_Source\PSoC4/UART.c ****     * Parameters:
1127:Generated_Source\PSoC4/UART.c ****     *  string[]: Pointer to the null terminated string array residing in RAM or ROM
ARM GAS  C:\Users\tdoan1\AppData\Local\Temp\ccP2L39x.s 			page 36


1128:Generated_Source\PSoC4/UART.c ****     *
1129:Generated_Source\PSoC4/UART.c ****     * Return:
1130:Generated_Source\PSoC4/UART.c ****     *  None.
1131:Generated_Source\PSoC4/UART.c ****     *
1132:Generated_Source\PSoC4/UART.c ****     * Global Variables:
1133:Generated_Source\PSoC4/UART.c ****     *  UART_initVar - checked to identify that the component has been
1134:Generated_Source\PSoC4/UART.c ****     *     initialized.
1135:Generated_Source\PSoC4/UART.c ****     *
1136:Generated_Source\PSoC4/UART.c ****     * Reentrant:
1137:Generated_Source\PSoC4/UART.c ****     *  No.
1138:Generated_Source\PSoC4/UART.c ****     *
1139:Generated_Source\PSoC4/UART.c ****     * Theory:
1140:Generated_Source\PSoC4/UART.c ****     *  If there is not enough memory in the TX buffer for the entire string, this
1141:Generated_Source\PSoC4/UART.c ****     *  function blocks until the last character of the string is loaded into the
1142:Generated_Source\PSoC4/UART.c ****     *  TX buffer.
1143:Generated_Source\PSoC4/UART.c ****     *
1144:Generated_Source\PSoC4/UART.c ****     *******************************************************************************/
1145:Generated_Source\PSoC4/UART.c ****     void UART_PutString(const char8 string[]) 
1146:Generated_Source\PSoC4/UART.c ****     {
 859              		.loc 1 1146 0
 860              		.cfi_startproc
 861              		@ args = 0, pretend = 0, frame = 0
 862              		@ frame_needed = 0, uses_anonymous_args = 0
 863              	.LVL47:
 864 0000 70B5     		push	{r4, r5, r6, lr}
 865              		.cfi_def_cfa_offset 16
 866              		.cfi_offset 4, -16
 867              		.cfi_offset 5, -12
 868              		.cfi_offset 6, -8
 869              		.cfi_offset 14, -4
 870 0002 0500     		movs	r5, r0
 871              	.LVL48:
1147:Generated_Source\PSoC4/UART.c ****         uint16 bufIndex = 0u;
1148:Generated_Source\PSoC4/UART.c **** 
1149:Generated_Source\PSoC4/UART.c ****         /* If not Initialized then skip this function */
1150:Generated_Source\PSoC4/UART.c ****         if(UART_initVar != 0u)
 872              		.loc 1 1150 0
 873 0004 074B     		ldr	r3, .L75
 874 0006 1B78     		ldrb	r3, [r3]
 875 0008 002B     		cmp	r3, #0
 876 000a 05D1     		bne	.L74
 877 000c 08E0     		b	.L70
 878              	.LVL49:
 879              	.L73:
1151:Generated_Source\PSoC4/UART.c ****         {
1152:Generated_Source\PSoC4/UART.c ****             /* This is a blocking function, it will not exit until all data is sent */
1153:Generated_Source\PSoC4/UART.c ****             while(string[bufIndex] != (char8) 0)
1154:Generated_Source\PSoC4/UART.c ****             {
1155:Generated_Source\PSoC4/UART.c ****                 UART_PutChar((uint8)string[bufIndex]);
 880              		.loc 1 1155 0
 881 000e FFF7FEFF 		bl	UART_PutChar
 882              	.LVL50:
1156:Generated_Source\PSoC4/UART.c ****                 bufIndex++;
 883              		.loc 1 1156 0
 884 0012 0134     		adds	r4, r4, #1
 885              	.LVL51:
 886 0014 A4B2     		uxth	r4, r4
ARM GAS  C:\Users\tdoan1\AppData\Local\Temp\ccP2L39x.s 			page 37


 887              	.LVL52:
 888 0016 00E0     		b	.L71
 889              	.LVL53:
 890              	.L74:
 891 0018 0024     		movs	r4, #0
 892              	.LVL54:
 893              	.L71:
1153:Generated_Source\PSoC4/UART.c ****             {
 894              		.loc 1 1153 0
 895 001a 285D     		ldrb	r0, [r5, r4]
 896 001c 0028     		cmp	r0, #0
 897 001e F6D1     		bne	.L73
 898              	.LVL55:
 899              	.L70:
1157:Generated_Source\PSoC4/UART.c ****             }
1158:Generated_Source\PSoC4/UART.c ****         }
1159:Generated_Source\PSoC4/UART.c ****     }
 900              		.loc 1 1159 0
 901              		@ sp needed
 902              	.LVL56:
 903 0020 70BD     		pop	{r4, r5, r6, pc}
 904              	.L76:
 905 0022 C046     		.align	2
 906              	.L75:
 907 0024 00000000 		.word	.LANCHOR0
 908              		.cfi_endproc
 909              	.LFE20:
 910              		.size	UART_PutString, .-UART_PutString
 911              		.section	.text.UART_PutArray,"ax",%progbits
 912              		.align	2
 913              		.global	UART_PutArray
 914              		.code	16
 915              		.thumb_func
 916              		.type	UART_PutArray, %function
 917              	UART_PutArray:
 918              	.LFB21:
1160:Generated_Source\PSoC4/UART.c **** 
1161:Generated_Source\PSoC4/UART.c **** 
1162:Generated_Source\PSoC4/UART.c ****     /*******************************************************************************
1163:Generated_Source\PSoC4/UART.c ****     * Function Name: UART_PutArray
1164:Generated_Source\PSoC4/UART.c ****     ********************************************************************************
1165:Generated_Source\PSoC4/UART.c ****     *
1166:Generated_Source\PSoC4/UART.c ****     * Summary:
1167:Generated_Source\PSoC4/UART.c ****     *  Places N bytes of data from a memory array into the TX buffer for
1168:Generated_Source\PSoC4/UART.c ****     *  transmission.
1169:Generated_Source\PSoC4/UART.c ****     *
1170:Generated_Source\PSoC4/UART.c ****     * Parameters:
1171:Generated_Source\PSoC4/UART.c ****     *  string[]: Address of the memory array residing in RAM or ROM.
1172:Generated_Source\PSoC4/UART.c ****     *  byteCount: Number of bytes to be transmitted. The type depends on TX Buffer
1173:Generated_Source\PSoC4/UART.c ****     *             Size parameter.
1174:Generated_Source\PSoC4/UART.c ****     *
1175:Generated_Source\PSoC4/UART.c ****     * Return:
1176:Generated_Source\PSoC4/UART.c ****     *  None.
1177:Generated_Source\PSoC4/UART.c ****     *
1178:Generated_Source\PSoC4/UART.c ****     * Global Variables:
1179:Generated_Source\PSoC4/UART.c ****     *  UART_initVar - checked to identify that the component has been
1180:Generated_Source\PSoC4/UART.c ****     *     initialized.
ARM GAS  C:\Users\tdoan1\AppData\Local\Temp\ccP2L39x.s 			page 38


1181:Generated_Source\PSoC4/UART.c ****     *
1182:Generated_Source\PSoC4/UART.c ****     * Reentrant:
1183:Generated_Source\PSoC4/UART.c ****     *  No.
1184:Generated_Source\PSoC4/UART.c ****     *
1185:Generated_Source\PSoC4/UART.c ****     * Theory:
1186:Generated_Source\PSoC4/UART.c ****     *  If there is not enough memory in the TX buffer for the entire string, this
1187:Generated_Source\PSoC4/UART.c ****     *  function blocks until the last character of the string is loaded into the
1188:Generated_Source\PSoC4/UART.c ****     *  TX buffer.
1189:Generated_Source\PSoC4/UART.c ****     *
1190:Generated_Source\PSoC4/UART.c ****     *******************************************************************************/
1191:Generated_Source\PSoC4/UART.c ****     void UART_PutArray(const uint8 string[], uint8 byteCount)
1192:Generated_Source\PSoC4/UART.c ****                                                                     
1193:Generated_Source\PSoC4/UART.c ****     {
 919              		.loc 1 1193 0
 920              		.cfi_startproc
 921              		@ args = 0, pretend = 0, frame = 0
 922              		@ frame_needed = 0, uses_anonymous_args = 0
 923              	.LVL57:
 924 0000 70B5     		push	{r4, r5, r6, lr}
 925              		.cfi_def_cfa_offset 16
 926              		.cfi_offset 4, -16
 927              		.cfi_offset 5, -12
 928              		.cfi_offset 6, -8
 929              		.cfi_offset 14, -4
 930 0002 0600     		movs	r6, r0
 931 0004 0D00     		movs	r5, r1
 932              	.LVL58:
1194:Generated_Source\PSoC4/UART.c ****         uint8 bufIndex = 0u;
1195:Generated_Source\PSoC4/UART.c **** 
1196:Generated_Source\PSoC4/UART.c ****         /* If not Initialized then skip this function */
1197:Generated_Source\PSoC4/UART.c ****         if(UART_initVar != 0u)
 933              		.loc 1 1197 0
 934 0006 074B     		ldr	r3, .L82
 935 0008 1B78     		ldrb	r3, [r3]
 936 000a 002B     		cmp	r3, #0
 937 000c 06D1     		bne	.L81
 938 000e 08E0     		b	.L77
 939              	.LVL59:
 940              	.L80:
1198:Generated_Source\PSoC4/UART.c ****         {
1199:Generated_Source\PSoC4/UART.c ****             while(bufIndex < byteCount)
1200:Generated_Source\PSoC4/UART.c ****             {
1201:Generated_Source\PSoC4/UART.c ****                 UART_PutChar(string[bufIndex]);
 941              		.loc 1 1201 0
 942 0010 305D     		ldrb	r0, [r6, r4]
 943 0012 FFF7FEFF 		bl	UART_PutChar
 944              	.LVL60:
1202:Generated_Source\PSoC4/UART.c ****                 bufIndex++;
 945              		.loc 1 1202 0
 946 0016 0134     		adds	r4, r4, #1
 947              	.LVL61:
 948 0018 E4B2     		uxtb	r4, r4
 949              	.LVL62:
 950 001a 00E0     		b	.L78
 951              	.LVL63:
 952              	.L81:
 953 001c 0024     		movs	r4, #0
ARM GAS  C:\Users\tdoan1\AppData\Local\Temp\ccP2L39x.s 			page 39


 954              	.LVL64:
 955              	.L78:
1199:Generated_Source\PSoC4/UART.c ****             {
 956              		.loc 1 1199 0
 957 001e AC42     		cmp	r4, r5
 958 0020 F6D3     		bcc	.L80
 959              	.LVL65:
 960              	.L77:
1203:Generated_Source\PSoC4/UART.c ****             }
1204:Generated_Source\PSoC4/UART.c ****         }
1205:Generated_Source\PSoC4/UART.c ****     }
 961              		.loc 1 1205 0
 962              		@ sp needed
 963              	.LVL66:
 964 0022 70BD     		pop	{r4, r5, r6, pc}
 965              	.L83:
 966              		.align	2
 967              	.L82:
 968 0024 00000000 		.word	.LANCHOR0
 969              		.cfi_endproc
 970              	.LFE21:
 971              		.size	UART_PutArray, .-UART_PutArray
 972              		.section	.text.UART_PutCRLF,"ax",%progbits
 973              		.align	2
 974              		.global	UART_PutCRLF
 975              		.code	16
 976              		.thumb_func
 977              		.type	UART_PutCRLF, %function
 978              	UART_PutCRLF:
 979              	.LFB22:
1206:Generated_Source\PSoC4/UART.c **** 
1207:Generated_Source\PSoC4/UART.c **** 
1208:Generated_Source\PSoC4/UART.c ****     /*******************************************************************************
1209:Generated_Source\PSoC4/UART.c ****     * Function Name: UART_PutCRLF
1210:Generated_Source\PSoC4/UART.c ****     ********************************************************************************
1211:Generated_Source\PSoC4/UART.c ****     *
1212:Generated_Source\PSoC4/UART.c ****     * Summary:
1213:Generated_Source\PSoC4/UART.c ****     *  Writes a byte of data followed by a carriage return (0x0D) and line feed
1214:Generated_Source\PSoC4/UART.c ****     *  (0x0A) to the transmit buffer.
1215:Generated_Source\PSoC4/UART.c ****     *
1216:Generated_Source\PSoC4/UART.c ****     * Parameters:
1217:Generated_Source\PSoC4/UART.c ****     *  txDataByte: Data byte to transmit before the carriage return and line feed.
1218:Generated_Source\PSoC4/UART.c ****     *
1219:Generated_Source\PSoC4/UART.c ****     * Return:
1220:Generated_Source\PSoC4/UART.c ****     *  None.
1221:Generated_Source\PSoC4/UART.c ****     *
1222:Generated_Source\PSoC4/UART.c ****     * Global Variables:
1223:Generated_Source\PSoC4/UART.c ****     *  UART_initVar - checked to identify that the component has been
1224:Generated_Source\PSoC4/UART.c ****     *     initialized.
1225:Generated_Source\PSoC4/UART.c ****     *
1226:Generated_Source\PSoC4/UART.c ****     * Reentrant:
1227:Generated_Source\PSoC4/UART.c ****     *  No.
1228:Generated_Source\PSoC4/UART.c ****     *
1229:Generated_Source\PSoC4/UART.c ****     *******************************************************************************/
1230:Generated_Source\PSoC4/UART.c ****     void UART_PutCRLF(uint8 txDataByte) 
1231:Generated_Source\PSoC4/UART.c ****     {
 980              		.loc 1 1231 0
ARM GAS  C:\Users\tdoan1\AppData\Local\Temp\ccP2L39x.s 			page 40


 981              		.cfi_startproc
 982              		@ args = 0, pretend = 0, frame = 0
 983              		@ frame_needed = 0, uses_anonymous_args = 0
 984              	.LVL67:
 985 0000 10B5     		push	{r4, lr}
 986              		.cfi_def_cfa_offset 8
 987              		.cfi_offset 4, -8
 988              		.cfi_offset 14, -4
1232:Generated_Source\PSoC4/UART.c ****         /* If not Initialized then skip this function */
1233:Generated_Source\PSoC4/UART.c ****         if(UART_initVar != 0u)
 989              		.loc 1 1233 0
 990 0002 064B     		ldr	r3, .L86
 991 0004 1B78     		ldrb	r3, [r3]
 992 0006 002B     		cmp	r3, #0
 993 0008 07D0     		beq	.L84
1234:Generated_Source\PSoC4/UART.c ****         {
1235:Generated_Source\PSoC4/UART.c ****             UART_PutChar(txDataByte);
 994              		.loc 1 1235 0
 995 000a FFF7FEFF 		bl	UART_PutChar
 996              	.LVL68:
1236:Generated_Source\PSoC4/UART.c ****             UART_PutChar(0x0Du);
 997              		.loc 1 1236 0
 998 000e 0D20     		movs	r0, #13
 999 0010 FFF7FEFF 		bl	UART_PutChar
 1000              	.LVL69:
1237:Generated_Source\PSoC4/UART.c ****             UART_PutChar(0x0Au);
 1001              		.loc 1 1237 0
 1002 0014 0A20     		movs	r0, #10
 1003 0016 FFF7FEFF 		bl	UART_PutChar
 1004              	.LVL70:
 1005              	.L84:
1238:Generated_Source\PSoC4/UART.c ****         }
1239:Generated_Source\PSoC4/UART.c ****     }
 1006              		.loc 1 1239 0
 1007              		@ sp needed
 1008 001a 10BD     		pop	{r4, pc}
 1009              	.L87:
 1010              		.align	2
 1011              	.L86:
 1012 001c 00000000 		.word	.LANCHOR0
 1013              		.cfi_endproc
 1014              	.LFE22:
 1015              		.size	UART_PutCRLF, .-UART_PutCRLF
 1016              		.section	.text.UART_GetTxBufferSize,"ax",%progbits
 1017              		.align	2
 1018              		.global	UART_GetTxBufferSize
 1019              		.code	16
 1020              		.thumb_func
 1021              		.type	UART_GetTxBufferSize, %function
 1022              	UART_GetTxBufferSize:
 1023              	.LFB23:
1240:Generated_Source\PSoC4/UART.c **** 
1241:Generated_Source\PSoC4/UART.c **** 
1242:Generated_Source\PSoC4/UART.c ****     /*******************************************************************************
1243:Generated_Source\PSoC4/UART.c ****     * Function Name: UART_GetTxBufferSize
1244:Generated_Source\PSoC4/UART.c ****     ********************************************************************************
1245:Generated_Source\PSoC4/UART.c ****     *
ARM GAS  C:\Users\tdoan1\AppData\Local\Temp\ccP2L39x.s 			page 41


1246:Generated_Source\PSoC4/UART.c ****     * Summary:
1247:Generated_Source\PSoC4/UART.c ****     *  Returns the number of bytes in the TX buffer which are waiting to be 
1248:Generated_Source\PSoC4/UART.c ****     *  transmitted.
1249:Generated_Source\PSoC4/UART.c ****     *  * TX software buffer is disabled (TX Buffer Size parameter is equal to 4): 
1250:Generated_Source\PSoC4/UART.c ****     *    returns 0 for empty TX FIFO, 1 for not full TX FIFO or 4 for full TX FIFO.
1251:Generated_Source\PSoC4/UART.c ****     *  * TX software buffer is enabled: returns the number of bytes in the TX 
1252:Generated_Source\PSoC4/UART.c ****     *    software buffer which are waiting to be transmitted. Bytes available in the
1253:Generated_Source\PSoC4/UART.c ****     *    TX FIFO do not count.
1254:Generated_Source\PSoC4/UART.c ****     *
1255:Generated_Source\PSoC4/UART.c ****     * Parameters:
1256:Generated_Source\PSoC4/UART.c ****     *  None.
1257:Generated_Source\PSoC4/UART.c ****     *
1258:Generated_Source\PSoC4/UART.c ****     * Return:
1259:Generated_Source\PSoC4/UART.c ****     *  Number of bytes used in the TX buffer. Return value type depends on the TX 
1260:Generated_Source\PSoC4/UART.c ****     *  Buffer Size parameter.
1261:Generated_Source\PSoC4/UART.c ****     *
1262:Generated_Source\PSoC4/UART.c ****     * Global Variables:
1263:Generated_Source\PSoC4/UART.c ****     *  UART_txBufferWrite - used to calculate left space.
1264:Generated_Source\PSoC4/UART.c ****     *  UART_txBufferRead - used to calculate left space.
1265:Generated_Source\PSoC4/UART.c ****     *
1266:Generated_Source\PSoC4/UART.c ****     * Reentrant:
1267:Generated_Source\PSoC4/UART.c ****     *  No.
1268:Generated_Source\PSoC4/UART.c ****     *
1269:Generated_Source\PSoC4/UART.c ****     * Theory:
1270:Generated_Source\PSoC4/UART.c ****     *  Allows the user to find out how full the TX Buffer is.
1271:Generated_Source\PSoC4/UART.c ****     *
1272:Generated_Source\PSoC4/UART.c ****     *******************************************************************************/
1273:Generated_Source\PSoC4/UART.c ****     uint8 UART_GetTxBufferSize(void)
1274:Generated_Source\PSoC4/UART.c ****                                                             
1275:Generated_Source\PSoC4/UART.c ****     {
 1024              		.loc 1 1275 0
 1025              		.cfi_startproc
 1026              		@ args = 0, pretend = 0, frame = 0
 1027              		@ frame_needed = 0, uses_anonymous_args = 0
 1028 0000 10B5     		push	{r4, lr}
 1029              		.cfi_def_cfa_offset 8
 1030              		.cfi_offset 4, -8
 1031              		.cfi_offset 14, -4
1276:Generated_Source\PSoC4/UART.c ****         uint8 size;
1277:Generated_Source\PSoC4/UART.c **** 
1278:Generated_Source\PSoC4/UART.c ****     #if (UART_TX_INTERRUPT_ENABLED)
1279:Generated_Source\PSoC4/UART.c **** 
1280:Generated_Source\PSoC4/UART.c ****         /* Protect variables that could change on interrupt. */
1281:Generated_Source\PSoC4/UART.c ****         UART_DisableTxInt();
 1032              		.loc 1 1281 0
 1033 0002 0220     		movs	r0, #2
 1034 0004 FFF7FEFF 		bl	CyIntDisable
 1035              	.LVL71:
1282:Generated_Source\PSoC4/UART.c **** 
1283:Generated_Source\PSoC4/UART.c ****         if(UART_txBufferRead == UART_txBufferWrite)
 1036              		.loc 1 1283 0
 1037 0008 0D4B     		ldr	r3, .L92
 1038 000a 5A78     		ldrb	r2, [r3, #1]
 1039 000c D2B2     		uxtb	r2, r2
 1040 000e 9B78     		ldrb	r3, [r3, #2]
 1041 0010 9A42     		cmp	r2, r3
 1042 0012 0FD0     		beq	.L91
ARM GAS  C:\Users\tdoan1\AppData\Local\Temp\ccP2L39x.s 			page 42


1284:Generated_Source\PSoC4/UART.c ****         {
1285:Generated_Source\PSoC4/UART.c ****             size = 0u;
1286:Generated_Source\PSoC4/UART.c ****         }
1287:Generated_Source\PSoC4/UART.c ****         else if(UART_txBufferRead < UART_txBufferWrite)
 1043              		.loc 1 1287 0
 1044 0014 0A4A     		ldr	r2, .L92
 1045 0016 5278     		ldrb	r2, [r2, #1]
 1046 0018 D2B2     		uxtb	r2, r2
 1047 001a 9342     		cmp	r3, r2
 1048 001c 04D9     		bls	.L90
1288:Generated_Source\PSoC4/UART.c ****         {
1289:Generated_Source\PSoC4/UART.c ****             size = (UART_txBufferWrite - UART_txBufferRead);
 1049              		.loc 1 1289 0
 1050 001e 084A     		ldr	r2, .L92
 1051 0020 5478     		ldrb	r4, [r2, #1]
 1052 0022 1B1B     		subs	r3, r3, r4
 1053 0024 DCB2     		uxtb	r4, r3
 1054              	.LVL72:
 1055 0026 06E0     		b	.L89
 1056              	.LVL73:
 1057              	.L90:
1290:Generated_Source\PSoC4/UART.c ****         }
1291:Generated_Source\PSoC4/UART.c ****         else
1292:Generated_Source\PSoC4/UART.c ****         {
1293:Generated_Source\PSoC4/UART.c ****             size = (UART_TX_BUFFER_SIZE - UART_txBufferRead) +
 1058              		.loc 1 1293 0
 1059 0028 054A     		ldr	r2, .L92
 1060 002a 5478     		ldrb	r4, [r2, #1]
 1061 002c 1C1B     		subs	r4, r3, r4
 1062 002e 2834     		adds	r4, r4, #40
 1063 0030 E4B2     		uxtb	r4, r4
 1064              	.LVL74:
 1065 0032 00E0     		b	.L89
 1066              	.LVL75:
 1067              	.L91:
1285:Generated_Source\PSoC4/UART.c ****         }
 1068              		.loc 1 1285 0
 1069 0034 0024     		movs	r4, #0
 1070              	.L89:
 1071              	.LVL76:
1294:Generated_Source\PSoC4/UART.c ****                     UART_txBufferWrite;
1295:Generated_Source\PSoC4/UART.c ****         }
1296:Generated_Source\PSoC4/UART.c **** 
1297:Generated_Source\PSoC4/UART.c ****         UART_EnableTxInt();
 1072              		.loc 1 1297 0
 1073 0036 0220     		movs	r0, #2
 1074 0038 FFF7FEFF 		bl	CyIntEnable
 1075              	.LVL77:
1298:Generated_Source\PSoC4/UART.c **** 
1299:Generated_Source\PSoC4/UART.c ****     #else
1300:Generated_Source\PSoC4/UART.c **** 
1301:Generated_Source\PSoC4/UART.c ****         size = UART_TXSTATUS_REG;
1302:Generated_Source\PSoC4/UART.c **** 
1303:Generated_Source\PSoC4/UART.c ****         /* Is the fifo is full. */
1304:Generated_Source\PSoC4/UART.c ****         if((size & UART_TX_STS_FIFO_FULL) != 0u)
1305:Generated_Source\PSoC4/UART.c ****         {
1306:Generated_Source\PSoC4/UART.c ****             size = UART_FIFO_LENGTH;
ARM GAS  C:\Users\tdoan1\AppData\Local\Temp\ccP2L39x.s 			page 43


1307:Generated_Source\PSoC4/UART.c ****         }
1308:Generated_Source\PSoC4/UART.c ****         else if((size & UART_TX_STS_FIFO_EMPTY) != 0u)
1309:Generated_Source\PSoC4/UART.c ****         {
1310:Generated_Source\PSoC4/UART.c ****             size = 0u;
1311:Generated_Source\PSoC4/UART.c ****         }
1312:Generated_Source\PSoC4/UART.c ****         else
1313:Generated_Source\PSoC4/UART.c ****         {
1314:Generated_Source\PSoC4/UART.c ****             /* We only know there is data in the fifo. */
1315:Generated_Source\PSoC4/UART.c ****             size = 1u;
1316:Generated_Source\PSoC4/UART.c ****         }
1317:Generated_Source\PSoC4/UART.c **** 
1318:Generated_Source\PSoC4/UART.c ****     #endif /* (UART_TX_INTERRUPT_ENABLED) */
1319:Generated_Source\PSoC4/UART.c **** 
1320:Generated_Source\PSoC4/UART.c ****     return(size);
1321:Generated_Source\PSoC4/UART.c ****     }
 1076              		.loc 1 1321 0
 1077 003c 2000     		movs	r0, r4
 1078              		@ sp needed
 1079              	.LVL78:
 1080 003e 10BD     		pop	{r4, pc}
 1081              	.L93:
 1082              		.align	2
 1083              	.L92:
 1084 0040 00000000 		.word	.LANCHOR0
 1085              		.cfi_endproc
 1086              	.LFE23:
 1087              		.size	UART_GetTxBufferSize, .-UART_GetTxBufferSize
 1088              		.section	.text.UART_ClearTxBuffer,"ax",%progbits
 1089              		.align	2
 1090              		.global	UART_ClearTxBuffer
 1091              		.code	16
 1092              		.thumb_func
 1093              		.type	UART_ClearTxBuffer, %function
 1094              	UART_ClearTxBuffer:
 1095              	.LFB24:
1322:Generated_Source\PSoC4/UART.c **** 
1323:Generated_Source\PSoC4/UART.c **** 
1324:Generated_Source\PSoC4/UART.c ****     /*******************************************************************************
1325:Generated_Source\PSoC4/UART.c ****     * Function Name: UART_ClearTxBuffer
1326:Generated_Source\PSoC4/UART.c ****     ********************************************************************************
1327:Generated_Source\PSoC4/UART.c ****     *
1328:Generated_Source\PSoC4/UART.c ****     * Summary:
1329:Generated_Source\PSoC4/UART.c ****     *  Clears all data from the TX buffer and hardware TX FIFO.
1330:Generated_Source\PSoC4/UART.c ****     *
1331:Generated_Source\PSoC4/UART.c ****     * Parameters:
1332:Generated_Source\PSoC4/UART.c ****     *  None.
1333:Generated_Source\PSoC4/UART.c ****     *
1334:Generated_Source\PSoC4/UART.c ****     * Return:
1335:Generated_Source\PSoC4/UART.c ****     *  None.
1336:Generated_Source\PSoC4/UART.c ****     *
1337:Generated_Source\PSoC4/UART.c ****     * Global Variables:
1338:Generated_Source\PSoC4/UART.c ****     *  UART_txBufferWrite - cleared to zero.
1339:Generated_Source\PSoC4/UART.c ****     *  UART_txBufferRead - cleared to zero.
1340:Generated_Source\PSoC4/UART.c ****     *
1341:Generated_Source\PSoC4/UART.c ****     * Reentrant:
1342:Generated_Source\PSoC4/UART.c ****     *  No.
1343:Generated_Source\PSoC4/UART.c ****     *
ARM GAS  C:\Users\tdoan1\AppData\Local\Temp\ccP2L39x.s 			page 44


1344:Generated_Source\PSoC4/UART.c ****     * Theory:
1345:Generated_Source\PSoC4/UART.c ****     *  Setting the pointers to zero makes the system believe there is no data to
1346:Generated_Source\PSoC4/UART.c ****     *  read and writing will resume at address 0 overwriting any data that may have
1347:Generated_Source\PSoC4/UART.c ****     *  remained in the RAM.
1348:Generated_Source\PSoC4/UART.c ****     *
1349:Generated_Source\PSoC4/UART.c ****     * Side Effects:
1350:Generated_Source\PSoC4/UART.c ****     *  Data waiting in the transmit buffer is not sent; a byte that is currently
1351:Generated_Source\PSoC4/UART.c ****     *  transmitting finishes transmitting.
1352:Generated_Source\PSoC4/UART.c ****     *
1353:Generated_Source\PSoC4/UART.c ****     *******************************************************************************/
1354:Generated_Source\PSoC4/UART.c ****     void UART_ClearTxBuffer(void) 
1355:Generated_Source\PSoC4/UART.c ****     {
 1096              		.loc 1 1355 0
 1097              		.cfi_startproc
 1098              		@ args = 0, pretend = 0, frame = 0
 1099              		@ frame_needed = 0, uses_anonymous_args = 0
 1100 0000 10B5     		push	{r4, lr}
 1101              		.cfi_def_cfa_offset 8
 1102              		.cfi_offset 4, -8
 1103              		.cfi_offset 14, -4
1356:Generated_Source\PSoC4/UART.c ****         uint8 enableInterrupts;
1357:Generated_Source\PSoC4/UART.c **** 
1358:Generated_Source\PSoC4/UART.c ****         enableInterrupts = CyEnterCriticalSection();
 1104              		.loc 1 1358 0
 1105 0002 FFF7FEFF 		bl	CyEnterCriticalSection
 1106              	.LVL79:
1359:Generated_Source\PSoC4/UART.c ****         /* Clear the HW FIFO */
1360:Generated_Source\PSoC4/UART.c ****         UART_TXDATA_AUX_CTL_REG |= (uint8)  UART_TX_FIFO_CLR;
 1107              		.loc 1 1360 0
 1108 0006 0B4A     		ldr	r2, .L95
 1109 0008 1178     		ldrb	r1, [r2]
 1110 000a 0123     		movs	r3, #1
 1111 000c 0B43     		orrs	r3, r1
 1112 000e DBB2     		uxtb	r3, r3
 1113 0010 1370     		strb	r3, [r2]
1361:Generated_Source\PSoC4/UART.c ****         UART_TXDATA_AUX_CTL_REG &= (uint8) ~UART_TX_FIFO_CLR;
 1114              		.loc 1 1361 0
 1115 0012 1378     		ldrb	r3, [r2]
 1116 0014 0121     		movs	r1, #1
 1117 0016 8B43     		bics	r3, r1
 1118 0018 1370     		strb	r3, [r2]
1362:Generated_Source\PSoC4/UART.c ****         CyExitCriticalSection(enableInterrupts);
 1119              		.loc 1 1362 0
 1120 001a FFF7FEFF 		bl	CyExitCriticalSection
 1121              	.LVL80:
1363:Generated_Source\PSoC4/UART.c **** 
1364:Generated_Source\PSoC4/UART.c ****     #if (UART_TX_INTERRUPT_ENABLED)
1365:Generated_Source\PSoC4/UART.c **** 
1366:Generated_Source\PSoC4/UART.c ****         /* Protect variables that could change on interrupt. */
1367:Generated_Source\PSoC4/UART.c ****         UART_DisableTxInt();
 1122              		.loc 1 1367 0
 1123 001e 0220     		movs	r0, #2
 1124 0020 FFF7FEFF 		bl	CyIntDisable
 1125              	.LVL81:
1368:Generated_Source\PSoC4/UART.c **** 
1369:Generated_Source\PSoC4/UART.c ****         UART_txBufferRead = 0u;
 1126              		.loc 1 1369 0
ARM GAS  C:\Users\tdoan1\AppData\Local\Temp\ccP2L39x.s 			page 45


 1127 0024 044B     		ldr	r3, .L95+4
 1128 0026 0022     		movs	r2, #0
 1129 0028 5A70     		strb	r2, [r3, #1]
1370:Generated_Source\PSoC4/UART.c ****         UART_txBufferWrite = 0u;
 1130              		.loc 1 1370 0
 1131 002a 9A70     		strb	r2, [r3, #2]
1371:Generated_Source\PSoC4/UART.c **** 
1372:Generated_Source\PSoC4/UART.c ****         /* Enable Tx interrupt. */
1373:Generated_Source\PSoC4/UART.c ****         UART_EnableTxInt();
 1132              		.loc 1 1373 0
 1133 002c 0220     		movs	r0, #2
 1134 002e FFF7FEFF 		bl	CyIntEnable
 1135              	.LVL82:
1374:Generated_Source\PSoC4/UART.c **** 
1375:Generated_Source\PSoC4/UART.c ****     #endif /* (UART_TX_INTERRUPT_ENABLED) */
1376:Generated_Source\PSoC4/UART.c ****     }
 1136              		.loc 1 1376 0
 1137              		@ sp needed
 1138 0032 10BD     		pop	{r4, pc}
 1139              	.L96:
 1140              		.align	2
 1141              	.L95:
 1142 0034 93000F40 		.word	1074725011
 1143 0038 00000000 		.word	.LANCHOR0
 1144              		.cfi_endproc
 1145              	.LFE24:
 1146              		.size	UART_ClearTxBuffer, .-UART_ClearTxBuffer
 1147              		.section	.text.UART_SendBreak,"ax",%progbits
 1148              		.align	2
 1149              		.global	UART_SendBreak
 1150              		.code	16
 1151              		.thumb_func
 1152              		.type	UART_SendBreak, %function
 1153              	UART_SendBreak:
 1154              	.LFB25:
1377:Generated_Source\PSoC4/UART.c **** 
1378:Generated_Source\PSoC4/UART.c **** 
1379:Generated_Source\PSoC4/UART.c ****     /*******************************************************************************
1380:Generated_Source\PSoC4/UART.c ****     * Function Name: UART_SendBreak
1381:Generated_Source\PSoC4/UART.c ****     ********************************************************************************
1382:Generated_Source\PSoC4/UART.c ****     *
1383:Generated_Source\PSoC4/UART.c ****     * Summary:
1384:Generated_Source\PSoC4/UART.c ****     *  Transmits a break signal on the bus.
1385:Generated_Source\PSoC4/UART.c ****     *
1386:Generated_Source\PSoC4/UART.c ****     * Parameters:
1387:Generated_Source\PSoC4/UART.c ****     *  uint8 retMode:  Send Break return mode. See the following table for options.
1388:Generated_Source\PSoC4/UART.c ****     *   UART_SEND_BREAK - Initialize registers for break, send the Break
1389:Generated_Source\PSoC4/UART.c ****     *       signal and return immediately.
1390:Generated_Source\PSoC4/UART.c ****     *   UART_WAIT_FOR_COMPLETE_REINIT - Wait until break transmission is
1391:Generated_Source\PSoC4/UART.c ****     *       complete, reinitialize registers to normal transmission mode then return
1392:Generated_Source\PSoC4/UART.c ****     *   UART_REINIT - Reinitialize registers to normal transmission mode
1393:Generated_Source\PSoC4/UART.c ****     *       then return.
1394:Generated_Source\PSoC4/UART.c ****     *   UART_SEND_WAIT_REINIT - Performs both options: 
1395:Generated_Source\PSoC4/UART.c ****     *      UART_SEND_BREAK and UART_WAIT_FOR_COMPLETE_REINIT.
1396:Generated_Source\PSoC4/UART.c ****     *      This option is recommended for most cases.
1397:Generated_Source\PSoC4/UART.c ****     *
1398:Generated_Source\PSoC4/UART.c ****     * Return:
ARM GAS  C:\Users\tdoan1\AppData\Local\Temp\ccP2L39x.s 			page 46


1399:Generated_Source\PSoC4/UART.c ****     *  None.
1400:Generated_Source\PSoC4/UART.c ****     *
1401:Generated_Source\PSoC4/UART.c ****     * Global Variables:
1402:Generated_Source\PSoC4/UART.c ****     *  UART_initVar - checked to identify that the component has been
1403:Generated_Source\PSoC4/UART.c ****     *     initialized.
1404:Generated_Source\PSoC4/UART.c ****     *  txPeriod - static variable, used for keeping TX period configuration.
1405:Generated_Source\PSoC4/UART.c ****     *
1406:Generated_Source\PSoC4/UART.c ****     * Reentrant:
1407:Generated_Source\PSoC4/UART.c ****     *  No.
1408:Generated_Source\PSoC4/UART.c ****     *
1409:Generated_Source\PSoC4/UART.c ****     * Theory:
1410:Generated_Source\PSoC4/UART.c ****     *  SendBreak function initializes registers to send 13-bit break signal. It is
1411:Generated_Source\PSoC4/UART.c ****     *  important to return the registers configuration to normal for continue 8-bit
1412:Generated_Source\PSoC4/UART.c ****     *  operation.
1413:Generated_Source\PSoC4/UART.c ****     *  There are 3 variants for this API usage:
1414:Generated_Source\PSoC4/UART.c ****     *  1) SendBreak(3) - function will send the Break signal and take care on the
1415:Generated_Source\PSoC4/UART.c ****     *     configuration returning. Function will block CPU until transmission
1416:Generated_Source\PSoC4/UART.c ****     *     complete.
1417:Generated_Source\PSoC4/UART.c ****     *  2) User may want to use blocking time if UART configured to the low speed
1418:Generated_Source\PSoC4/UART.c ****     *     operation
1419:Generated_Source\PSoC4/UART.c ****     *     Example for this case:
1420:Generated_Source\PSoC4/UART.c ****     *     SendBreak(0);     - initialize Break signal transmission
1421:Generated_Source\PSoC4/UART.c ****     *         Add your code here to use CPU time
1422:Generated_Source\PSoC4/UART.c ****     *     SendBreak(1);     - complete Break operation
1423:Generated_Source\PSoC4/UART.c ****     *  3) Same to 2) but user may want to initialize and use the interrupt to
1424:Generated_Source\PSoC4/UART.c ****     *     complete break operation.
1425:Generated_Source\PSoC4/UART.c ****     *     Example for this case:
1426:Generated_Source\PSoC4/UART.c ****     *     Initialize TX interrupt with "TX - On TX Complete" parameter
1427:Generated_Source\PSoC4/UART.c ****     *     SendBreak(0);     - initialize Break signal transmission
1428:Generated_Source\PSoC4/UART.c ****     *         Add your code here to use CPU time
1429:Generated_Source\PSoC4/UART.c ****     *     When interrupt appear with UART_TX_STS_COMPLETE status:
1430:Generated_Source\PSoC4/UART.c ****     *     SendBreak(2);     - complete Break operation
1431:Generated_Source\PSoC4/UART.c ****     *
1432:Generated_Source\PSoC4/UART.c ****     * Side Effects:
1433:Generated_Source\PSoC4/UART.c ****     *  The UART_SendBreak() function initializes registers to send a
1434:Generated_Source\PSoC4/UART.c ****     *  break signal.
1435:Generated_Source\PSoC4/UART.c ****     *  Break signal length depends on the break signal bits configuration.
1436:Generated_Source\PSoC4/UART.c ****     *  The register configuration should be reinitialized before normal 8-bit
1437:Generated_Source\PSoC4/UART.c ****     *  communication can continue.
1438:Generated_Source\PSoC4/UART.c ****     *
1439:Generated_Source\PSoC4/UART.c ****     *******************************************************************************/
1440:Generated_Source\PSoC4/UART.c ****     void UART_SendBreak(uint8 retMode) 
1441:Generated_Source\PSoC4/UART.c ****     {
 1155              		.loc 1 1441 0
 1156              		.cfi_startproc
 1157              		@ args = 0, pretend = 0, frame = 0
 1158              		@ frame_needed = 0, uses_anonymous_args = 0
 1159              		@ link register save eliminated.
 1160              	.LVL83:
1442:Generated_Source\PSoC4/UART.c **** 
1443:Generated_Source\PSoC4/UART.c ****         /* If not Initialized then skip this function*/
1444:Generated_Source\PSoC4/UART.c ****         if(UART_initVar != 0u)
 1161              		.loc 1 1444 0
 1162 0000 134B     		ldr	r3, .L104
 1163 0002 1B78     		ldrb	r3, [r3]
 1164 0004 002B     		cmp	r3, #0
 1165 0006 21D0     		beq	.L97
ARM GAS  C:\Users\tdoan1\AppData\Local\Temp\ccP2L39x.s 			page 47


 1166              	.LBB2:
1445:Generated_Source\PSoC4/UART.c ****         {
1446:Generated_Source\PSoC4/UART.c ****             /* Set the Counter to 13-bits and transmit a 00 byte */
1447:Generated_Source\PSoC4/UART.c ****             /* When that is done then reset the counter value back */
1448:Generated_Source\PSoC4/UART.c ****             uint8 tmpStat;
1449:Generated_Source\PSoC4/UART.c **** 
1450:Generated_Source\PSoC4/UART.c ****         #if(UART_HD_ENABLED) /* Half Duplex mode*/
1451:Generated_Source\PSoC4/UART.c **** 
1452:Generated_Source\PSoC4/UART.c ****             if( (retMode == UART_SEND_BREAK) ||
1453:Generated_Source\PSoC4/UART.c ****                 (retMode == UART_SEND_WAIT_REINIT ) )
1454:Generated_Source\PSoC4/UART.c ****             {
1455:Generated_Source\PSoC4/UART.c ****                 /* CTRL_HD_SEND_BREAK - sends break bits in HD mode */
1456:Generated_Source\PSoC4/UART.c ****                 UART_WriteControlRegister(UART_ReadControlRegister() |
1457:Generated_Source\PSoC4/UART.c ****                                                       UART_CTRL_HD_SEND_BREAK);
1458:Generated_Source\PSoC4/UART.c ****                 /* Send zeros */
1459:Generated_Source\PSoC4/UART.c ****                 UART_TXDATA_REG = 0u;
1460:Generated_Source\PSoC4/UART.c **** 
1461:Generated_Source\PSoC4/UART.c ****                 do /* Wait until transmit starts */
1462:Generated_Source\PSoC4/UART.c ****                 {
1463:Generated_Source\PSoC4/UART.c ****                     tmpStat = UART_TXSTATUS_REG;
1464:Generated_Source\PSoC4/UART.c ****                 }
1465:Generated_Source\PSoC4/UART.c ****                 while((tmpStat & UART_TX_STS_FIFO_EMPTY) != 0u);
1466:Generated_Source\PSoC4/UART.c ****             }
1467:Generated_Source\PSoC4/UART.c **** 
1468:Generated_Source\PSoC4/UART.c ****             if( (retMode == UART_WAIT_FOR_COMPLETE_REINIT) ||
1469:Generated_Source\PSoC4/UART.c ****                 (retMode == UART_SEND_WAIT_REINIT) )
1470:Generated_Source\PSoC4/UART.c ****             {
1471:Generated_Source\PSoC4/UART.c ****                 do /* Wait until transmit complete */
1472:Generated_Source\PSoC4/UART.c ****                 {
1473:Generated_Source\PSoC4/UART.c ****                     tmpStat = UART_TXSTATUS_REG;
1474:Generated_Source\PSoC4/UART.c ****                 }
1475:Generated_Source\PSoC4/UART.c ****                 while(((uint8)~tmpStat & UART_TX_STS_COMPLETE) != 0u);
1476:Generated_Source\PSoC4/UART.c ****             }
1477:Generated_Source\PSoC4/UART.c **** 
1478:Generated_Source\PSoC4/UART.c ****             if( (retMode == UART_WAIT_FOR_COMPLETE_REINIT) ||
1479:Generated_Source\PSoC4/UART.c ****                 (retMode == UART_REINIT) ||
1480:Generated_Source\PSoC4/UART.c ****                 (retMode == UART_SEND_WAIT_REINIT) )
1481:Generated_Source\PSoC4/UART.c ****             {
1482:Generated_Source\PSoC4/UART.c ****                 UART_WriteControlRegister(UART_ReadControlRegister() &
1483:Generated_Source\PSoC4/UART.c ****                                               (uint8)~UART_CTRL_HD_SEND_BREAK);
1484:Generated_Source\PSoC4/UART.c ****             }
1485:Generated_Source\PSoC4/UART.c **** 
1486:Generated_Source\PSoC4/UART.c ****         #else /* UART_HD_ENABLED Full Duplex mode */
1487:Generated_Source\PSoC4/UART.c **** 
1488:Generated_Source\PSoC4/UART.c ****             static uint8 txPeriod;
1489:Generated_Source\PSoC4/UART.c **** 
1490:Generated_Source\PSoC4/UART.c ****             if( (retMode == UART_SEND_BREAK) ||
 1167              		.loc 1 1490 0
 1168 0008 0028     		cmp	r0, #0
 1169 000a 01D0     		beq	.L99
 1170              		.loc 1 1490 0 is_stmt 0 discriminator 1
 1171 000c 0328     		cmp	r0, #3
 1172 000e 0CD1     		bne	.L100
 1173              	.L99:
1491:Generated_Source\PSoC4/UART.c ****                 (retMode == UART_SEND_WAIT_REINIT) )
1492:Generated_Source\PSoC4/UART.c ****             {
1493:Generated_Source\PSoC4/UART.c ****                 /* CTRL_HD_SEND_BREAK - skip to send parity bit at Break signal in Full Duplex mode
ARM GAS  C:\Users\tdoan1\AppData\Local\Temp\ccP2L39x.s 			page 48


1494:Generated_Source\PSoC4/UART.c ****                 #if( (UART_PARITY_TYPE != UART__B_UART__NONE_REVB) || \
1495:Generated_Source\PSoC4/UART.c ****                                     (UART_PARITY_TYPE_SW != 0u) )
1496:Generated_Source\PSoC4/UART.c ****                     UART_WriteControlRegister(UART_ReadControlRegister() |
1497:Generated_Source\PSoC4/UART.c ****                                                           UART_CTRL_HD_SEND_BREAK);
1498:Generated_Source\PSoC4/UART.c ****                 #endif /* End UART_PARITY_TYPE != UART__B_UART__NONE_REVB  */
1499:Generated_Source\PSoC4/UART.c **** 
1500:Generated_Source\PSoC4/UART.c ****                 #if(UART_TXCLKGEN_DP)
1501:Generated_Source\PSoC4/UART.c ****                     txPeriod = UART_TXBITCLKTX_COMPLETE_REG;
 1174              		.loc 1 1501 0 is_stmt 1
 1175 0010 104B     		ldr	r3, .L104+4
 1176 0012 1978     		ldrb	r1, [r3]
 1177 0014 0E4A     		ldr	r2, .L104
 1178 0016 D170     		strb	r1, [r2, #3]
1502:Generated_Source\PSoC4/UART.c ****                     UART_TXBITCLKTX_COMPLETE_REG = UART_TXBITCTR_BREAKBITS;
 1179              		.loc 1 1502 0
 1180 0018 CF22     		movs	r2, #207
 1181 001a 1A70     		strb	r2, [r3]
1503:Generated_Source\PSoC4/UART.c ****                 #else
1504:Generated_Source\PSoC4/UART.c ****                     txPeriod = UART_TXBITCTR_PERIOD_REG;
1505:Generated_Source\PSoC4/UART.c ****                     UART_TXBITCTR_PERIOD_REG = UART_TXBITCTR_BREAKBITS8X;
1506:Generated_Source\PSoC4/UART.c ****                 #endif /* End UART_TXCLKGEN_DP */
1507:Generated_Source\PSoC4/UART.c **** 
1508:Generated_Source\PSoC4/UART.c ****                 /* Send zeros */
1509:Generated_Source\PSoC4/UART.c ****                 UART_TXDATA_REG = 0u;
 1182              		.loc 1 1509 0
 1183 001c 0022     		movs	r2, #0
 1184 001e 0E4B     		ldr	r3, .L104+8
 1185 0020 1A70     		strb	r2, [r3]
 1186              	.L101:
1510:Generated_Source\PSoC4/UART.c **** 
1511:Generated_Source\PSoC4/UART.c ****                 do /* Wait until transmit starts */
1512:Generated_Source\PSoC4/UART.c ****                 {
1513:Generated_Source\PSoC4/UART.c ****                     tmpStat = UART_TXSTATUS_REG;
 1187              		.loc 1 1513 0 discriminator 1
 1188 0022 0E4B     		ldr	r3, .L104+12
 1189 0024 1B78     		ldrb	r3, [r3]
 1190              	.LVL84:
1514:Generated_Source\PSoC4/UART.c ****                 }
1515:Generated_Source\PSoC4/UART.c ****                 while((tmpStat & UART_TX_STS_FIFO_EMPTY) != 0u);
 1191              		.loc 1 1515 0 discriminator 1
 1192 0026 9B07     		lsls	r3, r3, #30
 1193 0028 FBD4     		bmi	.L101
 1194              	.LVL85:
 1195              	.L100:
1516:Generated_Source\PSoC4/UART.c ****             }
1517:Generated_Source\PSoC4/UART.c **** 
1518:Generated_Source\PSoC4/UART.c ****             if( (retMode == UART_WAIT_FOR_COMPLETE_REINIT) ||
 1196              		.loc 1 1518 0
 1197 002a 0128     		cmp	r0, #1
 1198 002c 01D0     		beq	.L102
 1199              		.loc 1 1518 0 is_stmt 0 discriminator 1
 1200 002e 0328     		cmp	r0, #3
 1201 0030 04D1     		bne	.L103
 1202              	.L102:
1519:Generated_Source\PSoC4/UART.c ****                 (retMode == UART_SEND_WAIT_REINIT) )
1520:Generated_Source\PSoC4/UART.c ****             {
1521:Generated_Source\PSoC4/UART.c ****                 do /* Wait until transmit complete */
ARM GAS  C:\Users\tdoan1\AppData\Local\Temp\ccP2L39x.s 			page 49


1522:Generated_Source\PSoC4/UART.c ****                 {
1523:Generated_Source\PSoC4/UART.c ****                     tmpStat = UART_TXSTATUS_REG;
 1203              		.loc 1 1523 0 is_stmt 1 discriminator 1
 1204 0032 0A4B     		ldr	r3, .L104+12
 1205 0034 1A78     		ldrb	r2, [r3]
 1206              	.LVL86:
1524:Generated_Source\PSoC4/UART.c ****                 }
1525:Generated_Source\PSoC4/UART.c ****                 while(((uint8)~tmpStat & UART_TX_STS_COMPLETE) != 0u);
 1207              		.loc 1 1525 0 discriminator 1
 1208 0036 0123     		movs	r3, #1
 1209 0038 9343     		bics	r3, r2
 1210 003a FAD1     		bne	.L102
 1211              	.LVL87:
 1212              	.L103:
1526:Generated_Source\PSoC4/UART.c ****             }
1527:Generated_Source\PSoC4/UART.c **** 
1528:Generated_Source\PSoC4/UART.c ****             if( (retMode == UART_WAIT_FOR_COMPLETE_REINIT) ||
1529:Generated_Source\PSoC4/UART.c ****                 (retMode == UART_REINIT) ||
 1213              		.loc 1 1529 0
 1214 003c 0138     		subs	r0, r0, #1
 1215              	.LVL88:
 1216 003e C0B2     		uxtb	r0, r0
1528:Generated_Source\PSoC4/UART.c ****                 (retMode == UART_REINIT) ||
 1217              		.loc 1 1528 0
 1218 0040 0228     		cmp	r0, #2
 1219 0042 03D8     		bhi	.L97
1530:Generated_Source\PSoC4/UART.c ****                 (retMode == UART_SEND_WAIT_REINIT) )
1531:Generated_Source\PSoC4/UART.c ****             {
1532:Generated_Source\PSoC4/UART.c **** 
1533:Generated_Source\PSoC4/UART.c ****             #if(UART_TXCLKGEN_DP)
1534:Generated_Source\PSoC4/UART.c ****                 UART_TXBITCLKTX_COMPLETE_REG = txPeriod;
 1220              		.loc 1 1534 0
 1221 0044 024B     		ldr	r3, .L104
 1222 0046 DA78     		ldrb	r2, [r3, #3]
 1223 0048 024B     		ldr	r3, .L104+4
 1224 004a 1A70     		strb	r2, [r3]
 1225              	.L97:
 1226              	.LBE2:
1535:Generated_Source\PSoC4/UART.c ****             #else
1536:Generated_Source\PSoC4/UART.c ****                 UART_TXBITCTR_PERIOD_REG = txPeriod;
1537:Generated_Source\PSoC4/UART.c ****             #endif /* End UART_TXCLKGEN_DP */
1538:Generated_Source\PSoC4/UART.c **** 
1539:Generated_Source\PSoC4/UART.c ****             #if( (UART_PARITY_TYPE != UART__B_UART__NONE_REVB) || \
1540:Generated_Source\PSoC4/UART.c ****                  (UART_PARITY_TYPE_SW != 0u) )
1541:Generated_Source\PSoC4/UART.c ****                 UART_WriteControlRegister(UART_ReadControlRegister() &
1542:Generated_Source\PSoC4/UART.c ****                                                       (uint8) ~UART_CTRL_HD_SEND_BREAK);
1543:Generated_Source\PSoC4/UART.c ****             #endif /* End UART_PARITY_TYPE != NONE */
1544:Generated_Source\PSoC4/UART.c ****             }
1545:Generated_Source\PSoC4/UART.c ****         #endif    /* End UART_HD_ENABLED */
1546:Generated_Source\PSoC4/UART.c ****         }
1547:Generated_Source\PSoC4/UART.c ****     }
 1227              		.loc 1 1547 0
 1228              		@ sp needed
 1229 004c 7047     		bx	lr
 1230              	.L105:
 1231 004e C046     		.align	2
 1232              	.L104:
ARM GAS  C:\Users\tdoan1\AppData\Local\Temp\ccP2L39x.s 			page 50


 1233 0050 00000000 		.word	.LANCHOR0
 1234 0054 32000F40 		.word	1074724914
 1235 0058 43000F40 		.word	1074724931
 1236 005c 63000F40 		.word	1074724963
 1237              		.cfi_endproc
 1238              	.LFE25:
 1239              		.size	UART_SendBreak, .-UART_SendBreak
 1240              		.section	.text.UART_SetTxAddressMode,"ax",%progbits
 1241              		.align	2
 1242              		.global	UART_SetTxAddressMode
 1243              		.code	16
 1244              		.thumb_func
 1245              		.type	UART_SetTxAddressMode, %function
 1246              	UART_SetTxAddressMode:
 1247              	.LFB26:
1548:Generated_Source\PSoC4/UART.c **** 
1549:Generated_Source\PSoC4/UART.c **** 
1550:Generated_Source\PSoC4/UART.c ****     /*******************************************************************************
1551:Generated_Source\PSoC4/UART.c ****     * Function Name: UART_SetTxAddressMode
1552:Generated_Source\PSoC4/UART.c ****     ********************************************************************************
1553:Generated_Source\PSoC4/UART.c ****     *
1554:Generated_Source\PSoC4/UART.c ****     * Summary:
1555:Generated_Source\PSoC4/UART.c ****     *  Configures the transmitter to signal the next bytes is address or data.
1556:Generated_Source\PSoC4/UART.c ****     *
1557:Generated_Source\PSoC4/UART.c ****     * Parameters:
1558:Generated_Source\PSoC4/UART.c ****     *  addressMode: 
1559:Generated_Source\PSoC4/UART.c ****     *       UART_SET_SPACE - Configure the transmitter to send the next
1560:Generated_Source\PSoC4/UART.c ****     *                                    byte as a data.
1561:Generated_Source\PSoC4/UART.c ****     *       UART_SET_MARK  - Configure the transmitter to send the next
1562:Generated_Source\PSoC4/UART.c ****     *                                    byte as an address.
1563:Generated_Source\PSoC4/UART.c ****     *
1564:Generated_Source\PSoC4/UART.c ****     * Return:
1565:Generated_Source\PSoC4/UART.c ****     *  None.
1566:Generated_Source\PSoC4/UART.c ****     *
1567:Generated_Source\PSoC4/UART.c ****     * Side Effects:
1568:Generated_Source\PSoC4/UART.c ****     *  This function sets and clears UART_CTRL_MARK bit in the Control
1569:Generated_Source\PSoC4/UART.c ****     *  register.
1570:Generated_Source\PSoC4/UART.c ****     *
1571:Generated_Source\PSoC4/UART.c ****     *******************************************************************************/
1572:Generated_Source\PSoC4/UART.c ****     void UART_SetTxAddressMode(uint8 addressMode) 
1573:Generated_Source\PSoC4/UART.c ****     {
 1248              		.loc 1 1573 0
 1249              		.cfi_startproc
 1250              		@ args = 0, pretend = 0, frame = 0
 1251              		@ frame_needed = 0, uses_anonymous_args = 0
 1252              		@ link register save eliminated.
 1253              	.LVL89:
1574:Generated_Source\PSoC4/UART.c ****         /* Mark/Space sending enable */
1575:Generated_Source\PSoC4/UART.c ****         if(addressMode != 0u)
1576:Generated_Source\PSoC4/UART.c ****         {
1577:Generated_Source\PSoC4/UART.c ****         #if( UART_CONTROL_REG_REMOVED == 0u )
1578:Generated_Source\PSoC4/UART.c ****             UART_WriteControlRegister(UART_ReadControlRegister() |
1579:Generated_Source\PSoC4/UART.c ****                                                   UART_CTRL_MARK);
1580:Generated_Source\PSoC4/UART.c ****         #endif /* End UART_CONTROL_REG_REMOVED == 0u */
1581:Generated_Source\PSoC4/UART.c ****         }
1582:Generated_Source\PSoC4/UART.c ****         else
1583:Generated_Source\PSoC4/UART.c ****         {
ARM GAS  C:\Users\tdoan1\AppData\Local\Temp\ccP2L39x.s 			page 51


1584:Generated_Source\PSoC4/UART.c ****         #if( UART_CONTROL_REG_REMOVED == 0u )
1585:Generated_Source\PSoC4/UART.c ****             UART_WriteControlRegister(UART_ReadControlRegister() &
1586:Generated_Source\PSoC4/UART.c ****                                                   (uint8) ~UART_CTRL_MARK);
1587:Generated_Source\PSoC4/UART.c ****         #endif /* End UART_CONTROL_REG_REMOVED == 0u */
1588:Generated_Source\PSoC4/UART.c ****         }
1589:Generated_Source\PSoC4/UART.c ****     }
 1254              		.loc 1 1589 0
 1255              		@ sp needed
 1256 0000 7047     		bx	lr
 1257              		.cfi_endproc
 1258              	.LFE26:
 1259              		.size	UART_SetTxAddressMode, .-UART_SetTxAddressMode
 1260              		.global	UART_txBufferWrite
 1261              		.global	UART_txBufferRead
 1262              		.comm	UART_txBuffer,40,4
 1263              		.global	UART_initVar
 1264 0002 C046     		.bss
 1265              		.set	.LANCHOR0,. + 0
 1266              		.type	UART_initVar, %object
 1267              		.size	UART_initVar, 1
 1268              	UART_initVar:
 1269 0000 00       		.space	1
 1270              		.type	UART_txBufferRead, %object
 1271              		.size	UART_txBufferRead, 1
 1272              	UART_txBufferRead:
 1273 0001 00       		.space	1
 1274              		.type	UART_txBufferWrite, %object
 1275              		.size	UART_txBufferWrite, 1
 1276              	UART_txBufferWrite:
 1277 0002 00       		.space	1
 1278              		.type	txPeriod.4992, %object
 1279              		.size	txPeriod.4992, 1
 1280              	txPeriod.4992:
 1281 0003 00       		.space	1
 1282              		.text
 1283              	.Letext0:
 1284              		.file 2 "Generated_Source\\PSoC4\\cytypes.h"
 1285              		.file 3 "Generated_Source\\PSoC4\\CyLib.h"
 1286              		.file 4 "Generated_Source\\PSoC4\\UART_IntClock.h"